
eclipse.elf:     file format elf32-littlenios2
eclipse.elf
architecture: nios2:r1, flags 0x00000112:
EXEC_P, HAS_SYMS, D_PAGED
start address 0x00000244

Program Header:
    LOAD off    0x00001000 vaddr 0x00000000 paddr 0x00000000 align 2**12
         filesz 0x00000020 memsz 0x00000020 flags r-x
    LOAD off    0x00001020 vaddr 0x00000020 paddr 0x00000020 align 2**12
         filesz 0x00025c98 memsz 0x00025c98 flags r-x
    LOAD off    0x00026cb8 vaddr 0x00025cb8 paddr 0x00027834 align 2**12
         filesz 0x00001b7c memsz 0x00001b7c flags rw-
    LOAD off    0x000293b0 vaddr 0x000293b0 paddr 0x000293b0 align 2**12
         filesz 0x00000000 memsz 0x0000544c flags rw-

Sections:
Idx Name          Size      VMA       LMA       File off  Algn
  0 .entry        00000020  00000000  00000000  00001000  2**5
                  CONTENTS, ALLOC, LOAD, READONLY, CODE
  1 .exceptions   00000224  00000020  00000020  00001020  2**2
                  CONTENTS, ALLOC, LOAD, READONLY, CODE
  2 .text         000246f8  00000244  00000244  00001244  2**2
                  CONTENTS, ALLOC, LOAD, READONLY, CODE
  3 .rodata       0000137c  0002493c  0002493c  0002593c  2**2
                  CONTENTS, ALLOC, LOAD, READONLY, DATA
  4 .rwdata       00001b7c  00025cb8  00027834  00026cb8  2**2
                  CONTENTS, ALLOC, LOAD, DATA, SMALL_DATA
  5 .bss          0000544c  000293b0  000293b0  000293b0  2**2
                  ALLOC, SMALL_DATA
  6 .SDRAM        00000000  0002e7fc  0002e7fc  00028834  2**0
                  CONTENTS
  7 .comment      00000023  00000000  00000000  00028834  2**0
                  CONTENTS, READONLY
  8 .debug_aranges 000014c0  00000000  00000000  00028858  2**3
                  CONTENTS, READONLY, DEBUGGING
  9 .debug_info   0003ef7d  00000000  00000000  00029d18  2**0
                  CONTENTS, READONLY, DEBUGGING
 10 .debug_abbrev 0000e7ef  00000000  00000000  00068c95  2**0
                  CONTENTS, READONLY, DEBUGGING
 11 .debug_line   00013b22  00000000  00000000  00077484  2**0
                  CONTENTS, READONLY, DEBUGGING
 12 .debug_frame  00003f30  00000000  00000000  0008afa8  2**2
                  CONTENTS, READONLY, DEBUGGING
 13 .debug_str    00005ad7  00000000  00000000  0008eed8  2**0
                  CONTENTS, READONLY, DEBUGGING
 14 .debug_loc    00024fff  00000000  00000000  000949af  2**0
                  CONTENTS, READONLY, DEBUGGING
 15 .debug_alt_sim_info 00000020  00000000  00000000  000b99b0  2**2
                  CONTENTS, READONLY, DEBUGGING
 16 .debug_ranges 00002158  00000000  00000000  000b99d0  2**3
                  CONTENTS, READONLY, DEBUGGING
 17 .thread_model 00000006  00000000  00000000  000c10e6  2**0
                  CONTENTS, READONLY
 18 .cpu          00000005  00000000  00000000  000c10ec  2**0
                  CONTENTS, READONLY
 19 .qsys         00000001  00000000  00000000  000c10f1  2**0
                  CONTENTS, READONLY
 20 .simulation_enabled 00000001  00000000  00000000  000c10f2  2**0
                  CONTENTS, READONLY
 21 .stderr_dev   00000009  00000000  00000000  000c10f3  2**0
                  CONTENTS, READONLY
 22 .stdin_dev    00000009  00000000  00000000  000c10fc  2**0
                  CONTENTS, READONLY
 23 .stdout_dev   00000009  00000000  00000000  000c1105  2**0
                  CONTENTS, READONLY
 24 .sopc_system_name 0000000b  00000000  00000000  000c110e  2**0
                  CONTENTS, READONLY
 25 .quartus_project_dir 00000032  00000000  00000000  000c1119  2**0
                  CONTENTS, READONLY
 26 .jdi          00008b87  00000000  00000000  000c114b  2**0
                  CONTENTS, READONLY
 27 .sopcinfo     000a4078  00000000  00000000  000c9cd2  2**0
                  CONTENTS, READONLY
SYMBOL TABLE:
00000000 l    d  .entry	00000000 .entry
00000020 l    d  .exceptions	00000000 .exceptions
00000244 l    d  .text	00000000 .text
0002493c l    d  .rodata	00000000 .rodata
00025cb8 l    d  .rwdata	00000000 .rwdata
000293b0 l    d  .bss	00000000 .bss
0002e7fc l    d  .SDRAM	00000000 .SDRAM
00000000 l    d  .comment	00000000 .comment
00000000 l    d  .debug_aranges	00000000 .debug_aranges
00000000 l    d  .debug_info	00000000 .debug_info
00000000 l    d  .debug_abbrev	00000000 .debug_abbrev
00000000 l    d  .debug_line	00000000 .debug_line
00000000 l    d  .debug_frame	00000000 .debug_frame
00000000 l    d  .debug_str	00000000 .debug_str
00000000 l    d  .debug_loc	00000000 .debug_loc
00000000 l    d  .debug_alt_sim_info	00000000 .debug_alt_sim_info
00000000 l    d  .debug_ranges	00000000 .debug_ranges
00000000 l    df *ABS*	00000000 ../eclipse_bsp//obj/HAL/src/crt0.o
0000027c l       .text	00000000 alt_after_alt_main
00000000 l    df *ABS*	00000000 alt_irq_handler.c
00000000 l    df *ABS*	00000000 alt_instruction_exception_entry.c
00000000 l    df *ABS*	00000000 algo_ucos.c
00000000 l    df *ABS*	00000000 vector.c
00000000 l    df *ABS*	00000000 fgets.c
00000000 l    df *ABS*	00000000 findfp.c
00004aa8 l     F .text	00000008 __fp_unlock
00004abc l     F .text	0000019c __sinit.part.1
00004c58 l     F .text	00000008 __fp_lock
00000000 l    df *ABS*	00000000 fwalk.c
00000000 l    df *ABS*	00000000 impure.c
00025cb8 l     O .rwdata	00000424 impure_data
00000000 l    df *ABS*	00000000 malloc.c
00000000 l    df *ABS*	00000000 mallocr.c
00000000 l    df *ABS*	00000000 memchr.c
00000000 l    df *ABS*	00000000 memcpy.c
00000000 l    df *ABS*	00000000 memset.c
00000000 l    df *ABS*	00000000 printf.c
00000000 l    df *ABS*	00000000 putchar.c
00000000 l    df *ABS*	00000000 puts.c
00000000 l    df *ABS*	00000000 realloc.c
00000000 l    df *ABS*	00000000 mallocr.c
00000000 l    df *ABS*	00000000 refill.c
00006234 l     F .text	0000001c lflush
00000000 l    df *ABS*	00000000 sbrkr.c
00000000 l    df *ABS*	00000000 scanf.c
00000000 l    df *ABS*	00000000 stdio.c
00000000 l    df *ABS*	00000000 strlen.c
00000000 l    df *ABS*	00000000 strtol.c
00000000 l    df *ABS*	00000000 vfprintf.c
0002549a l     O .rodata	00000010 zeroes.4404
00008b20 l     F .text	000000bc __sbprintf
000254aa l     O .rodata	00000010 blanks.4403
00000000 l    df *ABS*	00000000 vfscanf.c
000254c2 l     O .rodata	00000022 basefix.4359
00000000 l    df *ABS*	00000000 writer.c
00000000 l    df *ABS*	00000000 wsetup.c
00000000 l    df *ABS*	00000000 closer.c
00000000 l    df *ABS*	00000000 ctype_.c
000255e5 l     O .rodata	00000180 _ctype_b
00000000 l    df *ABS*	00000000 dtoa.c
0000a670 l     F .text	00000200 quorem
00000000 l    df *ABS*	00000000 fclose.c
00000000 l    df *ABS*	00000000 fflush.c
00000000 l    df *ABS*	00000000 fread.c
00000000 l    df *ABS*	00000000 mallocr.c
00000000 l    df *ABS*	00000000 fvwrite.c
00000000 l    df *ABS*	00000000 int_errno.c
00000000 l    df *ABS*	00000000 iswspace.c
00000000 l    df *ABS*	00000000 locale.c
00026504 l     O .rwdata	00000020 lc_ctype_charset
000264e4 l     O .rwdata	00000020 lc_message_charset
00026524 l     O .rwdata	00000038 lconv
00000000 l    df *ABS*	00000000 lseekr.c
00000000 l    df *ABS*	00000000 makebuf.c
00000000 l    df *ABS*	00000000 mbrtowc.c
00000000 l    df *ABS*	00000000 mbtowc_r.c
00000000 l    df *ABS*	00000000 memmove.c
00000000 l    df *ABS*	00000000 mprec.c
00025784 l     O .rodata	0000000c p05.2768
00000000 l    df *ABS*	00000000 putc.c
00000000 l    df *ABS*	00000000 readr.c
00000000 l    df *ABS*	00000000 s_fpclassify.c
00000000 l    df *ABS*	00000000 sccl.c
00000000 l    df *ABS*	00000000 sf_nan.c
00000000 l    df *ABS*	00000000 sprintf.c
00000000 l    df *ABS*	00000000 strcmp.c
00000000 l    df *ABS*	00000000 strtod.c
0000e94c l     F .text	00000064 sulp
000258cc l     O .rodata	00000014 fpi.2737
000258e0 l     O .rodata	00000028 tinytens
000258b8 l     O .rodata	00000014 fpinan.2773
00000000 l    df *ABS*	00000000 strtoll_r.c
00000000 l    df *ABS*	00000000 strtoul.c
00000000 l    df *ABS*	00000000 strtoull_r.c
00000000 l    df *ABS*	00000000 vfprintf.c
00025908 l     O .rodata	00000010 zeroes.4389
00025918 l     O .rodata	00000010 blanks.4388
00000000 l    df *ABS*	00000000 ungetc.c
00000000 l    df *ABS*	00000000 vfprintf.c
00012d38 l     F .text	000000fc __sprint_r.part.0
00025938 l     O .rodata	00000010 blanks.4348
00025928 l     O .rodata	00000010 zeroes.4349
000142c4 l     F .text	000000bc __sbprintf
00000000 l    df *ABS*	00000000 wbuf.c
00000000 l    df *ABS*	00000000 mallocr.c
00000000 l    df *ABS*	00000000 fputwc.c
00000000 l    df *ABS*	00000000 fstatr.c
00000000 l    df *ABS*	00000000 gdtoa-gethex.c
00014800 l     F .text	00000100 rshift
00000000 l    df *ABS*	00000000 gdtoa-hexnan.c
00000000 l    df *ABS*	00000000 isattyr.c
00000000 l    df *ABS*	00000000 strncmp.c
00000000 l    df *ABS*	00000000 vfprintf.c
00025a58 l     O .rodata	00000010 blanks.4332
00025a48 l     O .rodata	00000010 zeroes.4333
00000000 l    df *ABS*	00000000 wcrtomb.c
00000000 l    df *ABS*	00000000 wctomb_r.c
00000000 l    df *ABS*	00000000 libgcc2.c
00000000 l    df *ABS*	00000000 libgcc2.c
00000000 l    df *ABS*	00000000 libgcc2.c
00000000 l    df *ABS*	00000000 lib2-divmod.c
00000000 l    df *ABS*	00000000 eqsf2.c
00000000 l    df *ABS*	00000000 gesf2.c
00000000 l    df *ABS*	00000000 lesf2.c
00000000 l    df *ABS*	00000000 adddf3.c
00000000 l    df *ABS*	00000000 divdf3.c
00000000 l    df *ABS*	00000000 eqdf2.c
00000000 l    df *ABS*	00000000 gedf2.c
00000000 l    df *ABS*	00000000 ledf2.c
00000000 l    df *ABS*	00000000 muldf3.c
00000000 l    df *ABS*	00000000 subdf3.c
00000000 l    df *ABS*	00000000 fixdfsi.c
00000000 l    df *ABS*	00000000 floatsidf.c
00000000 l    df *ABS*	00000000 floatunsidf.c
00000000 l    df *ABS*	00000000 truncdfsf2.c
00000000 l    df *ABS*	00000000 libgcc2.c
00000000 l    df *ABS*	00000000 libgcc2.c
00000000 l    df *ABS*	00000000 alt_close.c
0001a188 l     F .text	0000003c alt_get_errno
00000000 l    df *ABS*	00000000 alt_dev.c
0001a294 l     F .text	0000002c alt_dev_null_write
00000000 l    df *ABS*	00000000 alt_errno.c
00000000 l    df *ABS*	00000000 alt_fstat.c
0001a2c0 l     F .text	0000003c alt_get_errno
00000000 l    df *ABS*	00000000 alt_isatty.c
0001a3ac l     F .text	0000003c alt_get_errno
00000000 l    df *ABS*	00000000 alt_load.c
0001a48c l     F .text	00000068 alt_load_section
00000000 l    df *ABS*	00000000 alt_lseek.c
0001a578 l     F .text	0000003c alt_get_errno
00000000 l    df *ABS*	00000000 alt_main.c
00000000 l    df *ABS*	00000000 alt_read.c
0001a744 l     F .text	0000003c alt_get_errno
00000000 l    df *ABS*	00000000 alt_release_fd.c
00000000 l    df *ABS*	00000000 alt_sbrk.c
000277a8 l     O .rwdata	00000004 heap_end
00000000 l    df *ABS*	00000000 alt_write.c
0001a990 l     F .text	0000003c alt_get_errno
00000000 l    df *ABS*	00000000 alt_env_lock.c
000277ac l     O .rwdata	00000004 lockid
000293dc l     O .bss	00000004 locks
00000000 l    df *ABS*	00000000 alt_malloc_lock.c
000277b0 l     O .rwdata	00000004 lockid
000293e4 l     O .bss	00000004 locks
00000000 l    df *ABS*	00000000 os_core.c
0001c3c0 l     F .text	00000048 OS_InitMisc
0001c408 l     F .text	0000006c OS_InitRdyList
0001c574 l     F .text	000000e4 OS_InitTCBList
0001c2e0 l     F .text	000000e0 OS_InitEventList
0001c474 l     F .text	00000080 OS_InitTaskIdle
0001c4f4 l     F .text	00000080 OS_InitTaskStat
0001c7e4 l     F .text	00000074 OS_SchedNew
00000000 l    df *ABS*	00000000 os_dbg.c
00000000 l    df *ABS*	00000000 os_flag.c
0001e504 l     F .text	000000f4 OS_FlagTaskRdy
0001e2c4 l     F .text	00000160 OS_FlagBlock
00000000 l    df *ABS*	00000000 os_mem.c
00000000 l    df *ABS*	00000000 os_q.c
00000000 l    df *ABS*	00000000 os_sem.c
00000000 l    df *ABS*	00000000 os_task.c
00000000 l    df *ABS*	00000000 os_time.c
00000000 l    df *ABS*	00000000 alt_sys_init.c
000225b4 l     F .text	00000034 alt_dev_reg
00026704 l     O .rwdata	0000106c JTAG_UART
00000000 l    df *ABS*	00000000 altera_avalon_jtag_uart_fd.c
00000000 l    df *ABS*	00000000 altera_avalon_jtag_uart_init.c
00022914 l     F .text	000002a4 altera_avalon_jtag_uart_irq
00022bb8 l     F .text	00000104 altera_avalon_jtag_uart_timeout
00000000 l    df *ABS*	00000000 altera_avalon_jtag_uart_ioctl.c
00000000 l    df *ABS*	00000000 altera_avalon_jtag_uart_read.c
00000000 l    df *ABS*	00000000 altera_avalon_jtag_uart_write.c
00000000 l    df *ABS*	00000000 alt_alarm_start.c
00000000 l    df *ABS*	00000000 alt_dcache_flush_all.c
00000000 l    df *ABS*	00000000 alt_dev_llist_insert.c
000234e0 l     F .text	0000003c alt_get_errno
00000000 l    df *ABS*	00000000 alt_do_ctors.c
00000000 l    df *ABS*	00000000 alt_do_dtors.c
00000000 l    df *ABS*	00000000 alt_icache_flush_all.c
00000000 l    df *ABS*	00000000 alt_iic.c
00000000 l    df *ABS*	00000000 alt_iic_isr_register.c
00000000 l    df *ABS*	00000000 alt_io_redirect.c
00023954 l     F .text	000000c4 alt_open_fd
00000000 l    df *ABS*	00000000 alt_irq_vars.c
00000000 l    df *ABS*	00000000 alt_open.c
00023a94 l     F .text	0000003c alt_get_errno
00023ad0 l     F .text	000000c4 alt_file_locked
00000000 l    df *ABS*	00000000 alt_tick.c
00000000 l    df *ABS*	00000000 altera_nios2_gen2_irq.c
00000000 l    df *ABS*	00000000 os_cpu_a.o
00000040 l       *ABS*	00000000 OSCtxSw_SWITCH_PC
00000000 l    df *ABS*	00000000 os_cpu_c.c
00000014 l       *ABS*	00000000 OSTCBNext_OFFSET
00000032 l       *ABS*	00000000 OSTCBPrio_OFFSET
00000000 l       *ABS*	00000000 OSTCBStkPtr_OFFSET
00000000 l    df *ABS*	00000000 alt_find_dev.c
00000000 l    df *ABS*	00000000 alt_find_file.c
00000000 l    df *ABS*	00000000 alt_get_fd.c
00000000 l    df *ABS*	00000000 alt_icache_flush.c
00000000 l    df *ABS*	00000000 atexit.c
00000000 l    df *ABS*	00000000 exit.c
00000000 l    df *ABS*	00000000 memcmp.c
00000000 l    df *ABS*	00000000 __atexit.c
00000000 l    df *ABS*	00000000 __call_atexit.c
00000000 l    df *ABS*	00000000 alt_exit.c
00029448 g     O .bss	00000004 alt_instruction_exception_handler
00005bcc g     F .text	00000018 putchar
0000e320 g     F .text	00000074 _mprec_log10
000277fe g     O .rwdata	00000002 OSTaskNameSize
0000e40c g     F .text	0000008c __any_on
0001538c g     F .text	00000054 _isatty_r
00025790 g     O .rodata	00000028 __mprec_tinytens
0001a688 g     F .text	000000bc alt_main
00005be4 g     F .text	000000c0 _puts_r
0002e6fc g     O .bss	00000100 alt_irq
0000cf00 g     F .text	00000060 _lseek_r
0001ed24 g     F .text	000000cc OS_MemInit
00000c30 g     F .text	0000024c stripCaptureVector
00027834 g       *ABS*	00000000 __flash_rwdata_start
00022554 g     F .text	00000060 OSTimeSet
00018b0c g     F .text	00000088 .hidden __eqdf2
00003b54 g     F .text	000004a4 playerInput
0001b034 g     F .text	00000610 OSEventPendMulti
0002e7fc g       *ABS*	00000000 __alt_heap_start
000240dc g     F .text	00000024 OSTaskCreateHook
00005b88 g     F .text	0000003c printf
000277d6 g     O .rwdata	00000002 OSMboxEn
0001b69c g     F .text	0000004c OSIntEnter
000168bc g     F .text	0000009c _wcrtomb_r
000065bc g     F .text	0000005c __sseek
00004df8 g     F .text	00000010 __sinit
00014380 g     F .text	00000140 __swbuf_r
000044d4 g     F .text	00000058 vectorGet
000277e6 g     O .rwdata	00000002 OSQEn
0000ce24 g     F .text	0000007c _setlocale_r
00004c60 g     F .text	00000068 __sfmoreglue
00002574 g     F .text	000000d4 createKing
00012d20 g     F .text	00000018 ungetc
0001ad08 g     F .text	000000cc __malloc_unlock
00024144 g     F .text	00000020 OSTaskStatHook
000293ec g     O .bss	00000001 OSLockNesting
0000e9b0 g     F .text	000015f8 _strtod_r
00027824 g     O .rwdata	00000002 OSDataSize
000293ed g     O .bss	00000001 OSRunning
0000d340 g     F .text	0000015c memmove
00024184 g     F .text	00000020 OSInitHookBegin
0002781c g     O .rwdata	00000002 OSTmrSize
00004de0 g     F .text	00000018 _cleanup
0000d49c g     F .text	000000a8 _Balloc
0000469c g     F .text	00000058 printLocation
000293f0 g     O .bss	00000004 OSIdleCtr
00018b94 g     F .text	000000dc .hidden __gtdf2
00023e8c g     F .text	00000024 altera_nios2_gen2_irq_init
00023f5c g       .text	00000000 OSStartTsk
0001cb24 g     F .text	000002d4 OS_TCBInit
00000000 g     F .entry	0000001c __reset
00027822 g     O .rwdata	00000002 OSTmrWheelTblSize
00000020 g       *ABS*	00000000 __flash_exceptions_start
000277c2 g     O .rwdata	00000002 OSEventSize
000293f4 g     O .bss	00000001 OSPrioHighRdy
000147a4 g     F .text	0000005c _fstat_r
00024100 g     F .text	00000024 OSTaskDelHook
000293bc g     O .bss	00000004 errno
0000a400 g     F .text	0000001c __svfscanf
00006538 g     F .text	00000008 __seofread
00023f3c g       .text	00000000 OSStartHighRdy
00020ff0 g     F .text	000001e4 OSTaskCreateExt
00015680 g     F .text	0000123c ___svfiprintf_internal_r
0001de0c g     F .text	00000060 OSFlagPendGetFlagsRdy
00027802 g     O .rwdata	00000002 OSTaskStatStkSize
0001cf88 g     F .text	00000308 OSFlagAccept
0001f35c g     F .text	000000b8 OSQFlush
0001edf0 g     F .text	00000140 OSQAccept
000293d4 g     O .bss	00000004 alt_argv
0002f770 g       *ABS*	00000000 _gp
00020e44 g     F .text	000001ac OSTaskCreate
00020954 g     F .text	000004f0 OSTaskChangePrio
000293e8 g     O .bss	00000004 alt_heapsem
0001cdf8 g     F .text	00000190 OSDebugInit
000211d4 g     F .text	00000344 OSTaskDel
00004a8c g     F .text	0000001c fgets
00026584 g     O .rwdata	00000180 alt_fd_list
0002b4d8 g     O .bss	00000370 OSFlagTbl
00005bc4 g     F .text	00000008 _putchar_r
000010a0 g     F .text	000002d0 generateCaptureList
0001c0c0 g     F .text	000000b8 OS_EventTaskRemove
00024208 g     F .text	00000090 alt_find_dev
000058e8 g     F .text	00000148 memcpy
00015130 g     F .text	0000025c __hexnan
000277ec g     O .rwdata	00000002 OSRdyTblSize
00029474 g     O .bss	00000064 board
00004ab0 g     F .text	0000000c _cleanup_r
00019df8 g     F .text	000000dc .hidden __floatsidf
00023a18 g     F .text	0000007c alt_io_redirect
00018c70 g     F .text	000000f4 .hidden __ltdf2
0002493c g       *ABS*	00000000 __DTOR_END__
00005ca4 g     F .text	00000014 puts
0002450c g     F .text	0000009c alt_exception_cause_generated_bad_addr
0001add4 g     F .text	00000120 OSEventNameGet
000277d0 g     O .rwdata	00000002 OSFlagMax
0000d1c8 g     F .text	000000d8 mbrtowc
0000e660 g     F .text	00000074 __fpclassifyd
0000a41c g     F .text	0000004c _vfscanf_r
0000e27c g     F .text	000000a4 __ratio
0001b6e8 g     F .text	000000f8 OSIntExit
000142a8 g     F .text	0000001c __vfiprintf_internal
0002780a g     O .rwdata	00000002 OSTCBSize
000293f5 g     O .bss	00000001 OSPrioCur
00022e14 g     F .text	000002bc altera_avalon_jtag_uart_read
00004fd0 g     F .text	00000014 malloc
00005b58 g     F .text	00000030 _printf_r
000176c0 g     F .text	00000064 .hidden __udivsi3
0001a3e8 g     F .text	000000a4 isatty
000277f0 g     O .rwdata	00000002 OSStkWidth
0000cdf4 g     F .text	00000030 iswspace
000257e0 g     O .rodata	000000c8 __mprec_tens
000277e4 g     O .rwdata	00000002 OSPtrSize
0000cea0 g     F .text	0000000c __locale_charset
000178b0 g     F .text	000000c8 .hidden __lesf2
000277c4 g     O .rwdata	00000002 OSEventTblSize
00016aa4 g     F .text	00000074 .hidden __fixunsdfsi
00023eb0 g       .text	00000000 OSCtxSw
0002447c g     F .text	00000090 alt_icache_flush
000293b8 g     O .bss	00000004 __malloc_top_pad
000293f8 g     O .bss	00000004 OSTCBList
000293cc g     O .bss	00000004 alt_fd_list_lock
000105ec g     F .text	0000001c strtoul
00027784 g     O .rwdata	00000004 __mb_cur_max
0000ced0 g     F .text	0000000c _localeconv_r
00010608 g     F .text	000002d8 _strtoull_r
0000d8a8 g     F .text	0000003c __i2b
0000c938 g     F .text	000004bc __sfvwrite_r
0002b848 g     O .bss	00000c30 OSMemTbl
000293fc g     O .bss	00000001 OSTickStepState
00006424 g     F .text	00000054 _sbrk_r
000277e8 g     O .rwdata	00000002 OSQMax
0002c478 g     O .bss	00000800 OSTaskStatStk
0001e960 g     F .text	000000f0 OSMemNameGet
000277c8 g     O .rwdata	00000002 OSFlagEn
0000e600 g     F .text	00000060 _read_r
0002780e g     O .rwdata	00000002 OSTimeTickHookEn
0001f80c g     F .text	00000168 OSQPost
0001e5f8 g     F .text	000000a4 OS_FlagUnlink
000277a0 g     O .rwdata	00000004 alt_max_fd
0001c6ac g     F .text	00000068 OS_MemCopy
0001c714 g     F .text	000000d0 OS_Sched
0000bef8 g     F .text	000000f0 _fclose_r
0001e870 g     F .text	000000f0 OSMemGet
00021800 g     F .text	000001b4 OSTaskNameSet
0000c274 g     F .text	00000030 fflush
000293b4 g     O .bss	00000004 __malloc_max_sbrked_mem
00029400 g     O .bss	00000004 OSCtxSwCtr
00024164 g     F .text	00000020 OSTimeTickHook
000277d2 g     O .rwdata	00000002 OSFlagNameSize
00004800 g     F .text	00000148 printVector
0001c178 g     F .text	00000100 OS_EventTaskRemoveMulti
00017978 g     F .text	000008ac .hidden __adddf3
0001777c g     F .text	00000078 .hidden __nesf2
0001bf70 g     F .text	00000150 OS_EventTaskWaitMulti
0000e024 g     F .text	0000010c __b2d
000277ea g     O .rwdata	00000002 OSQSize
00017090 g     F .text	00000538 .hidden __umoddi3
0001a5b4 g     F .text	000000d4 lseek
000202bc g     F .text	0000020c OSSemPend
00027770 g     O .rwdata	00000004 _global_impure_ptr
00005cd0 g     F .text	00000564 _realloc_r
000277d4 g     O .rwdata	00000002 OSLowestPrio
0002e7fc g       *ABS*	00000000 __bss_end
00023864 g     F .text	000000f0 alt_iic_isr_register
000241e4 g     F .text	00000024 OSTCBInitHook
0002781a g     O .rwdata	00000002 OSTmrCfgTicksPerSec
00023d84 g     F .text	00000108 alt_tick
00025948 g     O .rodata	00000100 __hexdig
00016b18 g     F .text	00000578 .hidden __udivdi3
00014700 g     F .text	00000024 _fputwc_r
000277bc g     O .rwdata	00000002 OSEventEn
000257b8 g     O .rodata	00000028 __mprec_bigtens
0000d68c g     F .text	00000104 __s2b
00027816 g     O .rwdata	00000002 OSTmrCfgNameSize
00019ed4 g     F .text	000000a8 .hidden __floatunsidf
0000dd64 g     F .text	00000060 __mcmp
00004e18 g     F .text	00000018 __fp_lock_all
00023818 g     F .text	0000004c alt_ic_irq_enabled
0001e424 g     F .text	000000e0 OS_FlagInit
00023ce8 g     F .text	0000009c alt_alarm_stop
000068f0 g     F .text	0000001c strtol
000277f8 g     O .rwdata	00000002 OSTaskIdleStkSize
00000340 g     F .text	0000017c printCountPieces
0002943c g     O .bss	00000004 alt_irq_active
0001fef4 g     F .text	000000b0 OSSemAccept
0001eb64 g     F .text	000000d8 OSMemPut
0001e69c g     F .text	000001d4 OSMemCreate
00029404 g     O .bss	00000004 OSIdleCtrMax
000000fc g     F .exceptions	000000d4 alt_irq_handler
0002655c g     O .rwdata	00000028 alt_dev_null
0002780c g     O .rwdata	00000002 OSTicksPerSec
00023eb0 g       .text	00000000 OSIntCtxSw
000234c0 g     F .text	00000020 alt_dcache_flush_all
0000d790 g     F .text	00000068 __hi0bits
00019d78 g     F .text	00000080 .hidden __fixdfsi
0000ffa8 g     F .text	00000018 strtod
00029408 g     O .bss	00000004 OSTCBFreeList
00027834 g       *ABS*	00000000 __ram_rwdata_end
000204c8 g     F .text	0000016c OSSemPendAbort
00027798 g     O .rwdata	00000008 alt_dev_list
0001a9cc g     F .text	000000f8 write
0000e498 g     F .text	000000a0 _putc_r
00027810 g     O .rwdata	00000002 OSVersionNbr
000177f4 g     F .text	000000bc .hidden __gtsf2
00025cb8 g       *ABS*	00000000 __ram_rodata_end
0001a2fc g     F .text	000000b0 fstat
00000000 g       *ABS*	00000000 __alt_mem_SDRAM
00018c70 g     F .text	000000f4 .hidden __ledf2
000046f4 g     F .text	0000010c printCapture
0000452c g     F .text	00000134 vectorDelete
000277b8 g     O .rwdata	00000004 OSEndiannessTest
0000dadc g     F .text	00000140 __pow5mult
00012e4c g     F .text	0000145c ___vfiprintf_internal_r
000293c8 g     O .bss	00000004 __nlocale_changed
00017724 g     F .text	00000058 .hidden __umodsi3
000064b4 g     F .text	00000030 _scanf_r
000277ca g     O .rwdata	00000002 OSFlagGrpSize
0002e7fc g       *ABS*	00000000 end
00004228 g     F .text	000000b8 createEmptyBoard
000227cc g     F .text	00000148 altera_avalon_jtag_uart_init
0001c97c g     F .text	000000dc OS_TaskStat
00001000 g     F .text	000000a0 copyMoveList
000001d0 g     F .exceptions	00000074 alt_instruction_exception_entry
0002493c g       *ABS*	00000000 __CTOR_LIST__
04000000 g       *ABS*	00000000 __alt_stack_pointer
000022b4 g     F .text	000002c0 move
0001a124 g     F .text	00000064 .hidden __clzsi2
000230d0 g     F .text	000002c4 altera_avalon_jtag_uart_write
00004e08 g     F .text	00000004 __sfp_lock_acquire
00005804 g     F .text	000000e4 memchr
0001c658 g     F .text	00000054 OS_MemClr
0000690c g     F .text	000021f8 ___vfprintf_internal_r
00023f80 g     F .text	0000015c OSTaskStkInit
0000e7ac g     F .text	00000058 _sprintf_r
0000c628 g     F .text	00000310 _free_r
0000ceac g     F .text	00000010 __locale_mb_cur_max
0001bcc8 g     F .text	00000198 OS_EventTaskRdy
00024788 g     F .text	00000180 __call_exitprocs
0002940c g     O .bss	00000001 OSCPUUsage
000293c4 g     O .bss	00000004 __mlocale_changed
00027778 g     O .rwdata	00000004 __malloc_sbrk_base
00000244 g     F .text	0000003c _start
00029440 g     O .bss	00000004 _alt_tick_rate
0001f414 g     F .text	0000028c OSQPend
000100c0 g     F .text	000002e0 _strtoll_r
00001370 g     F .text	00000308 manCapture
000220c0 g     F .text	00000104 OSTimeDly
0000dc1c g     F .text	00000148 __lshift
00029444 g     O .bss	00000004 _alt_nticks
00003ff8 g     F .text	00000118 play
0001a780 g     F .text	000000fc read
00022620 g     F .text	00000048 alt_sys_init
000154b0 g     F .text	000001d0 __ssprint_r
00024670 g     F .text	00000118 __register_exitproc
0002940d g     O .bss	00000001 OSTaskCtr
000153e0 g     F .text	000000d0 strncmp
000221c4 g     F .text	00000160 OSTimeDlyHMSM
0000d8e4 g     F .text	000001f8 __multiply
00022cbc g     F .text	00000068 altera_avalon_jtag_uart_close
00025cb8 g       *ABS*	00000000 __ram_rwdata_start
0002493c g       *ABS*	00000000 __ram_rodata_start
0002944c g     O .bss	00000028 __malloc_current_mallinfo
000277be g     O .rwdata	00000002 OSEventMax
0001777c g     F .text	00000078 .hidden __eqsf2
0000e130 g     F .text	0000014c __d2b
00020634 g     F .text	00000110 OSSemPost
0001b86c g     F .text	000000dc OSSchedUnlock
00005cb8 g     F .text	00000018 realloc
00022668 g     F .text	00000060 altera_avalon_jtag_uart_read_fd
000103a0 g     F .text	0000024c _strtoul_r
000243a0 g     F .text	000000dc alt_get_fd
00029410 g     O .bss	00000004 OSMemFreeList
0001b9b8 g     F .text	000000b0 OSStatInit
0001e200 g     F .text	000000c4 OSFlagQuery
00001678 g     F .text	000001b0 manMove
000277f4 g     O .rwdata	00000002 OSTaskCreateExtEn
0000a61c g     F .text	00000054 _close_r
000245f4 g     F .text	0000007c memcmp
0001bca8 g     F .text	00000020 OS_Dummy
00022728 g     F .text	00000050 altera_avalon_jtag_uart_close_fd
0002e7fc g       *ABS*	00000000 __alt_stack_base
00022778 g     F .text	00000054 altera_avalon_jtag_uart_ioctl_fd
0000a4c8 g     F .text	00000154 __swsetup_r
0002cc78 g     O .bss	000001e0 OSQTbl
00018224 g     F .text	000008e8 .hidden __divdf3
00004cc8 g     F .text	00000118 __sfp
0000e394 g     F .text	00000078 __copybits
00004354 g     F .text	00000120 vectorAdd
000260dc g     O .rwdata	00000408 __malloc_av_
00004e14 g     F .text	00000004 __sinit_lock_release
00029414 g     O .bss	00000004 OSTCBHighRdy
00018d64 g     F .text	00000718 .hidden __muldf3
000064e4 g     F .text	00000054 __sread
0000c4d0 g     F .text	00000034 fread
00029418 g     O .bss	00000004 OSQFreeList
00024298 g     F .text	00000108 alt_find_file
0002351c g     F .text	000000a4 alt_dev_llist_insert
0001abe8 g     F .text	00000120 __malloc_lock
0001a8e0 g     F .text	000000b0 sbrk
000108e0 g     F .text	000021d8 ___svfprintf_internal_r
0001aef4 g     F .text	00000140 OSEventNameSet
0000c218 g     F .text	0000005c _fflush_r
000144d8 g     F .text	000000c4 _calloc_r
0002941c g     O .bss	00000001 OSRdyGrp
000293b0 g       *ABS*	00000000 __bss_start
00005a30 g     F .text	00000128 memset
000002d4 g     F .text	0000006c main
000293d8 g     O .bss	00000004 alt_envp
000293b0 g     O .bss	00000004 __malloc_max_total_mem
000226c8 g     F .text	00000060 altera_avalon_jtag_uart_write_fd
000144c0 g     F .text	00000018 __swbuf
00025b84 g     O .rodata	00000100 OSUnMapTbl
000178b0 g     F .text	000000c8 .hidden __ltsf2
0000c2a4 g     F .text	0000022c _fread_r
000277ee g     O .rwdata	00000002 OSSemEn
0001de6c g     F .text	00000394 OSFlagPost
00006618 g     F .text	00000008 __sclose
04000000 g       *ABS*	00000000 __alt_heap_limit
0000bfe8 g     F .text	00000014 fclose
0001be60 g     F .text	00000110 OS_EventTaskWait
0000398c g     F .text	000001c8 algorithm
00019f7c g     F .text	000001a8 .hidden __truncdfsf2
000066b8 g     F .text	00000238 _strtol_r
0001ca58 g     F .text	000000cc OS_TaskStatStkChk
00021518 g     F .text	00000150 OSTaskDelReq
0000a870 g     F .text	00001688 _dtoa_r
00004ff8 g     F .text	0000080c _malloc_r
00016a18 g     F .text	00000030 __ascii_wctomb
000277a4 g     O .rwdata	00000004 alt_errno
0001b948 g     F .text	00000070 OSStart
00012ab8 g     F .text	000000d4 __submore
0001ab88 g     F .text	00000060 __env_unlock
00004e48 g     F .text	000000c4 _fwalk
000219b4 g     F .text	000001d4 OSTaskResume
0001ec3c g     F .text	000000e8 OSMemQuery
00027800 g     O .rwdata	00000002 OSTaskStatEn
00004660 g     F .text	0000003c vectorFree
00004948 g     F .text	00000144 _fgets_r
0000d2e4 g     F .text	0000005c _mbtowc_r
000277da g     O .rwdata	00000002 OSMemMax
0001f974 g     F .text	00000170 OSQPostFront
0000e538 g     F .text	000000c8 putc
000175c8 g     F .text	00000084 .hidden __divsi3
0002941d g     O .bss	00000003 OSRdyTbl
000277b4 g     O .rwdata	00000002 OSDebugEn
0000c504 g     F .text	00000124 _malloc_trim_r
0002493c g       *ABS*	00000000 __CTOR_END__
000277cc g     O .rwdata	00000002 OSFlagNodeSize
00027814 g     O .rwdata	00000002 OSTmrCfgMax
0000e870 g     F .text	000000dc strcmp
0001ef30 g     F .text	000001ac OSQCreate
00021668 g     F .text	00000198 OSTaskNameGet
0002493c g       *ABS*	00000000 __flash_rodata_start
0001fae4 g     F .text	0000020c OSQPostOpt
0001ba68 g     F .text	00000220 OSTimeTick
000277fc g     O .rwdata	00000002 OSTaskMax
0002493c g       *ABS*	00000000 __DTOR_LIST__
0001ffa4 g     F .text	000000d8 OSSemCreate
00027820 g     O .rwdata	00000002 OSTmrWheelSize
000004bc g     F .text	00000204 printBoard
00018b0c g     F .text	00000088 .hidden __nedf2
000277f6 g     O .rwdata	00000002 OSTaskDelEn
00020744 g     F .text	00000110 OSSemQuery
0001f0dc g     F .text	00000280 OSQDel
0001f6a0 g     F .text	0000016c OSQPendAbort
000225e8 g     F .text	00000038 alt_irq_init
0001a87c g     F .text	00000064 alt_release_fd
0000e804 g     F .text	0000006c sprintf
00025a68 g     O .rodata	00000100 .hidden __clz_tab
000293c0 g     O .bss	00000004 _PathLocale
0000ffc0 g     F .text	00000100 strtof
000245a8 g     F .text	00000014 atexit
000177f4 g     F .text	000000bc .hidden __gesf2
0000a468 g     F .text	00000060 _write_r
0001b7e0 g     F .text	0000008c OSSchedLock
0000cedc g     F .text	00000018 setlocale
00006478 g     F .text	0000003c scanf
00000280 g     F .text	00000054 taskStartGame
0001d290 g     F .text	00000108 OSFlagCreate
0000e7a4 g     F .text	00000008 nanf
00027774 g     O .rwdata	00000004 _impure_ptr
000293d0 g     O .bss	00000004 alt_argc
0000bffc g     F .text	0000021c __sflush_r
0000d11c g     F .text	000000ac _mbrtowc_r
00023620 g     F .text	00000060 _do_dtors
0000cec8 g     F .text	00000008 __locale_cjk_lang
000277c6 g     O .rwdata	00000002 OSEventMultiEn
00006250 g     F .text	000001d4 __srefill_r
0001d398 g     F .text	00000248 OSFlagDel
00029420 g     O .bss	00000004 OSEventFreeList
00000020 g       .exceptions	00000000 alt_irq_entry
0000d2a0 g     F .text	00000044 __ascii_mbtowc
0000432c g     F .text	00000028 vectorCount
0000dfc0 g     F .text	00000064 __ulp
0001d854 g     F .text	000005b8 OSFlagPend
00027812 g     O .rwdata	00000002 OSTmrEn
00004e30 g     F .text	00000018 __fp_unlock_all
00027790 g     O .rwdata	00000008 alt_fs_list
0001c858 g     F .text	00000074 OS_StrCopy
00000b74 g     F .text	000000bc deleteCaptureVector
00004474 g     F .text	00000060 vectorSet
00001bb0 g     F .text	00000704 capture
000277dc g     O .rwdata	00000002 OSMemNameSize
000241a4 g     F .text	00000020 OSInitHookEnd
00000020 g       *ABS*	00000000 __ram_exceptions_start
00027808 g     O .rwdata	00000002 OSTCBPrioTblMax
0000cef4 g     F .text	0000000c localeconv
00001828 g     F .text	00000388 checkIfCanMove
00027804 g     O .rwdata	00000002 OSTaskStatStkChkEn
000236b4 g     F .text	00000050 alt_ic_isr_register
000277d8 g     O .rwdata	00000002 OSMemEn
00004110 g     F .text	00000118 createBoard
000277e2 g     O .rwdata	00000002 OSMutexEn
00027834 g       *ABS*	00000000 _edata
0002e7fc g       *ABS*	00000000 _end
00029424 g     O .bss	00000001 OSIntNesting
0001459c g     F .text	00000164 __fputwc
00000244 g       *ABS*	00000000 __ram_exceptions_end
0000a398 g     F .text	00000068 vfscanf
00022d24 g     F .text	000000f0 altera_avalon_jtag_uart_ioctl
00022324 g     F .text	000001d4 OSTimeDlyResume
0001d708 g     F .text	0000014c OSFlagNameSet
00021b88 g     F .text	000001c0 OSTaskStkChk
0002378c g     F .text	0000008c alt_ic_irq_disable
000042e0 g     F .text	0000004c vectorInit
000277de g     O .rwdata	00000002 OSMemSize
00006540 g     F .text	0000007c __swrite
0002777c g     O .rwdata	00000004 __malloc_trim_threshold
0000cebc g     F .text	0000000c __locale_msgcharset
00029428 g     O .bss	00000004 OSTCBCur
000245bc g     F .text	00000038 exit
000277e0 g     O .rwdata	00000002 OSMemTblSize
00004f0c g     F .text	000000c4 _fwalk_reent
0000ddc4 g     F .text	000001fc __mdiff
0001764c g     F .text	00000074 .hidden __modsi3
00027780 g     O .rwdata	00000004 __ctype_ptr__
04000000 g       *ABS*	00000000 __alt_data_end
00000020 g     F .exceptions	00000000 alt_exception
00004e0c g     F .text	00000004 __sfp_lock_release
0001b644 g     F .text	00000058 OSInit
00021f2c g     F .text	00000124 OSTaskQuery
0001fe4c g     F .text	000000a8 OS_QInit
0000e6d4 g     F .text	000000d0 __sccl
0001c8cc g     F .text	00000054 OS_StrLen
0001ea50 g     F .text	00000114 OSMemNameSet
000254e4 g     O .rodata	00000101 _ctype_
000277fa g     O .rwdata	00000002 OSTaskProfileEn
0002942c g     O .bss	00000004 OSTime
00027788 g     O .rwdata	00000004 __mbtowc
0002ce58 g     O .bss	00000800 OSTaskIdleStk
00024908 g     F .text	00000034 _exit
00023394 g     F .text	0000012c alt_alarm_start
0001d5e0 g     F .text	00000128 OSFlagNameGet
000224f8 g     F .text	0000005c OSTimeGet
000294d8 g     O .bss	00002000 taskStartGame_stk
0000cf60 g     F .text	000001bc __smakebuf_r
00006620 g     F .text	00000098 strlen
00024124 g     F .text	00000020 OSTaskSwHook
00023b94 g     F .text	00000154 open
0002d658 g     O .bss	00000b40 OSEventTbl
00018b94 g     F .text	000000dc .hidden __gedf2
0002e198 g     O .bss	00000510 OSTCBTbl
00014900 g     F .text	00000830 __gethex
00020854 g     F .text	00000100 OSSemSet
0002778c g     O .rwdata	00000004 __wctomb
00012e34 g     F .text	00000018 __sprint_r
00023680 g     F .text	00000034 alt_icache_flush_all
00027828 g     O .rwdata	00000004 alt_priority_mask
00002ea8 g     F .text	00000ae4 minimaxAlgorithm
0002007c g     F .text	00000240 OSSemDel
00029430 g     O .bss	00000004 OSFlagFreeList
00023704 g     F .text	00000088 alt_ic_irq_enable
000277c0 g     O .rwdata	00000002 OSEventNameSize
00008b04 g     F .text	0000001c __vfprintf_internal
00029434 g     O .bss	00000001 OSStatRdy
0002e6a8 g     O .bss	00000054 OSTCBPrioTbl
00016a48 g     F .text	0000005c _wctomb_r
0001aac4 g     F .text	000000c4 __env_lock
00027806 g     O .rwdata	00000002 OSTaskSwHookEn
0001947c g     F .text	000008fc .hidden __subdf3
00002648 g     F .text	00000860 minimaxAlgorithmRecursive
00000e7c g     F .text	000000e0 addToMoveList
0000d7f8 g     F .text	000000b0 __lo0bits
00008bdc g     F .text	000017bc __svfscanf_r
000006c0 g     F .text	000004b4 kingCapture
0002782c g     O .rwdata	00000008 alt_alarm_list
00012b8c g     F .text	00000194 _ungetc_r
000277ce g     O .rwdata	00000002 OSFlagWidth
000235c0 g     F .text	00000060 _do_ctors
00016958 g     F .text	000000c0 wcrtomb
00000f5c g     F .text	000000a4 copyBoard
0001a1c4 g     F .text	000000d0 close
000293e0 g     O .bss	00000004 alt_envsem
00029438 g     O .bss	00000004 OSIdleCtrRun
0001bc88 g     F .text	00000020 OSVersion
00027818 g     O .rwdata	00000002 OSTmrCfgWheelSize
0001a4f4 g     F .text	00000084 alt_load
00022050 g     F .text	00000070 OS_TaskStkClr
000277f2 g     O .rwdata	00000002 OSTaskCreateEn
0001c278 g     F .text	00000068 OS_EventWaitListInit
00014724 g     F .text	00000080 fputwc
000241c4 g     F .text	00000020 OSTaskIdleHook
00004fe4 g     F .text	00000014 free
00004e10 g     F .text	00000004 __sinit_lock_acquire
0000d56c g     F .text	00000120 __multadd
00021d48 g     F .text	000001e4 OSTaskSuspend
0000d544 g     F .text	00000028 _Bfree
0001c920 g     F .text	0000005c OS_TaskIdle
0002781e g     O .rwdata	00000002 OSTmrTblSize
0001fcf0 g     F .text	0000015c OSQQuery



Disassembly of section .entry:

00000000 <__reset>:
#if NIOS2_ICACHE_SIZE > 0 && defined(ALT_ALLOW_CODE_AT_RESET) && (!defined(ALT_SIM_OPTIMIZE) || defined(NIOS2_ECC_PRESENT))
    /* Assume the instruction cache size is always a power of two. */
#if NIOS2_ICACHE_SIZE > 0x8000
    movhi r2, %hi(NIOS2_ICACHE_SIZE)
#else
    movui r2, NIOS2_ICACHE_SIZE
   0:	00840014 	movui	r2,4096
#endif

0:
    initi r2
   4:	1001483a 	initi	r2
    addi r2, r2, -NIOS2_ICACHE_LINE_SIZE
   8:	10bff804 	addi	r2,r2,-32
    bgt r2, zero, 0b
   c:	00bffd16 	blt	zero,r2,4 <__alt_data_end+0xfc000004>
 * Jump to the _start entry point in the .text section if reset code
 * is allowed or if optimizing for RTL simulation.
 */
#if defined(ALT_ALLOW_CODE_AT_RESET) || defined(ALT_SIM_OPTIMIZE)
    /* Jump to the _start entry point in the .text section. */
    movhi r1, %hi(_start)
  10:	00400034 	movhi	at,0
    ori r1, r1, %lo(_start)
  14:	08409114 	ori	at,at,580
    jmp r1
  18:	0800683a 	jmp	at
  1c:	00000000 	call	0 <__reset>

Disassembly of section .exceptions:

00000020 <alt_exception>:

#else /* ALT_EXCEPTION_STACK disabled */
        /* 
         * Reserve space on normal stack for registers about to be pushed.
         */
        addi  sp, sp, -76
  20:	deffed04 	addi	sp,sp,-76
         * documentation for details).
         *
         * Leave a gap in the stack frame at 4(sp) for the muldiv handler to
         * store zero into.
         */
        stw   ra,  0(sp)
  24:	dfc00015 	stw	ra,0(sp)
        stw   r1,   8(sp)
  28:	d8400215 	stw	at,8(sp)
        stw   r2,  12(sp)
  2c:	d8800315 	stw	r2,12(sp)
        stw   r3,  16(sp)
  30:	d8c00415 	stw	r3,16(sp)
        stw   r4,  20(sp)
  34:	d9000515 	stw	r4,20(sp)
        stw   r5,  24(sp)
  38:	d9400615 	stw	r5,24(sp)
        stw   r6,  28(sp)
  3c:	d9800715 	stw	r6,28(sp)
        stw   r7,  32(sp)
  40:	d9c00815 	stw	r7,32(sp)
        rdctl r5, estatus   /* Read early to avoid usage stall */
  44:	000b307a 	rdctl	r5,estatus
        stw   r8,  36(sp)
  48:	da000915 	stw	r8,36(sp)
        stw   r9,  40(sp)
  4c:	da400a15 	stw	r9,40(sp)
        stw   r10, 44(sp)
  50:	da800b15 	stw	r10,44(sp)
        stw   r11, 48(sp)
  54:	dac00c15 	stw	r11,48(sp)
        stw   r12, 52(sp)
  58:	db000d15 	stw	r12,52(sp)
        stw   r13, 56(sp)
  5c:	db400e15 	stw	r13,56(sp)
        stw   r14, 60(sp)
  60:	db800f15 	stw	r14,60(sp)
        stw   r15, 64(sp)
  64:	dbc01015 	stw	r15,64(sp)
        /*
         * ea-4 contains the address of the instruction being executed
         * when the exception occured. For interrupt exceptions, we will
         * will be re-issue the isntruction. Store it in 72(sp)
         */
        stw   r5,  68(sp)  /* estatus */
  68:	d9401115 	stw	r5,68(sp)
        addi  r15, ea, -4  /* instruction that caused exception */
  6c:	ebffff04 	addi	r15,ea,-4
        stw   r15,  72(sp)
  70:	dbc01215 	stw	r15,72(sp)
#else
        /*
         * Test to see if the exception was a software exception or caused 
         * by an external interrupt, and vector accordingly.
         */
        rdctl r4, ipending
  74:	0009313a 	rdctl	r4,ipending
        andi  r2, r5, 1
  78:	2880004c 	andi	r2,r5,1
        beq   r2, zero, .Lnot_irq
  7c:	10000326 	beq	r2,zero,8c <OSCtxSw_SWITCH_PC+0x4c>
        beq   r4, zero, .Lnot_irq
  80:	20000226 	beq	r4,zero,8c <OSCtxSw_SWITCH_PC+0x4c>
        /*
         * Now that all necessary registers have been preserved, call 
         * alt_irq_handler() to process the interrupts.
         */

        call alt_irq_handler
  84:	00000fc0 	call	fc <alt_irq_handler>

        .section .exceptions.irqreturn, "xa"

        br    .Lexception_exit
  88:	00000706 	br	a8 <OSCtxSw_SWITCH_PC+0x68>
         * upon completion, so we write ea (address of instruction *after*
         * the one where the exception occured) into 72(sp). The actual
         * instruction that caused the exception is written in r2, which these
         * handlers will utilize.
         */
        stw ea, 72(sp) /* EA is PC+4 so will skip over instruction causing exception */
  8c:	df401215 	stw	ea,72(sp)
.Lunknown_16bit:
        addi.n r4, r4, 2 /* Need PC+2 to skip over instruction causing exception */
        stw r4, 72(sp)

#else /* CDX is not Enabled and all instructions are 32bits */
        ldw r2, -4(ea) /* Instruction value that caused exception */
  90:	e8bfff17 	ldw	r2,-4(ea)
         * debugger is present) or go into an infinite loop since the
         * handling behavior is undefined; in that case we will not return here.
         */

        /* Load exception-causing address as first argument (r4) */
        addi   r4, ea, -4
  94:	e93fff04 	addi	r4,ea,-4

        /* Call the instruction-exception entry */
        call   alt_instruction_exception_entry
  98:	00001d00 	call	1d0 <alt_instruction_exception_entry>
         * instruction
         *
         * Return code was 0: Skip. The instruction after the exception is
         * already stored in 72(sp).
         */
        bne   r2, r0, .Lexception_exit
  9c:	1000021e 	bne	r2,zero,a8 <OSCtxSw_SWITCH_PC+0x68>

        /*
         * Otherwise, modify 72(sp) to re-issue the instruction that caused the
         * exception.
         */
        addi  r15, ea, -4  /* instruction that caused exception */
  a0:	ebffff04 	addi	r15,ea,-4
        stw   r15,  72(sp)
  a4:	dbc01215 	stw	r15,72(sp)
        /* 
         * Restore the saved registers, so that all general purpose registers 
         * have been restored to their state at the time the interrupt occured.
         */

        ldw   r5,  68(sp)
  a8:	d9401117 	ldw	r5,68(sp)
        ldw   ea,  72(sp)  /* This becomes the PC once eret is executed */
  ac:	df401217 	ldw	ea,72(sp)
        ldw   ra,   0(sp)
  b0:	dfc00017 	ldw	ra,0(sp)

        wrctl estatus, r5
  b4:	2801707a 	wrctl	estatus,r5

        ldw   r1,   8(sp)
  b8:	d8400217 	ldw	at,8(sp)
        ldw   r2,  12(sp)
  bc:	d8800317 	ldw	r2,12(sp)
        ldw   r3,  16(sp)
  c0:	d8c00417 	ldw	r3,16(sp)
        ldw   r4,  20(sp)
  c4:	d9000517 	ldw	r4,20(sp)
        ldw   r5,  24(sp)
  c8:	d9400617 	ldw	r5,24(sp)
        ldw   r6,  28(sp)
  cc:	d9800717 	ldw	r6,28(sp)
        ldw   r7,  32(sp)
  d0:	d9c00817 	ldw	r7,32(sp)

#if defined(ALT_EXCEPTION_STACK) && defined(ALT_STACK_CHECK)
        ldw   et, %gprel(alt_exception_old_stack_limit)(gp)
#endif

        ldw   r8,  36(sp)
  d4:	da000917 	ldw	r8,36(sp)
        ldw   r9,  40(sp)
  d8:	da400a17 	ldw	r9,40(sp)
        ldw   r10, 44(sp)
  dc:	da800b17 	ldw	r10,44(sp)
        ldw   r11, 48(sp)
  e0:	dac00c17 	ldw	r11,48(sp)
        ldw   r12, 52(sp)
  e4:	db000d17 	ldw	r12,52(sp)
        ldw   r13, 56(sp)
  e8:	db400e17 	ldw	r13,56(sp)
        ldw   r14, 60(sp)
  ec:	db800f17 	ldw	r14,60(sp)
        ldw   r15, 64(sp)
  f0:	dbc01017 	ldw	r15,64(sp)
        stw   et, %gprel(alt_stack_limit_value)(gp)
        stw   zero, %gprel(alt_exception_old_stack_limit)(gp)
#endif /* ALT_STACK_CHECK */
        ldw   sp,  76(sp)
#else /* ALT_EXCEPTION_STACK disabled */
        addi  sp, sp, 76
  f4:	dec01304 	addi	sp,sp,76

        /*
         * Return to the interrupted instruction.
         */

        eret
  f8:	ef80083a 	eret

000000fc <alt_irq_handler>:
 * instruction is present if the macro ALT_CI_INTERRUPT_VECTOR defined.
 */

void alt_irq_handler (void) __attribute__ ((section (".exceptions")));
void alt_irq_handler (void)
{
  fc:	defff904 	addi	sp,sp,-28
 100:	dfc00615 	stw	ra,24(sp)
 104:	df000515 	stw	fp,20(sp)
 108:	df000504 	addi	fp,sp,20
  
  /*
   * Notify the operating system that we are at interrupt level.
   */ 
  
  ALT_OS_INT_ENTER();
 10c:	001b69c0 	call	1b69c <OSIntEnter>
#ifndef NIOS2_EIC_PRESENT
static ALT_INLINE alt_u32 ALT_ALWAYS_INLINE alt_irq_pending (void)
{
  alt_u32 active;

  NIOS2_READ_IPENDING (active);
 110:	0005313a 	rdctl	r2,ipending
 114:	e0bffe15 	stw	r2,-8(fp)

  return active;
 118:	e0bffe17 	ldw	r2,-8(fp)
   * Consider the case where the high priority interupt is asserted during
   * the interrupt entry sequence for a lower priority interrupt to see why
   * this is the case.
   */

  active = alt_irq_pending ();
 11c:	e0bffb15 	stw	r2,-20(fp)

  do
  {
    i = 0;
 120:	e03ffd15 	stw	zero,-12(fp)
    mask = 1;
 124:	00800044 	movi	r2,1
 128:	e0bffc15 	stw	r2,-16(fp)
     * called to clear the interrupt condition.
     */

    do
    {
      if (active & mask)
 12c:	e0fffb17 	ldw	r3,-20(fp)
 130:	e0bffc17 	ldw	r2,-16(fp)
 134:	1884703a 	and	r2,r3,r2
 138:	10001426 	beq	r2,zero,18c <alt_irq_handler+0x90>
      { 
#ifdef ALT_ENHANCED_INTERRUPT_API_PRESENT
        alt_irq[i].handler(alt_irq[i].context); 
 13c:	008000f4 	movhi	r2,3
 140:	10b9bf04 	addi	r2,r2,-6404
 144:	e0fffd17 	ldw	r3,-12(fp)
 148:	180690fa 	slli	r3,r3,3
 14c:	10c5883a 	add	r2,r2,r3
 150:	10c00017 	ldw	r3,0(r2)
 154:	008000f4 	movhi	r2,3
 158:	10b9bf04 	addi	r2,r2,-6404
 15c:	e13ffd17 	ldw	r4,-12(fp)
 160:	200890fa 	slli	r4,r4,3
 164:	1105883a 	add	r2,r2,r4
 168:	10800104 	addi	r2,r2,4
 16c:	10800017 	ldw	r2,0(r2)
 170:	1009883a 	mov	r4,r2
 174:	183ee83a 	callr	r3
#else
        alt_irq[i].handler(alt_irq[i].context, i); 
#endif
        break;
 178:	0001883a 	nop
#ifndef NIOS2_EIC_PRESENT
static ALT_INLINE alt_u32 ALT_ALWAYS_INLINE alt_irq_pending (void)
{
  alt_u32 active;

  NIOS2_READ_IPENDING (active);
 17c:	0005313a 	rdctl	r2,ipending
 180:	e0bfff15 	stw	r2,-4(fp)

  return active;
 184:	e0bfff17 	ldw	r2,-4(fp)
 188:	00000706 	br	1a8 <alt_irq_handler+0xac>
      }
      mask <<= 1;
 18c:	e0bffc17 	ldw	r2,-16(fp)
 190:	1085883a 	add	r2,r2,r2
 194:	e0bffc15 	stw	r2,-16(fp)
      i++;
 198:	e0bffd17 	ldw	r2,-12(fp)
 19c:	10800044 	addi	r2,r2,1
 1a0:	e0bffd15 	stw	r2,-12(fp)

    } while (1);
 1a4:	003fe106 	br	12c <__alt_data_end+0xfc00012c>

    active = alt_irq_pending ();
 1a8:	e0bffb15 	stw	r2,-20(fp)
    
  } while (active);
 1ac:	e0bffb17 	ldw	r2,-20(fp)
 1b0:	103fdb1e 	bne	r2,zero,120 <__alt_data_end+0xfc000120>

  /*
   * Notify the operating system that interrupt processing is complete.
   */ 

  ALT_OS_INT_EXIT();
 1b4:	001b6e80 	call	1b6e8 <OSIntExit>
}
 1b8:	0001883a 	nop
 1bc:	e037883a 	mov	sp,fp
 1c0:	dfc00117 	ldw	ra,4(sp)
 1c4:	df000017 	ldw	fp,0(sp)
 1c8:	dec00204 	addi	sp,sp,8
 1cc:	f800283a 	ret

000001d0 <alt_instruction_exception_entry>:
 * that handler if it has been registered. Absent a handler, it will
 * break break or hang as discussed below.
 */
int 
alt_instruction_exception_entry (alt_u32 exception_pc)
{
 1d0:	defffb04 	addi	sp,sp,-20
 1d4:	dfc00415 	stw	ra,16(sp)
 1d8:	df000315 	stw	fp,12(sp)
 1dc:	df000304 	addi	fp,sp,12
 1e0:	e13fff15 	stw	r4,-4(fp)
 * NIOS2_EXCEPTION_CAUSE_NOT_PRESENT. Your handling routine should
 * check the validity of the cause argument before proceeding.
 */
#ifdef NIOS2_HAS_EXTRA_EXCEPTION_INFO
  /* Get exception cause & "badaddr" */
  NIOS2_READ_EXCEPTION(cause);
 1e4:	000531fa 	rdctl	r2,exception
 1e8:	e0bffd15 	stw	r2,-12(fp)
  cause = ( (cause & NIOS2_EXCEPTION_REG_CAUSE_MASK) >>
 1ec:	e0bffd17 	ldw	r2,-12(fp)
 1f0:	10801f0c 	andi	r2,r2,124
 1f4:	1004d0ba 	srli	r2,r2,2
 1f8:	e0bffd15 	stw	r2,-12(fp)
              NIOS2_EXCEPTION_REG_CAUSE_OFST );

  NIOS2_READ_BADADDR(badaddr);
 1fc:	0005333a 	rdctl	r2,badaddr
 200:	e0bffe15 	stw	r2,-8(fp)
#else
  cause = NIOS2_EXCEPTION_CAUSE_NOT_PRESENT;
  badaddr = 0;
#endif /* NIOS2_HAS_EXTRA_EXCEPTION_INFO */

  if(alt_instruction_exception_handler) {
 204:	d0a73617 	ldw	r2,-25384(gp)
 208:	10000726 	beq	r2,zero,228 <alt_instruction_exception_entry+0x58>
     * Call handler. Its return value indicates whether the exception-causing
     * instruction should be re-issued. The code that called us,
     * alt_eceptions_entry.S, will look at this value and adjust the ea
     * register as necessary
     */
    return alt_instruction_exception_handler(cause, exception_pc, badaddr);
 20c:	d0a73617 	ldw	r2,-25384(gp)
 210:	e0fffd17 	ldw	r3,-12(fp)
 214:	e1bffe17 	ldw	r6,-8(fp)
 218:	e17fff17 	ldw	r5,-4(fp)
 21c:	1809883a 	mov	r4,r3
 220:	103ee83a 	callr	r2
 224:	00000206 	br	230 <alt_instruction_exception_entry+0x60>
   *    (a peripheral which negates its interrupt output before its
   *    interrupt handler has been executed will cause spurious interrupts)
   */
  else {
#ifdef NIOS2_HAS_DEBUG_STUB
    NIOS2_BREAK();
 228:	003da03a 	break	0
      ;
#endif /* NIOS2_HAS_DEBUG_STUB */
  }

  /* We should not get here. Remove compiler warning. */
  return NIOS2_EXCEPTION_RETURN_REISSUE_INST;
 22c:	0005883a 	mov	r2,zero
}
 230:	e037883a 	mov	sp,fp
 234:	dfc00117 	ldw	ra,4(sp)
 238:	df000017 	ldw	fp,0(sp)
 23c:	dec00204 	addi	sp,sp,8
 240:	f800283a 	ret

Disassembly of section .text:

00000244 <_start>:

    /*
     * Now that the caches are initialized, set up the stack pointer and global pointer.
     * The values provided by the linker are assumed to be correctly aligned.
     */
    movhi sp, %hi(__alt_stack_pointer)
     244:	06c10034 	movhi	sp,1024
    ori sp, sp, %lo(__alt_stack_pointer)
     248:	dec00014 	ori	sp,sp,0
    movhi gp, %hi(_gp)
     24c:	068000b4 	movhi	gp,2
    ori gp, gp, %lo(_gp)
     250:	d6bddc14 	ori	gp,gp,63344
 */
#ifndef ALT_SIM_OPTIMIZE
    /* Log that the BSS is about to be cleared. */
    ALT_LOG_PUTS(alt_log_msg_bss)

    movhi r2, %hi(__bss_start)
     254:	008000b4 	movhi	r2,2
    ori r2, r2, %lo(__bss_start)
     258:	10a4ec14 	ori	r2,r2,37808

    movhi r3, %hi(__bss_end)
     25c:	00c000b4 	movhi	r3,2
    ori r3, r3, %lo(__bss_end)
     260:	18f9ff14 	ori	r3,r3,59388

    beq r2, r3, 1f
     264:	10c00326 	beq	r2,r3,274 <_start+0x30>

0:
    stw zero, (r2)
     268:	10000015 	stw	zero,0(r2)
    addi r2, r2, 4
     26c:	10800104 	addi	r2,r2,4
    bltu r2, r3, 0b
     270:	10fffd36 	bltu	r2,r3,268 <__alt_data_end+0xfc000268>
     * section aren't defined until alt_load() has been called).
     */
    mov   et, zero
#endif

    call alt_load
     274:	001a4f40 	call	1a4f4 <alt_load>

    /* Log that alt_main is about to be called. */
    ALT_LOG_PUTS(alt_log_msg_alt_main)

    /* Call the C entry point. It should never return. */
    call alt_main
     278:	001a6880 	call	1a688 <alt_main>

0000027c <alt_after_alt_main>:

    /* Wait in infinite loop in case alt_main does return. */
alt_after_alt_main:
    br alt_after_alt_main
     27c:	003fff06 	br	27c <__alt_data_end+0xfc00027c>

00000280 <taskStartGame>:
void play();
void createBoard();
void createEmptyBoard();

void taskStartGame(void* pdata)
{
     280:	defffc04 	addi	sp,sp,-16
     284:	dfc00315 	stw	ra,12(sp)
     288:	df000215 	stw	fp,8(sp)
     28c:	df000204 	addi	fp,sp,8
     290:	e13fff15 	stw	r4,-4(fp)
	createBoard();
     294:	00041100 	call	4110 <createBoard>
	printBoard((unsigned char **)board,100,100,100,100);
     298:	00801904 	movi	r2,100
     29c:	d8800015 	stw	r2,0(sp)
     2a0:	01c01904 	movi	r7,100
     2a4:	01801904 	movi	r6,100
     2a8:	01401904 	movi	r5,100
     2ac:	010000f4 	movhi	r4,3
     2b0:	21251d04 	addi	r4,r4,-27532
     2b4:	00004bc0 	call	4bc <printBoard>
	play();
     2b8:	0003ff80 	call	3ff8 <play>
}
     2bc:	0001883a 	nop
     2c0:	e037883a 	mov	sp,fp
     2c4:	dfc00117 	ldw	ra,4(sp)
     2c8:	df000017 	ldw	fp,0(sp)
     2cc:	dec00204 	addi	sp,sp,8
     2d0:	f800283a 	ret

000002d4 <main>:

int main(void)
{
     2d4:	defff904 	addi	sp,sp,-28
     2d8:	dfc00615 	stw	ra,24(sp)
     2dc:	df000515 	stw	fp,20(sp)
     2e0:	df000504 	addi	fp,sp,20
  OSTaskCreateExt(taskStartGame,NULL,(void *)&taskStartGame_stk[TASK_STACKSIZE-1],TASKSTARTGAME_PRIORITY,TASKSTARTGAME_PRIORITY,taskStartGame_stk,TASK_STACKSIZE,NULL,0);
     2e4:	d8000415 	stw	zero,16(sp)
     2e8:	d8000315 	stw	zero,12(sp)
     2ec:	00820004 	movi	r2,2048
     2f0:	d8800215 	stw	r2,8(sp)
     2f4:	008000f4 	movhi	r2,3
     2f8:	10a53604 	addi	r2,r2,-27432
     2fc:	d8800115 	stw	r2,4(sp)
     300:	00800044 	movi	r2,1
     304:	d8800015 	stw	r2,0(sp)
     308:	01c00044 	movi	r7,1
     30c:	018000f4 	movhi	r6,3
     310:	31ad3504 	addi	r6,r6,-19244
     314:	000b883a 	mov	r5,zero
     318:	01000034 	movhi	r4,0
     31c:	2100a004 	addi	r4,r4,640
     320:	0020ff00 	call	20ff0 <OSTaskCreateExt>
  OSStart();
     324:	001b9480 	call	1b948 <OSStart>
  return 0;
     328:	0005883a 	mov	r2,zero
}
     32c:	e037883a 	mov	sp,fp
     330:	dfc00117 	ldw	ra,4(sp)
     334:	df000017 	ldw	fp,0(sp)
     338:	dec00204 	addi	sp,sp,8
     33c:	f800283a 	ret

00000340 <printCountPieces>:

/*
Print the amount of pieces each player has on the board
*/
void printCountPieces(){
     340:	defffd04 	addi	sp,sp,-12
     344:	dfc00215 	stw	ra,8(sp)
     348:	df000115 	stw	fp,4(sp)
     34c:	df000104 	addi	fp,sp,4
	//Count vars that will be printed
	unsigned char enemyCount = 0;
     350:	e03fff05 	stb	zero,-4(fp)
	unsigned char friendlyCount = 0;
     354:	e03fff45 	stb	zero,-3(fp)

	//Check every field on the board
	for(unsigned char row = 0; row < 10; row++)
     358:	e03fff85 	stb	zero,-2(fp)
     35c:	00003e06 	br	458 <printCountPieces+0x118>
	{
		for(unsigned char field = 0; field < 10; field++)
     360:	e03fffc5 	stb	zero,-1(fp)
     364:	00003606 	br	440 <printCountPieces+0x100>
		{
			//If the field has a friendly man or king on it, add to the friendly counter
			if(board[row][field] == FRIENDLY || board[row][field] == FRIENDLYKING)
     368:	e13fff83 	ldbu	r4,-2(fp)
     36c:	e0ffffc3 	ldbu	r3,-1(fp)
     370:	008000f4 	movhi	r2,3
     374:	10a51d04 	addi	r2,r2,-27532
     378:	210002a4 	muli	r4,r4,10
     37c:	1105883a 	add	r2,r2,r4
     380:	10c5883a 	add	r2,r2,r3
     384:	10800003 	ldbu	r2,0(r2)
     388:	10803fcc 	andi	r2,r2,255
     38c:	108000a0 	cmpeqi	r2,r2,2
     390:	10000b1e 	bne	r2,zero,3c0 <printCountPieces+0x80>
     394:	e13fff83 	ldbu	r4,-2(fp)
     398:	e0ffffc3 	ldbu	r3,-1(fp)
     39c:	008000f4 	movhi	r2,3
     3a0:	10a51d04 	addi	r2,r2,-27532
     3a4:	210002a4 	muli	r4,r4,10
     3a8:	1105883a 	add	r2,r2,r4
     3ac:	10c5883a 	add	r2,r2,r3
     3b0:	10800003 	ldbu	r2,0(r2)
     3b4:	10803fcc 	andi	r2,r2,255
     3b8:	108000d8 	cmpnei	r2,r2,3
     3bc:	1000041e 	bne	r2,zero,3d0 <printCountPieces+0x90>
			{
				friendlyCount++;
     3c0:	e0bfff43 	ldbu	r2,-3(fp)
     3c4:	10800044 	addi	r2,r2,1
     3c8:	e0bfff45 	stb	r2,-3(fp)
     3cc:	00001906 	br	434 <printCountPieces+0xf4>
			}

			//If the field has an enemy man or king on it, add to the enemy counter
			else if(board[row][field] == ENEMY || board[row][field] == ENEMYKING)
     3d0:	e13fff83 	ldbu	r4,-2(fp)
     3d4:	e0ffffc3 	ldbu	r3,-1(fp)
     3d8:	008000f4 	movhi	r2,3
     3dc:	10a51d04 	addi	r2,r2,-27532
     3e0:	210002a4 	muli	r4,r4,10
     3e4:	1105883a 	add	r2,r2,r4
     3e8:	10c5883a 	add	r2,r2,r3
     3ec:	10800003 	ldbu	r2,0(r2)
     3f0:	10803fcc 	andi	r2,r2,255
     3f4:	10800120 	cmpeqi	r2,r2,4
     3f8:	10000b1e 	bne	r2,zero,428 <printCountPieces+0xe8>
     3fc:	e13fff83 	ldbu	r4,-2(fp)
     400:	e0ffffc3 	ldbu	r3,-1(fp)
     404:	008000f4 	movhi	r2,3
     408:	10a51d04 	addi	r2,r2,-27532
     40c:	210002a4 	muli	r4,r4,10
     410:	1105883a 	add	r2,r2,r4
     414:	10c5883a 	add	r2,r2,r3
     418:	10800003 	ldbu	r2,0(r2)
     41c:	10803fcc 	andi	r2,r2,255
     420:	10800158 	cmpnei	r2,r2,5
     424:	1000031e 	bne	r2,zero,434 <printCountPieces+0xf4>
			{
				enemyCount++;
     428:	e0bfff03 	ldbu	r2,-4(fp)
     42c:	10800044 	addi	r2,r2,1
     430:	e0bfff05 	stb	r2,-4(fp)
	unsigned char friendlyCount = 0;

	//Check every field on the board
	for(unsigned char row = 0; row < 10; row++)
	{
		for(unsigned char field = 0; field < 10; field++)
     434:	e0bfffc3 	ldbu	r2,-1(fp)
     438:	10800044 	addi	r2,r2,1
     43c:	e0bfffc5 	stb	r2,-1(fp)
     440:	e0bfffc3 	ldbu	r2,-1(fp)
     444:	108002b0 	cmpltui	r2,r2,10
     448:	103fc71e 	bne	r2,zero,368 <__alt_data_end+0xfc000368>
	//Count vars that will be printed
	unsigned char enemyCount = 0;
	unsigned char friendlyCount = 0;

	//Check every field on the board
	for(unsigned char row = 0; row < 10; row++)
     44c:	e0bfff83 	ldbu	r2,-2(fp)
     450:	10800044 	addi	r2,r2,1
     454:	e0bfff85 	stb	r2,-2(fp)
     458:	e0bfff83 	ldbu	r2,-2(fp)
     45c:	108002b0 	cmpltui	r2,r2,10
     460:	103fbf1e 	bne	r2,zero,360 <__alt_data_end+0xfc000360>
			}
		}
	}

	//Print the amount
	printf("%s %d%c", "Enemy #", enemyCount, '\n');
     464:	e0bfff03 	ldbu	r2,-4(fp)
     468:	01c00284 	movi	r7,10
     46c:	100d883a 	mov	r6,r2
     470:	014000b4 	movhi	r5,2
     474:	29524f04 	addi	r5,r5,18748
     478:	010000b4 	movhi	r4,2
     47c:	21125104 	addi	r4,r4,18756
     480:	0005b880 	call	5b88 <printf>
	printf("%s %d%c", "Friendly #", friendlyCount, '\n');
     484:	e0bfff43 	ldbu	r2,-3(fp)
     488:	01c00284 	movi	r7,10
     48c:	100d883a 	mov	r6,r2
     490:	014000b4 	movhi	r5,2
     494:	29525304 	addi	r5,r5,18764
     498:	010000b4 	movhi	r4,2
     49c:	21125104 	addi	r4,r4,18756
     4a0:	0005b880 	call	5b88 <printf>
}
     4a4:	0001883a 	nop
     4a8:	e037883a 	mov	sp,fp
     4ac:	dfc00117 	ldw	ra,4(sp)
     4b0:	df000017 	ldw	fp,0(sp)
     4b4:	dec00204 	addi	sp,sp,8
     4b8:	f800283a 	ret

000004bc <printBoard>:
changedRow	= The row where the piece has gone
changedField	= The field where the piece has gone
oldRow		= The row where the piece previously was
oldField	= The field where the piece previously was
*/
void printBoard(unsigned char * tempBoard[], unsigned char changedRow, unsigned char changedField, unsigned char oldRow, unsigned char oldField){
     4bc:	deffdf04 	addi	sp,sp,-132
     4c0:	dfc02015 	stw	ra,128(sp)
     4c4:	df001f15 	stw	fp,124(sp)
     4c8:	df001f04 	addi	fp,sp,124
     4cc:	e13ffb15 	stw	r4,-20(fp)
     4d0:	3009883a 	mov	r4,r6
     4d4:	3807883a 	mov	r3,r7
     4d8:	e0800217 	ldw	r2,8(fp)
     4dc:	e17ffc05 	stb	r5,-16(fp)
     4e0:	e13ffd05 	stb	r4,-12(fp)
     4e4:	e0fffe05 	stb	r3,-8(fp)
     4e8:	e0bfff05 	stb	r2,-4(fp)

	unsigned char b[10][10];
	memcpy(b,tempBoard,100);
     4ec:	e0bfe204 	addi	r2,fp,-120
     4f0:	01801904 	movi	r6,100
     4f4:	e17ffb17 	ldw	r5,-20(fp)
     4f8:	1009883a 	mov	r4,r2
     4fc:	00058e80 	call	58e8 <memcpy>

	if(COLORS_ENABLED) printf("  0  1  2  3  4  5  6  7  8  9");
	else printf("   0   1   2   3   4   5   6   7   8   9\n");
     500:	010000b4 	movhi	r4,2
     504:	21125604 	addi	r4,r4,18776
     508:	0005ca40 	call	5ca4 <puts>

	for(unsigned char row = 0; row < 10; row++){
     50c:	e03fe105 	stb	zero,-124(fp)
     510:	00005106 	br	658 <printBoard+0x19c>

		if(!COLORS_ENABLED) printf(" |");
     514:	010000b4 	movhi	r4,2
     518:	21126104 	addi	r4,r4,18820
     51c:	0005b880 	call	5b88 <printf>

		for(unsigned char o = 0; o < 10; o++){
     520:	e03fe145 	stb	zero,-123(fp)
     524:	00000606 	br	540 <printBoard+0x84>
			if(!COLORS_ENABLED) printf("---|");
     528:	010000b4 	movhi	r4,2
     52c:	21126204 	addi	r4,r4,18824
     530:	0005b880 	call	5b88 <printf>

	for(unsigned char row = 0; row < 10; row++){

		if(!COLORS_ENABLED) printf(" |");

		for(unsigned char o = 0; o < 10; o++){
     534:	e0bfe143 	ldbu	r2,-123(fp)
     538:	10800044 	addi	r2,r2,1
     53c:	e0bfe145 	stb	r2,-123(fp)
     540:	e0bfe143 	ldbu	r2,-123(fp)
     544:	108002b0 	cmpltui	r2,r2,10
     548:	103ff71e 	bne	r2,zero,528 <__alt_data_end+0xfc000528>
			if(!COLORS_ENABLED) printf("---|");
		}

		if(COLORS_ENABLED) printf("\n%i",row);
		else printf("\n%i|",row);
     54c:	e0bfe103 	ldbu	r2,-124(fp)
     550:	100b883a 	mov	r5,r2
     554:	010000b4 	movhi	r4,2
     558:	21126404 	addi	r4,r4,18832
     55c:	0005b880 	call	5b88 <printf>

		for(unsigned char field = 0; field < 10; field++){
     560:	e03fe185 	stb	zero,-122(fp)
     564:	00003406 	br	638 <printBoard+0x17c>
			}else if(COLORS_ENABLED && row == oldRow && field == oldField){
				printf("\x1b[33m");
			}

			//Draw the item on the board
			switch(b[row][field]){
     568:	e0ffe103 	ldbu	r3,-124(fp)
     56c:	e0bfe183 	ldbu	r2,-122(fp)
     570:	18c002a4 	muli	r3,r3,10
     574:	e13fe104 	addi	r4,fp,-124
     578:	20c7883a 	add	r3,r4,r3
     57c:	1885883a 	add	r2,r3,r2
     580:	10800104 	addi	r2,r2,4
     584:	10800003 	ldbu	r2,0(r2)
     588:	10803fcc 	andi	r2,r2,255
     58c:	10c001a8 	cmpgeui	r3,r2,6
     590:	1800201e 	bne	r3,zero,614 <printBoard+0x158>
     594:	100690ba 	slli	r3,r2,2
     598:	00800034 	movhi	r2,0
     59c:	10816b04 	addi	r2,r2,1452
     5a0:	1885883a 	add	r2,r3,r2
     5a4:	10800017 	ldw	r2,0(r2)
     5a8:	1000683a 	jmp	r2
     5ac:	00000614 	movui	zero,24
     5b0:	000005c4 	movi	zero,23
     5b4:	000005d4 	movui	zero,23
     5b8:	000005e4 	muli	zero,zero,23
     5bc:	000005f4 	movhi	zero,23
     5c0:	00000604 	movi	zero,24
				case BLACK :
					if(COLORS_ENABLED) printf("  ");
					else printf("   ");
     5c4:	010000b4 	movhi	r4,2
     5c8:	21126604 	addi	r4,r4,18840
     5cc:	0005b880 	call	5b88 <printf>
					break;
     5d0:	00001406 	br	624 <printBoard+0x168>
				case FRIENDLY :
					if(UNICODE_ENABLED) printf("  ");
					else printf(" F ");
     5d4:	010000b4 	movhi	r4,2
     5d8:	21126704 	addi	r4,r4,18844
     5dc:	0005b880 	call	5b88 <printf>
					break;
     5e0:	00001006 	br	624 <printBoard+0x168>
				case FRIENDLYKING :
					if(UNICODE_ENABLED) printf("  ");
					else printf("F K");
     5e4:	010000b4 	movhi	r4,2
     5e8:	21126804 	addi	r4,r4,18848
     5ec:	0005b880 	call	5b88 <printf>
					break;
     5f0:	00000c06 	br	624 <printBoard+0x168>
				 case ENEMY :
					if(UNICODE_ENABLED) printf("  ");
					else printf(" E ");
     5f4:	010000b4 	movhi	r4,2
     5f8:	21126904 	addi	r4,r4,18852
     5fc:	0005b880 	call	5b88 <printf>
					break;
     600:	00000806 	br	624 <printBoard+0x168>
				case ENEMYKING :
					if(UNICODE_ENABLED) printf("  ");
					else printf("E K");
     604:	010000b4 	movhi	r4,2
     608:	21126a04 	addi	r4,r4,18856
     60c:	0005b880 	call	5b88 <printf>
					break;
     610:	00000406 	br	624 <printBoard+0x168>
				default :
					printf("   ");
     614:	010000b4 	movhi	r4,2
     618:	21126604 	addi	r4,r4,18840
     61c:	0005b880 	call	5b88 <printf>
					break;
     620:	0001883a 	nop
			}

			//reset color or draw | to the right of the item
			if(COLORS_ENABLED) printf("\x1b[0m");
			else printf("|");
     624:	01001f04 	movi	r4,124
     628:	0005bcc0 	call	5bcc <putchar>
		}

		if(COLORS_ENABLED) printf("\n%i",row);
		else printf("\n%i|",row);

		for(unsigned char field = 0; field < 10; field++){
     62c:	e0bfe183 	ldbu	r2,-122(fp)
     630:	10800044 	addi	r2,r2,1
     634:	e0bfe185 	stb	r2,-122(fp)
     638:	e0bfe183 	ldbu	r2,-122(fp)
     63c:	108002b0 	cmpltui	r2,r2,10
     640:	103fc91e 	bne	r2,zero,568 <__alt_data_end+0xfc000568>
			if(COLORS_ENABLED) printf("\x1b[0m");
			else printf("|");
		}

		//Next row
		if(!COLORS_ENABLED) printf("\n");
     644:	01000284 	movi	r4,10
     648:	0005bcc0 	call	5bcc <putchar>
	memcpy(b,tempBoard,100);

	if(COLORS_ENABLED) printf("  0  1  2  3  4  5  6  7  8  9");
	else printf("   0   1   2   3   4   5   6   7   8   9\n");

	for(unsigned char row = 0; row < 10; row++){
     64c:	e0bfe103 	ldbu	r2,-124(fp)
     650:	10800044 	addi	r2,r2,1
     654:	e0bfe105 	stb	r2,-124(fp)
     658:	e0bfe103 	ldbu	r2,-124(fp)
     65c:	108002b0 	cmpltui	r2,r2,10
     660:	103fac1e 	bne	r2,zero,514 <__alt_data_end+0xfc000514>
		//Next row
		if(!COLORS_ENABLED) printf("\n");
	}

	//Print the last line
	if(!COLORS_ENABLED) printf(" |");
     664:	010000b4 	movhi	r4,2
     668:	21126104 	addi	r4,r4,18820
     66c:	0005b880 	call	5b88 <printf>
	for(unsigned char o = 0; o < 10; o++){
     670:	e03fe1c5 	stb	zero,-121(fp)
     674:	00000606 	br	690 <printBoard+0x1d4>
		if(!COLORS_ENABLED) printf("---|");
     678:	010000b4 	movhi	r4,2
     67c:	21126204 	addi	r4,r4,18824
     680:	0005b880 	call	5b88 <printf>
		if(!COLORS_ENABLED) printf("\n");
	}

	//Print the last line
	if(!COLORS_ENABLED) printf(" |");
	for(unsigned char o = 0; o < 10; o++){
     684:	e0bfe1c3 	ldbu	r2,-121(fp)
     688:	10800044 	addi	r2,r2,1
     68c:	e0bfe1c5 	stb	r2,-121(fp)
     690:	e0bfe1c3 	ldbu	r2,-121(fp)
     694:	108002b0 	cmpltui	r2,r2,10
     698:	103ff71e 	bne	r2,zero,678 <__alt_data_end+0xfc000678>
		if(!COLORS_ENABLED) printf("---|");
	}

	//done done
	printf("\n\n\n");
     69c:	010000b4 	movhi	r4,2
     6a0:	21126b04 	addi	r4,r4,18860
     6a4:	0005ca40 	call	5ca4 <puts>
}
     6a8:	0001883a 	nop
     6ac:	e037883a 	mov	sp,fp
     6b0:	dfc00117 	ldw	ra,4(sp)
     6b4:	df000017 	ldw	fp,0(sp)
     6b8:	dec00204 	addi	sp,sp,8
     6bc:	f800283a 	ret

000006c0 <kingCapture>:

Vector * kingCapture(Location currentLocation, unsigned char tempBoard [10][10], unsigned char friendly, unsigned char friendlyKing, unsigned char enemy, unsigned char enemyKing){
     6c0:	defff204 	addi	sp,sp,-56
     6c4:	dfc00d15 	stw	ra,52(sp)
     6c8:	df000c15 	stw	fp,48(sp)
     6cc:	df000c04 	addi	fp,sp,48
     6d0:	e13ffa0d 	sth	r4,-24(fp)
     6d4:	e17ffb15 	stw	r5,-20(fp)
     6d8:	300b883a 	mov	r5,r6
     6dc:	3809883a 	mov	r4,r7
     6e0:	e0c00217 	ldw	r3,8(fp)
     6e4:	e0800317 	ldw	r2,12(fp)
     6e8:	e17ffc05 	stb	r5,-16(fp)
     6ec:	e13ffd05 	stb	r4,-12(fp)
     6f0:	e0fffe05 	stb	r3,-8(fp)
     6f4:	e0bfff05 	stb	r2,-4(fp)
	#if DEBUG
		printf("begin king capture\n");
     6f8:	010000b4 	movhi	r4,2
     6fc:	21126c04 	addi	r4,r4,18864
     700:	0005ca40 	call	5ca4 <puts>
	#endif
	Vector *captureVector = vectorInit();
     704:	00042e00 	call	42e0 <vectorInit>
     708:	e0bff715 	stw	r2,-36(fp)
	Location possibleEnemy, possibleLanding;
	for(signed char rowDirection = -1; rowDirection < 2; rowDirection = rowDirection + 2){
     70c:	00bfffc4 	movi	r2,-1
     710:	e0bff605 	stb	r2,-40(fp)
     714:	00010e06 	br	b50 <kingCapture+0x490>
		for(signed char fieldDirection = -1; fieldDirection < 2; fieldDirection = fieldDirection + 2){
     718:	00bfffc4 	movi	r2,-1
     71c:	e0bff645 	stb	r2,-39(fp)
     720:	00010506 	br	b38 <kingCapture+0x478>
			#if DEBUG
				printf("Row direction: %d, Field Direction: %d\n", rowDirection, fieldDirection);
     724:	e0bff607 	ldb	r2,-40(fp)
     728:	e0fff647 	ldb	r3,-39(fp)
     72c:	180d883a 	mov	r6,r3
     730:	100b883a 	mov	r5,r2
     734:	010000b4 	movhi	r4,2
     738:	21127104 	addi	r4,r4,18884
     73c:	0005b880 	call	5b88 <printf>
			#endif
			possibleEnemy.row = currentLocation.row;
     740:	e0bffa43 	ldbu	r2,-23(fp)
     744:	e0bff945 	stb	r2,-27(fp)
			possibleEnemy.field = currentLocation.field;
     748:	e0bffa03 	ldbu	r2,-24(fp)
     74c:	e0bff905 	stb	r2,-28(fp)
			while(possibleEnemy.row + rowDirection > 0 && possibleEnemy.row + rowDirection < 9 && possibleEnemy.field + fieldDirection > 0 && possibleEnemy.field + fieldDirection < 9){
     750:	0000de06 	br	acc <kingCapture+0x40c>
				possibleEnemy.row += rowDirection;
     754:	e0fff943 	ldbu	r3,-27(fp)
     758:	e0bff603 	ldbu	r2,-40(fp)
     75c:	1885883a 	add	r2,r3,r2
     760:	e0bff945 	stb	r2,-27(fp)
				possibleEnemy.field += fieldDirection;
     764:	e0fff903 	ldbu	r3,-28(fp)
     768:	e0bff643 	ldbu	r2,-39(fp)
     76c:	1885883a 	add	r2,r3,r2
     770:	e0bff905 	stb	r2,-28(fp)
				#if DEBUG
					printf("possible enemy row: %d, possible enemy field: %d\n", possibleEnemy.row, possibleEnemy.field);
     774:	e0bff943 	ldbu	r2,-27(fp)
     778:	10803fcc 	andi	r2,r2,255
     77c:	e0fff903 	ldbu	r3,-28(fp)
     780:	18c03fcc 	andi	r3,r3,255
     784:	180d883a 	mov	r6,r3
     788:	100b883a 	mov	r5,r2
     78c:	010000b4 	movhi	r4,2
     790:	21127b04 	addi	r4,r4,18924
     794:	0005b880 	call	5b88 <printf>
				#endif
				if(tempBoard[possibleEnemy.row][possibleEnemy.field] == enemy || tempBoard[possibleEnemy.row][possibleEnemy.field] == enemyKing){
     798:	e0bff943 	ldbu	r2,-27(fp)
     79c:	10803fcc 	andi	r2,r2,255
     7a0:	108002a4 	muli	r2,r2,10
     7a4:	e0fffb17 	ldw	r3,-20(fp)
     7a8:	1887883a 	add	r3,r3,r2
     7ac:	e0bff903 	ldbu	r2,-28(fp)
     7b0:	10803fcc 	andi	r2,r2,255
     7b4:	1885883a 	add	r2,r3,r2
     7b8:	10800003 	ldbu	r2,0(r2)
     7bc:	10c03fcc 	andi	r3,r2,255
     7c0:	e0bffe03 	ldbu	r2,-8(fp)
     7c4:	18800c26 	beq	r3,r2,7f8 <kingCapture+0x138>
     7c8:	e0bff943 	ldbu	r2,-27(fp)
     7cc:	10803fcc 	andi	r2,r2,255
     7d0:	108002a4 	muli	r2,r2,10
     7d4:	e0fffb17 	ldw	r3,-20(fp)
     7d8:	1887883a 	add	r3,r3,r2
     7dc:	e0bff903 	ldbu	r2,-28(fp)
     7e0:	10803fcc 	andi	r2,r2,255
     7e4:	1885883a 	add	r2,r3,r2
     7e8:	10800003 	ldbu	r2,0(r2)
     7ec:	10c03fcc 	andi	r3,r2,255
     7f0:	e0bfff03 	ldbu	r2,-4(fp)
     7f4:	1880b51e 	bne	r3,r2,acc <kingCapture+0x40c>
					#if DEBUG
						printf("beeb boop enemy detected\n");
     7f8:	010000b4 	movhi	r4,2
     7fc:	21128804 	addi	r4,r4,18976
     800:	0005ca40 	call	5ca4 <puts>
					#endif
					possibleLanding.row = possibleEnemy.row;
     804:	e0bff943 	ldbu	r2,-27(fp)
     808:	e0bff9c5 	stb	r2,-25(fp)
					possibleLanding.field = possibleEnemy.field;
     80c:	e0bff903 	ldbu	r2,-28(fp)
     810:	e0bff985 	stb	r2,-26(fp)

					unsigned char i = 0;
     814:	e03ff685 	stb	zero,-38(fp)
					while(possibleLanding.row + rowDirection > -1 && possibleLanding.row + rowDirection < 10 && possibleLanding.field + fieldDirection > -1 && possibleLanding.field + fieldDirection < 10){
     818:	00009506 	br	a70 <kingCapture+0x3b0>
						possibleLanding.row += rowDirection;
     81c:	e0fff9c3 	ldbu	r3,-25(fp)
     820:	e0bff603 	ldbu	r2,-40(fp)
     824:	1885883a 	add	r2,r3,r2
     828:	e0bff9c5 	stb	r2,-25(fp)
						possibleLanding.field += fieldDirection;
     82c:	e0fff983 	ldbu	r3,-26(fp)
     830:	e0bff643 	ldbu	r2,-39(fp)
     834:	1885883a 	add	r2,r3,r2
     838:	e0bff985 	stb	r2,-26(fp)
						if(tempBoard[possibleLanding.row][possibleLanding.field] == BLACK){
     83c:	e0bff9c3 	ldbu	r2,-25(fp)
     840:	10803fcc 	andi	r2,r2,255
     844:	108002a4 	muli	r2,r2,10
     848:	e0fffb17 	ldw	r3,-20(fp)
     84c:	1887883a 	add	r3,r3,r2
     850:	e0bff983 	ldbu	r2,-26(fp)
     854:	10803fcc 	andi	r2,r2,255
     858:	1885883a 	add	r2,r3,r2
     85c:	10800003 	ldbu	r2,0(r2)
     860:	10803fcc 	andi	r2,r2,255
     864:	10800058 	cmpnei	r2,r2,1
     868:	1000811e 	bne	r2,zero,a70 <kingCapture+0x3b0>
							#if DEBUG
								printf("LANDINGMAYDAYMAYDAY %d \n", i);
     86c:	e0bff683 	ldbu	r2,-38(fp)
     870:	100b883a 	mov	r5,r2
     874:	010000b4 	movhi	r4,2
     878:	21128f04 	addi	r4,r4,19004
     87c:	0005b880 	call	5b88 <printf>
							#endif
							i++;
     880:	e0bff683 	ldbu	r2,-38(fp)
     884:	10800044 	addi	r2,r2,1
     888:	e0bff685 	stb	r2,-38(fp)

							#if DEBUG
								printf("LandROW : %d\n LandField: %d\n\n", possibleLanding.row, possibleLanding.field);
     88c:	e0bff9c3 	ldbu	r2,-25(fp)
     890:	10803fcc 	andi	r2,r2,255
     894:	e0fff983 	ldbu	r3,-26(fp)
     898:	18c03fcc 	andi	r3,r3,255
     89c:	180d883a 	mov	r6,r3
     8a0:	100b883a 	mov	r5,r2
     8a4:	010000b4 	movhi	r4,2
     8a8:	21129604 	addi	r4,r4,19032
     8ac:	0005b880 	call	5b88 <printf>
							#endif
							VectorCapture *capture = malloc(sizeof(VectorCapture)) ;
     8b0:	01000304 	movi	r4,12
     8b4:	0004fd00 	call	4fd0 <malloc>
     8b8:	e0bff815 	stw	r2,-32(fp)
							capture->oldLocation = currentLocation;
     8bc:	e0bff817 	ldw	r2,-32(fp)
     8c0:	e0fffa0b 	ldhu	r3,-24(fp)
     8c4:	10c0010d 	sth	r3,4(r2)
							capture->captureLocation = possibleEnemy;
     8c8:	e0bff817 	ldw	r2,-32(fp)
     8cc:	e0fff90b 	ldhu	r3,-28(fp)
     8d0:	10c0018d 	sth	r3,6(r2)
							capture->newLocation = possibleLanding;
     8d4:	e0bff817 	ldw	r2,-32(fp)
     8d8:	e0fff98b 	ldhu	r3,-26(fp)
     8dc:	10c0020d 	sth	r3,8(r2)
							capture->piece = tempBoard[possibleEnemy.row][possibleEnemy.field];
     8e0:	e0bff943 	ldbu	r2,-27(fp)
     8e4:	10803fcc 	andi	r2,r2,255
     8e8:	108002a4 	muli	r2,r2,10
     8ec:	e0fffb17 	ldw	r3,-20(fp)
     8f0:	1887883a 	add	r3,r3,r2
     8f4:	e0bff903 	ldbu	r2,-28(fp)
     8f8:	10803fcc 	andi	r2,r2,255
     8fc:	1885883a 	add	r2,r3,r2
     900:	10c00003 	ldbu	r3,0(r2)
     904:	e0bff817 	ldw	r2,-32(fp)
     908:	10c00285 	stb	r3,10(r2)
							tempBoard[currentLocation.row][currentLocation.field] = BLACK;
     90c:	e0bffa43 	ldbu	r2,-23(fp)
     910:	10803fcc 	andi	r2,r2,255
     914:	108002a4 	muli	r2,r2,10
     918:	e0fffb17 	ldw	r3,-20(fp)
     91c:	1887883a 	add	r3,r3,r2
     920:	e0bffa03 	ldbu	r2,-24(fp)
     924:	10803fcc 	andi	r2,r2,255
     928:	1885883a 	add	r2,r3,r2
     92c:	00c00044 	movi	r3,1
     930:	10c00005 	stb	r3,0(r2)
							tempBoard[possibleLanding.row][possibleLanding.field] = friendlyKing;
     934:	e0bff9c3 	ldbu	r2,-25(fp)
     938:	10803fcc 	andi	r2,r2,255
     93c:	108002a4 	muli	r2,r2,10
     940:	e0fffb17 	ldw	r3,-20(fp)
     944:	1887883a 	add	r3,r3,r2
     948:	e0bff983 	ldbu	r2,-26(fp)
     94c:	10803fcc 	andi	r2,r2,255
     950:	1885883a 	add	r2,r3,r2
     954:	e0fffd03 	ldbu	r3,-12(fp)
     958:	10c00005 	stb	r3,0(r2)
							tempBoard[possibleEnemy.row][possibleEnemy.field] = BLACK;
     95c:	e0bff943 	ldbu	r2,-27(fp)
     960:	10803fcc 	andi	r2,r2,255
     964:	108002a4 	muli	r2,r2,10
     968:	e0fffb17 	ldw	r3,-20(fp)
     96c:	1887883a 	add	r3,r3,r2
     970:	e0bff903 	ldbu	r2,-28(fp)
     974:	10803fcc 	andi	r2,r2,255
     978:	1885883a 	add	r2,r3,r2
     97c:	00c00044 	movi	r3,1
     980:	10c00005 	stb	r3,0(r2)

							capture->nextCaptures = kingCapture(possibleLanding, tempBoard,friendly, friendlyKing, enemy, enemyKing);
     984:	e13ffc03 	ldbu	r4,-16(fp)
     988:	e17ffd03 	ldbu	r5,-12(fp)
     98c:	e0bffe03 	ldbu	r2,-8(fp)
     990:	e0ffff03 	ldbu	r3,-4(fp)
     994:	d8c00115 	stw	r3,4(sp)
     998:	d8800015 	stw	r2,0(sp)
     99c:	e0fff98b 	ldhu	r3,-26(fp)
     9a0:	0005883a 	mov	r2,zero
     9a4:	18ffffcc 	andi	r3,r3,65535
     9a8:	10bfffec 	andhi	r2,r2,65535
     9ac:	10c4b03a 	or	r2,r2,r3
     9b0:	280f883a 	mov	r7,r5
     9b4:	200d883a 	mov	r6,r4
     9b8:	e17ffb17 	ldw	r5,-20(fp)
     9bc:	1009883a 	mov	r4,r2
     9c0:	00006c00 	call	6c0 <kingCapture>
     9c4:	1007883a 	mov	r3,r2
     9c8:	e0bff817 	ldw	r2,-32(fp)
     9cc:	10c00015 	stw	r3,0(r2)
							#if DEBUG
								printf("add stuff to vector\n");
     9d0:	010000b4 	movhi	r4,2
     9d4:	21129e04 	addi	r4,r4,19064
     9d8:	0005ca40 	call	5ca4 <puts>
							#endif
							vectorAdd(captureVector, (void*)capture);
     9dc:	e17ff817 	ldw	r5,-32(fp)
     9e0:	e13ff717 	ldw	r4,-36(fp)
     9e4:	00043540 	call	4354 <vectorAdd>

							#if DEBUG
								printf("restore board\n");
     9e8:	010000b4 	movhi	r4,2
     9ec:	2112a304 	addi	r4,r4,19084
     9f0:	0005ca40 	call	5ca4 <puts>
							#endif
							tempBoard[currentLocation.row][currentLocation.field] = friendlyKing;
     9f4:	e0bffa43 	ldbu	r2,-23(fp)
     9f8:	10803fcc 	andi	r2,r2,255
     9fc:	108002a4 	muli	r2,r2,10
     a00:	e0fffb17 	ldw	r3,-20(fp)
     a04:	1887883a 	add	r3,r3,r2
     a08:	e0bffa03 	ldbu	r2,-24(fp)
     a0c:	10803fcc 	andi	r2,r2,255
     a10:	1885883a 	add	r2,r3,r2
     a14:	e0fffd03 	ldbu	r3,-12(fp)
     a18:	10c00005 	stb	r3,0(r2)
							tempBoard[possibleLanding.row][possibleLanding.field] = BLACK;
     a1c:	e0bff9c3 	ldbu	r2,-25(fp)
     a20:	10803fcc 	andi	r2,r2,255
     a24:	108002a4 	muli	r2,r2,10
     a28:	e0fffb17 	ldw	r3,-20(fp)
     a2c:	1887883a 	add	r3,r3,r2
     a30:	e0bff983 	ldbu	r2,-26(fp)
     a34:	10803fcc 	andi	r2,r2,255
     a38:	1885883a 	add	r2,r3,r2
     a3c:	00c00044 	movi	r3,1
     a40:	10c00005 	stb	r3,0(r2)
							tempBoard[possibleEnemy.row][possibleEnemy.field] = capture->piece;
     a44:	e0bff943 	ldbu	r2,-27(fp)
     a48:	10803fcc 	andi	r2,r2,255
     a4c:	108002a4 	muli	r2,r2,10
     a50:	e0fffb17 	ldw	r3,-20(fp)
     a54:	1889883a 	add	r4,r3,r2
     a58:	e0bff903 	ldbu	r2,-28(fp)
     a5c:	10803fcc 	andi	r2,r2,255
     a60:	e0fff817 	ldw	r3,-32(fp)
     a64:	18c00283 	ldbu	r3,10(r3)
     a68:	2085883a 	add	r2,r4,r2
     a6c:	10c00005 	stb	r3,0(r2)
					#endif
					possibleLanding.row = possibleEnemy.row;
					possibleLanding.field = possibleEnemy.field;

					unsigned char i = 0;
					while(possibleLanding.row + rowDirection > -1 && possibleLanding.row + rowDirection < 10 && possibleLanding.field + fieldDirection > -1 && possibleLanding.field + fieldDirection < 10){
     a70:	e0bff9c3 	ldbu	r2,-25(fp)
     a74:	10c03fcc 	andi	r3,r2,255
     a78:	e0bff607 	ldb	r2,-40(fp)
     a7c:	1885883a 	add	r2,r3,r2
     a80:	10002916 	blt	r2,zero,b28 <kingCapture+0x468>
     a84:	e0bff9c3 	ldbu	r2,-25(fp)
     a88:	10c03fcc 	andi	r3,r2,255
     a8c:	e0bff607 	ldb	r2,-40(fp)
     a90:	1885883a 	add	r2,r3,r2
     a94:	10800288 	cmpgei	r2,r2,10
     a98:	1000231e 	bne	r2,zero,b28 <kingCapture+0x468>
     a9c:	e0bff983 	ldbu	r2,-26(fp)
     aa0:	10c03fcc 	andi	r3,r2,255
     aa4:	e0bff647 	ldb	r2,-39(fp)
     aa8:	1885883a 	add	r2,r3,r2
     aac:	10001e16 	blt	r2,zero,b28 <kingCapture+0x468>
     ab0:	e0bff983 	ldbu	r2,-26(fp)
     ab4:	10c03fcc 	andi	r3,r2,255
     ab8:	e0bff647 	ldb	r2,-39(fp)
     abc:	1885883a 	add	r2,r3,r2
     ac0:	10800290 	cmplti	r2,r2,10
     ac4:	103f551e 	bne	r2,zero,81c <__alt_data_end+0xfc00081c>
							tempBoard[currentLocation.row][currentLocation.field] = friendlyKing;
							tempBoard[possibleLanding.row][possibleLanding.field] = BLACK;
							tempBoard[possibleEnemy.row][possibleEnemy.field] = capture->piece;
						}
					}
					break;
     ac8:	00001706 	br	b28 <kingCapture+0x468>
			#if DEBUG
				printf("Row direction: %d, Field Direction: %d\n", rowDirection, fieldDirection);
			#endif
			possibleEnemy.row = currentLocation.row;
			possibleEnemy.field = currentLocation.field;
			while(possibleEnemy.row + rowDirection > 0 && possibleEnemy.row + rowDirection < 9 && possibleEnemy.field + fieldDirection > 0 && possibleEnemy.field + fieldDirection < 9){
     acc:	e0bff943 	ldbu	r2,-27(fp)
     ad0:	10c03fcc 	andi	r3,r2,255
     ad4:	e0bff607 	ldb	r2,-40(fp)
     ad8:	1885883a 	add	r2,r3,r2
     adc:	0080130e 	bge	zero,r2,b2c <kingCapture+0x46c>
     ae0:	e0bff943 	ldbu	r2,-27(fp)
     ae4:	10c03fcc 	andi	r3,r2,255
     ae8:	e0bff607 	ldb	r2,-40(fp)
     aec:	1885883a 	add	r2,r3,r2
     af0:	10800248 	cmpgei	r2,r2,9
     af4:	10000d1e 	bne	r2,zero,b2c <kingCapture+0x46c>
     af8:	e0bff903 	ldbu	r2,-28(fp)
     afc:	10c03fcc 	andi	r3,r2,255
     b00:	e0bff647 	ldb	r2,-39(fp)
     b04:	1885883a 	add	r2,r3,r2
     b08:	0080080e 	bge	zero,r2,b2c <kingCapture+0x46c>
     b0c:	e0bff903 	ldbu	r2,-28(fp)
     b10:	10c03fcc 	andi	r3,r2,255
     b14:	e0bff647 	ldb	r2,-39(fp)
     b18:	1885883a 	add	r2,r3,r2
     b1c:	10800250 	cmplti	r2,r2,9
     b20:	103f0c1e 	bne	r2,zero,754 <__alt_data_end+0xfc000754>
     b24:	00000106 	br	b2c <kingCapture+0x46c>
							tempBoard[currentLocation.row][currentLocation.field] = friendlyKing;
							tempBoard[possibleLanding.row][possibleLanding.field] = BLACK;
							tempBoard[possibleEnemy.row][possibleEnemy.field] = capture->piece;
						}
					}
					break;
     b28:	0001883a 	nop
		printf("begin king capture\n");
	#endif
	Vector *captureVector = vectorInit();
	Location possibleEnemy, possibleLanding;
	for(signed char rowDirection = -1; rowDirection < 2; rowDirection = rowDirection + 2){
		for(signed char fieldDirection = -1; fieldDirection < 2; fieldDirection = fieldDirection + 2){
     b2c:	e0bff643 	ldbu	r2,-39(fp)
     b30:	10800084 	addi	r2,r2,2
     b34:	e0bff645 	stb	r2,-39(fp)
     b38:	e0bff647 	ldb	r2,-39(fp)
     b3c:	10800090 	cmplti	r2,r2,2
     b40:	103ef81e 	bne	r2,zero,724 <__alt_data_end+0xfc000724>
	#if DEBUG
		printf("begin king capture\n");
	#endif
	Vector *captureVector = vectorInit();
	Location possibleEnemy, possibleLanding;
	for(signed char rowDirection = -1; rowDirection < 2; rowDirection = rowDirection + 2){
     b44:	e0bff603 	ldbu	r2,-40(fp)
     b48:	10800084 	addi	r2,r2,2
     b4c:	e0bff605 	stb	r2,-40(fp)
     b50:	e0bff607 	ldb	r2,-40(fp)
     b54:	10800090 	cmplti	r2,r2,2
     b58:	103eef1e 	bne	r2,zero,718 <__alt_data_end+0xfc000718>
				}
			}

		}
	}
	return captureVector;
     b5c:	e0bff717 	ldw	r2,-36(fp)
}
     b60:	e037883a 	mov	sp,fp
     b64:	dfc00117 	ldw	ra,4(sp)
     b68:	df000017 	ldw	fp,0(sp)
     b6c:	dec00204 	addi	sp,sp,8
     b70:	f800283a 	ret

00000b74 <deleteCaptureVector>:

void deleteCaptureVector(VectorCapture *capture){
     b74:	defffb04 	addi	sp,sp,-20
     b78:	dfc00415 	stw	ra,16(sp)
     b7c:	df000315 	stw	fp,12(sp)
     b80:	df000304 	addi	fp,sp,12
     b84:	e13fff15 	stw	r4,-4(fp)
	if(capture->nextCaptures != NULL){
     b88:	e0bfff17 	ldw	r2,-4(fp)
     b8c:	10800017 	ldw	r2,0(r2)
     b90:	10001f26 	beq	r2,zero,c10 <deleteCaptureVector+0x9c>
		Vector * vector = capture->nextCaptures;
     b94:	e0bfff17 	ldw	r2,-4(fp)
     b98:	10800017 	ldw	r2,0(r2)
     b9c:	e0bffe15 	stw	r2,-8(fp)
		for(unsigned char i = 0; i < vector->count; i++){
     ba0:	e03ffd05 	stb	zero,-12(fp)
     ba4:	00001406 	br	bf8 <deleteCaptureVector+0x84>
			if(vector->data[i] != NULL){
     ba8:	e0bffe17 	ldw	r2,-8(fp)
     bac:	10c00017 	ldw	r3,0(r2)
     bb0:	e0bffd03 	ldbu	r2,-12(fp)
     bb4:	1085883a 	add	r2,r2,r2
     bb8:	1085883a 	add	r2,r2,r2
     bbc:	1885883a 	add	r2,r3,r2
     bc0:	10800017 	ldw	r2,0(r2)
     bc4:	10000926 	beq	r2,zero,bec <deleteCaptureVector+0x78>
				deleteCaptureVector(vector->data[i]);
     bc8:	e0bffe17 	ldw	r2,-8(fp)
     bcc:	10c00017 	ldw	r3,0(r2)
     bd0:	e0bffd03 	ldbu	r2,-12(fp)
     bd4:	1085883a 	add	r2,r2,r2
     bd8:	1085883a 	add	r2,r2,r2
     bdc:	1885883a 	add	r2,r3,r2
     be0:	10800017 	ldw	r2,0(r2)
     be4:	1009883a 	mov	r4,r2
     be8:	0000b740 	call	b74 <deleteCaptureVector>
}

void deleteCaptureVector(VectorCapture *capture){
	if(capture->nextCaptures != NULL){
		Vector * vector = capture->nextCaptures;
		for(unsigned char i = 0; i < vector->count; i++){
     bec:	e0bffd03 	ldbu	r2,-12(fp)
     bf0:	10800044 	addi	r2,r2,1
     bf4:	e0bffd05 	stb	r2,-12(fp)
     bf8:	e0fffd03 	ldbu	r3,-12(fp)
     bfc:	e0bffe17 	ldw	r2,-8(fp)
     c00:	10800217 	ldw	r2,8(r2)
     c04:	18bfe816 	blt	r3,r2,ba8 <__alt_data_end+0xfc000ba8>
			if(vector->data[i] != NULL){
				deleteCaptureVector(vector->data[i]);
			}
		}
		vectorFree(vector);
     c08:	e13ffe17 	ldw	r4,-8(fp)
     c0c:	00046600 	call	4660 <vectorFree>
	}
	free(capture);
     c10:	e13fff17 	ldw	r4,-4(fp)
     c14:	0004fe40 	call	4fe4 <free>
}
     c18:	0001883a 	nop
     c1c:	e037883a 	mov	sp,fp
     c20:	dfc00117 	ldw	ra,4(sp)
     c24:	df000017 	ldw	fp,0(sp)
     c28:	dec00204 	addi	sp,sp,8
     c2c:	f800283a 	ret

00000c30 <stripCaptureVector>:

unsigned char stripCaptureVector(Vector *vector, unsigned char count){
     c30:	defff904 	addi	sp,sp,-28
     c34:	dfc00615 	stw	ra,24(sp)
     c38:	df000515 	stw	fp,20(sp)
     c3c:	df000504 	addi	fp,sp,20
     c40:	e13ffe15 	stw	r4,-8(fp)
     c44:	2805883a 	mov	r2,r5
     c48:	e0bfff05 	stb	r2,-4(fp)
	unsigned char oldCount = 0;
     c4c:	e03ffb05 	stb	zero,-20(fp)
	count++;
     c50:	e0bfff03 	ldbu	r2,-4(fp)
     c54:	10800044 	addi	r2,r2,1
     c58:	e0bfff05 	stb	r2,-4(fp)
	if(vector->count == 0){
     c5c:	e0bffe17 	ldw	r2,-8(fp)
     c60:	10800217 	ldw	r2,8(r2)
     c64:	1000081e 	bne	r2,zero,c88 <stripCaptureVector+0x58>
		#if DEBUG
			printf("Vector 0\n");
     c68:	010000b4 	movhi	r4,2
     c6c:	2112a704 	addi	r4,r4,19100
     c70:	0005ca40 	call	5ca4 <puts>
		#endif
		vectorFree(vector);
     c74:	e13ffe17 	ldw	r4,-8(fp)
     c78:	00046600 	call	4660 <vectorFree>
		oldCount = count;
     c7c:	e0bfff03 	ldbu	r2,-4(fp)
     c80:	e0bffb05 	stb	r2,-20(fp)
     c84:	00007706 	br	e64 <stripCaptureVector+0x234>
	}else{
		for(unsigned char i = 0; i < vector->count; i++){
     c88:	e03ffb45 	stb	zero,-19(fp)
     c8c:	00007106 	br	e54 <stripCaptureVector+0x224>
			#if DEBUG
				printf("count === %d\n", count);
     c90:	e0bfff03 	ldbu	r2,-4(fp)
     c94:	100b883a 	mov	r5,r2
     c98:	010000b4 	movhi	r4,2
     c9c:	2112aa04 	addi	r4,r4,19112
     ca0:	0005b880 	call	5b88 <printf>
			#endif
			VectorCapture *capture = ((VectorCapture *)vector->data[i]);
     ca4:	e0bffe17 	ldw	r2,-8(fp)
     ca8:	10c00017 	ldw	r3,0(r2)
     cac:	e0bffb43 	ldbu	r2,-19(fp)
     cb0:	1085883a 	add	r2,r2,r2
     cb4:	1085883a 	add	r2,r2,r2
     cb8:	1885883a 	add	r2,r3,r2
     cbc:	10800017 	ldw	r2,0(r2)
     cc0:	e0bffc15 	stw	r2,-16(fp)
			if(capture->nextCaptures != NULL){
     cc4:	e0bffc17 	ldw	r2,-16(fp)
     cc8:	10800017 	ldw	r2,0(r2)
     ccc:	10005e26 	beq	r2,zero,e48 <stripCaptureVector+0x218>
				#if DEBUG
					printf("Next captures != NULL\n");
     cd0:	010000b4 	movhi	r4,2
     cd4:	2112ae04 	addi	r4,r4,19128
     cd8:	0005ca40 	call	5ca4 <puts>
					printf("Vector count != 0\n");
     cdc:	010000b4 	movhi	r4,2
     ce0:	2112b404 	addi	r4,r4,19152
     ce4:	0005ca40 	call	5ca4 <puts>
				#endif
				unsigned char newCount = stripCaptureVector(capture->nextCaptures, count);
     ce8:	e0bffc17 	ldw	r2,-16(fp)
     cec:	10800017 	ldw	r2,0(r2)
     cf0:	e0ffff03 	ldbu	r3,-4(fp)
     cf4:	180b883a 	mov	r5,r3
     cf8:	1009883a 	mov	r4,r2
     cfc:	0000c300 	call	c30 <stripCaptureVector>
     d00:	e0bffd05 	stb	r2,-12(fp)
				#if DEBUG
					printf("Oldcount: %i\n Newcount: %i\n I: %i\n", oldCount ,newCount, i);
     d04:	e0bffb03 	ldbu	r2,-20(fp)
     d08:	e0fffd03 	ldbu	r3,-12(fp)
     d0c:	e13ffb43 	ldbu	r4,-19(fp)
     d10:	200f883a 	mov	r7,r4
     d14:	180d883a 	mov	r6,r3
     d18:	100b883a 	mov	r5,r2
     d1c:	010000b4 	movhi	r4,2
     d20:	2112b904 	addi	r4,r4,19172
     d24:	0005b880 	call	5b88 <printf>
				#endif
				if(oldCount < newCount){
     d28:	e0fffb03 	ldbu	r3,-20(fp)
     d2c:	e0bffd03 	ldbu	r2,-12(fp)
     d30:	1880272e 	bgeu	r3,r2,dd0 <stripCaptureVector+0x1a0>
					for(signed char delI = i-1; delI >= 0; delI--){
     d34:	e0bffb43 	ldbu	r2,-19(fp)
     d38:	10bfffc4 	addi	r2,r2,-1
     d3c:	e0bffb85 	stb	r2,-18(fp)
     d40:	00001e06 	br	dbc <stripCaptureVector+0x18c>
						#if DEBUG
							printf("Deleting prevous items\n");
     d44:	010000b4 	movhi	r4,2
     d48:	2112c204 	addi	r4,r4,19208
     d4c:	0005ca40 	call	5ca4 <puts>
						#endif
						if(vector->data[delI] != NULL){
     d50:	e0bffe17 	ldw	r2,-8(fp)
     d54:	10c00017 	ldw	r3,0(r2)
     d58:	e0bffb87 	ldb	r2,-18(fp)
     d5c:	1085883a 	add	r2,r2,r2
     d60:	1085883a 	add	r2,r2,r2
     d64:	1885883a 	add	r2,r3,r2
     d68:	10800017 	ldw	r2,0(r2)
     d6c:	10001026 	beq	r2,zero,db0 <stripCaptureVector+0x180>
							deleteCaptureVector(vector->data[delI]);
     d70:	e0bffe17 	ldw	r2,-8(fp)
     d74:	10c00017 	ldw	r3,0(r2)
     d78:	e0bffb87 	ldb	r2,-18(fp)
     d7c:	1085883a 	add	r2,r2,r2
     d80:	1085883a 	add	r2,r2,r2
     d84:	1885883a 	add	r2,r3,r2
     d88:	10800017 	ldw	r2,0(r2)
     d8c:	1009883a 	mov	r4,r2
     d90:	0000b740 	call	b74 <deleteCaptureVector>
							vector->data[delI] = NULL;
     d94:	e0bffe17 	ldw	r2,-8(fp)
     d98:	10c00017 	ldw	r3,0(r2)
     d9c:	e0bffb87 	ldb	r2,-18(fp)
     da0:	1085883a 	add	r2,r2,r2
     da4:	1085883a 	add	r2,r2,r2
     da8:	1885883a 	add	r2,r3,r2
     dac:	10000015 	stw	zero,0(r2)
				unsigned char newCount = stripCaptureVector(capture->nextCaptures, count);
				#if DEBUG
					printf("Oldcount: %i\n Newcount: %i\n I: %i\n", oldCount ,newCount, i);
				#endif
				if(oldCount < newCount){
					for(signed char delI = i-1; delI >= 0; delI--){
     db0:	e0bffb83 	ldbu	r2,-18(fp)
     db4:	10bfffc4 	addi	r2,r2,-1
     db8:	e0bffb85 	stb	r2,-18(fp)
     dbc:	e0bffb87 	ldb	r2,-18(fp)
     dc0:	103fe00e 	bge	r2,zero,d44 <__alt_data_end+0xfc000d44>
						if(vector->data[delI] != NULL){
							deleteCaptureVector(vector->data[delI]);
							vector->data[delI] = NULL;
						}
					}
					oldCount = newCount;
     dc4:	e0bffd03 	ldbu	r2,-12(fp)
     dc8:	e0bffb05 	stb	r2,-20(fp)
     dcc:	00001e06 	br	e48 <stripCaptureVector+0x218>
				}else if(oldCount > newCount){
     dd0:	e0bffb03 	ldbu	r2,-20(fp)
     dd4:	e0fffd03 	ldbu	r3,-12(fp)
     dd8:	18801b2e 	bgeu	r3,r2,e48 <stripCaptureVector+0x218>
					if(vector->data[i] != NULL){
     ddc:	e0bffe17 	ldw	r2,-8(fp)
     de0:	10c00017 	ldw	r3,0(r2)
     de4:	e0bffb43 	ldbu	r2,-19(fp)
     de8:	1085883a 	add	r2,r2,r2
     dec:	1085883a 	add	r2,r2,r2
     df0:	1885883a 	add	r2,r3,r2
     df4:	10800017 	ldw	r2,0(r2)
     df8:	10001326 	beq	r2,zero,e48 <stripCaptureVector+0x218>
						#if DEBUG
							printf("deleting current item\n");
     dfc:	010000b4 	movhi	r4,2
     e00:	2112c804 	addi	r4,r4,19232
     e04:	0005ca40 	call	5ca4 <puts>
						#endif
						// delete recursive
						deleteCaptureVector(vector->data[i]);
     e08:	e0bffe17 	ldw	r2,-8(fp)
     e0c:	10c00017 	ldw	r3,0(r2)
     e10:	e0bffb43 	ldbu	r2,-19(fp)
     e14:	1085883a 	add	r2,r2,r2
     e18:	1085883a 	add	r2,r2,r2
     e1c:	1885883a 	add	r2,r3,r2
     e20:	10800017 	ldw	r2,0(r2)
     e24:	1009883a 	mov	r4,r2
     e28:	0000b740 	call	b74 <deleteCaptureVector>
						vector->data[i] = NULL;
     e2c:	e0bffe17 	ldw	r2,-8(fp)
     e30:	10c00017 	ldw	r3,0(r2)
     e34:	e0bffb43 	ldbu	r2,-19(fp)
     e38:	1085883a 	add	r2,r2,r2
     e3c:	1085883a 	add	r2,r2,r2
     e40:	1885883a 	add	r2,r3,r2
     e44:	10000015 	stw	zero,0(r2)
			printf("Vector 0\n");
		#endif
		vectorFree(vector);
		oldCount = count;
	}else{
		for(unsigned char i = 0; i < vector->count; i++){
     e48:	e0bffb43 	ldbu	r2,-19(fp)
     e4c:	10800044 	addi	r2,r2,1
     e50:	e0bffb45 	stb	r2,-19(fp)
     e54:	e0fffb43 	ldbu	r3,-19(fp)
     e58:	e0bffe17 	ldw	r2,-8(fp)
     e5c:	10800217 	ldw	r2,8(r2)
     e60:	18bf8b16 	blt	r3,r2,c90 <__alt_data_end+0xfc000c90>
				}
			}
		}

	}
	return oldCount;
     e64:	e0bffb03 	ldbu	r2,-20(fp)
}
     e68:	e037883a 	mov	sp,fp
     e6c:	dfc00117 	ldw	ra,4(sp)
     e70:	df000017 	ldw	fp,0(sp)
     e74:	dec00204 	addi	sp,sp,8
     e78:	f800283a 	ret

00000e7c <addToMoveList>:

void addToMoveList(VectorCapture * capture, struct Move * origin){
     e7c:	defffb04 	addi	sp,sp,-20
     e80:	dfc00415 	stw	ra,16(sp)
     e84:	df000315 	stw	fp,12(sp)
     e88:	df000304 	addi	fp,sp,12
     e8c:	e13ffe15 	stw	r4,-8(fp)
     e90:	e17fff15 	stw	r5,-4(fp)
	printf("add move list loop\n");
     e94:	010000b4 	movhi	r4,2
     e98:	2112ce04 	addi	r4,r4,19256
     e9c:	0005ca40 	call	5ca4 <puts>
	while(origin->nextMove != NULL){
     ea0:	00000306 	br	eb0 <addToMoveList+0x34>
		origin = origin->nextMove;
     ea4:	e0bfff17 	ldw	r2,-4(fp)
     ea8:	10800217 	ldw	r2,8(r2)
     eac:	e0bfff15 	stw	r2,-4(fp)
	return oldCount;
}

void addToMoveList(VectorCapture * capture, struct Move * origin){
	printf("add move list loop\n");
	while(origin->nextMove != NULL){
     eb0:	e0bfff17 	ldw	r2,-4(fp)
     eb4:	10800217 	ldw	r2,8(r2)
     eb8:	103ffa1e 	bne	r2,zero,ea4 <__alt_data_end+0xfc000ea4>
		origin = origin->nextMove;
	}
	printf("found it\n");
     ebc:	010000b4 	movhi	r4,2
     ec0:	2112d304 	addi	r4,r4,19276
     ec4:	0005ca40 	call	5ca4 <puts>
	printf("%lu\n", sizeof(struct Move));
     ec8:	01400304 	movi	r5,12
     ecc:	010000b4 	movhi	r4,2
     ed0:	2112d604 	addi	r4,r4,19288
     ed4:	0005b880 	call	5b88 <printf>
	struct Move * newMove  = malloc(sizeof(struct Move));
     ed8:	01000304 	movi	r4,12
     edc:	0004fd00 	call	4fd0 <malloc>
     ee0:	e0bffd15 	stw	r2,-12(fp)
	printf("summon the evil wizard malloc for the second time\n");
     ee4:	010000b4 	movhi	r4,2
     ee8:	2112d804 	addi	r4,r4,19296
     eec:	0005ca40 	call	5ca4 <puts>

	newMove->oldLocation = capture->oldLocation;
     ef0:	e0bffd17 	ldw	r2,-12(fp)
     ef4:	e0fffe17 	ldw	r3,-8(fp)
     ef8:	18c0010b 	ldhu	r3,4(r3)
     efc:	10c0000d 	sth	r3,0(r2)
	newMove->newLocation = capture->newLocation;
     f00:	e0bffd17 	ldw	r2,-12(fp)
     f04:	e0fffe17 	ldw	r3,-8(fp)
     f08:	18c0020b 	ldhu	r3,8(r3)
     f0c:	10c0008d 	sth	r3,2(r2)
	newMove->nextMove = NULL;
     f10:	e0bffd17 	ldw	r2,-12(fp)
     f14:	10000215 	stw	zero,8(r2)

	newMove->capture.piece = capture->piece;
     f18:	e0bffe17 	ldw	r2,-8(fp)
     f1c:	10c00283 	ldbu	r3,10(r2)
     f20:	e0bffd17 	ldw	r2,-12(fp)
     f24:	10c00185 	stb	r3,6(r2)
	newMove->capture.captureLocation = capture->captureLocation;
     f28:	e0bffd17 	ldw	r2,-12(fp)
     f2c:	e0fffe17 	ldw	r3,-8(fp)
     f30:	18c0018b 	ldhu	r3,6(r3)
     f34:	10c0010d 	sth	r3,4(r2)

	origin->nextMove = newMove;
     f38:	e0bfff17 	ldw	r2,-4(fp)
     f3c:	e0fffd17 	ldw	r3,-12(fp)
     f40:	10c00215 	stw	r3,8(r2)
}
     f44:	0001883a 	nop
     f48:	e037883a 	mov	sp,fp
     f4c:	dfc00117 	ldw	ra,4(sp)
     f50:	df000017 	ldw	fp,0(sp)
     f54:	dec00204 	addi	sp,sp,8
     f58:	f800283a 	ret

00000f5c <copyBoard>:

void copyBoard(unsigned char oldBoard[10][10], unsigned char newBoard[10][10]){
     f5c:	defffc04 	addi	sp,sp,-16
     f60:	df000315 	stw	fp,12(sp)
     f64:	df000304 	addi	fp,sp,12
     f68:	e13ffe15 	stw	r4,-8(fp)
     f6c:	e17fff15 	stw	r5,-4(fp)
	for(unsigned char rowI = 0; rowI < 10; rowI++){
     f70:	e03ffd05 	stb	zero,-12(fp)
     f74:	00001a06 	br	fe0 <copyBoard+0x84>
		for(unsigned char fieldI = 0; fieldI < 10; fieldI++){
     f78:	e03ffd45 	stb	zero,-11(fp)
     f7c:	00001206 	br	fc8 <copyBoard+0x6c>
			newBoard[rowI][fieldI] = oldBoard[rowI+3][fieldI];
     f80:	e0bffd03 	ldbu	r2,-12(fp)
     f84:	108002a4 	muli	r2,r2,10
     f88:	e0ffff17 	ldw	r3,-4(fp)
     f8c:	1889883a 	add	r4,r3,r2
     f90:	e0bffd43 	ldbu	r2,-11(fp)
     f94:	e0fffd03 	ldbu	r3,-12(fp)
     f98:	18c002a4 	muli	r3,r3,10
     f9c:	18c00784 	addi	r3,r3,30
     fa0:	e17ffe17 	ldw	r5,-8(fp)
     fa4:	28cb883a 	add	r5,r5,r3
     fa8:	e0fffd43 	ldbu	r3,-11(fp)
     fac:	28c7883a 	add	r3,r5,r3
     fb0:	18c00003 	ldbu	r3,0(r3)
     fb4:	2085883a 	add	r2,r4,r2
     fb8:	10c00005 	stb	r3,0(r2)
	origin->nextMove = newMove;
}

void copyBoard(unsigned char oldBoard[10][10], unsigned char newBoard[10][10]){
	for(unsigned char rowI = 0; rowI < 10; rowI++){
		for(unsigned char fieldI = 0; fieldI < 10; fieldI++){
     fbc:	e0bffd43 	ldbu	r2,-11(fp)
     fc0:	10800044 	addi	r2,r2,1
     fc4:	e0bffd45 	stb	r2,-11(fp)
     fc8:	e0bffd43 	ldbu	r2,-11(fp)
     fcc:	108002b0 	cmpltui	r2,r2,10
     fd0:	103feb1e 	bne	r2,zero,f80 <__alt_data_end+0xfc000f80>

	origin->nextMove = newMove;
}

void copyBoard(unsigned char oldBoard[10][10], unsigned char newBoard[10][10]){
	for(unsigned char rowI = 0; rowI < 10; rowI++){
     fd4:	e0bffd03 	ldbu	r2,-12(fp)
     fd8:	10800044 	addi	r2,r2,1
     fdc:	e0bffd05 	stb	r2,-12(fp)
     fe0:	e0bffd03 	ldbu	r2,-12(fp)
     fe4:	108002b0 	cmpltui	r2,r2,10
     fe8:	103fe31e 	bne	r2,zero,f78 <__alt_data_end+0xfc000f78>
		for(unsigned char fieldI = 0; fieldI < 10; fieldI++){
			newBoard[rowI][fieldI] = oldBoard[rowI+3][fieldI];
		}
	}
}
     fec:	0001883a 	nop
     ff0:	e037883a 	mov	sp,fp
     ff4:	df000017 	ldw	fp,0(sp)
     ff8:	dec00104 	addi	sp,sp,4
     ffc:	f800283a 	ret

00001000 <copyMoveList>:

void copyMoveList(struct Move * originalOrigin, struct Move * newOrigin, unsigned char depth){
    1000:	defffb04 	addi	sp,sp,-20
    1004:	dfc00415 	stw	ra,16(sp)
    1008:	df000315 	stw	fp,12(sp)
    100c:	df000304 	addi	fp,sp,12
    1010:	e13ffd15 	stw	r4,-12(fp)
    1014:	e17ffe15 	stw	r5,-8(fp)
    1018:	3005883a 	mov	r2,r6
    101c:	e0bfff05 	stb	r2,-4(fp)
	while(depth > 0){
    1020:	00001706 	br	1080 <copyMoveList+0x80>
		depth--;
    1024:	e0bfff03 	ldbu	r2,-4(fp)
    1028:	10bfffc4 	addi	r2,r2,-1
    102c:	e0bfff05 	stb	r2,-4(fp)
		memcpy(newOrigin, originalOrigin, sizeof(struct Move));
    1030:	01800304 	movi	r6,12
    1034:	e17ffd17 	ldw	r5,-12(fp)
    1038:	e13ffe17 	ldw	r4,-8(fp)
    103c:	00058e80 	call	58e8 <memcpy>

		if(originalOrigin->nextMove == NULL){
    1040:	e0bffd17 	ldw	r2,-12(fp)
    1044:	10800217 	ldw	r2,8(r2)
    1048:	1000021e 	bne	r2,zero,1054 <copyMoveList+0x54>
			newOrigin->nextMove = NULL;
    104c:	e0bffe17 	ldw	r2,-8(fp)
    1050:	10000215 	stw	zero,8(r2)
		}
		newOrigin->nextMove = malloc(sizeof(struct Move));
    1054:	01000304 	movi	r4,12
    1058:	0004fd00 	call	4fd0 <malloc>
    105c:	1007883a 	mov	r3,r2
    1060:	e0bffe17 	ldw	r2,-8(fp)
    1064:	10c00215 	stw	r3,8(r2)
		newOrigin = newOrigin->nextMove;
    1068:	e0bffe17 	ldw	r2,-8(fp)
    106c:	10800217 	ldw	r2,8(r2)
    1070:	e0bffe15 	stw	r2,-8(fp)
		originalOrigin = originalOrigin->nextMove;
    1074:	e0bffd17 	ldw	r2,-12(fp)
    1078:	10800217 	ldw	r2,8(r2)
    107c:	e0bffd15 	stw	r2,-12(fp)
		}
	}
}

void copyMoveList(struct Move * originalOrigin, struct Move * newOrigin, unsigned char depth){
	while(depth > 0){
    1080:	e0bfff03 	ldbu	r2,-4(fp)
    1084:	103fe71e 	bne	r2,zero,1024 <__alt_data_end+0xfc001024>
		newOrigin->nextMove = malloc(sizeof(struct Move));
		newOrigin = newOrigin->nextMove;
		originalOrigin = originalOrigin->nextMove;
	}

}
    1088:	0001883a 	nop
    108c:	e037883a 	mov	sp,fp
    1090:	dfc00117 	ldw	ra,4(sp)
    1094:	df000017 	ldw	fp,0(sp)
    1098:	dec00204 	addi	sp,sp,8
    109c:	f800283a 	ret

000010a0 <generateCaptureList>:

void generateCaptureList(Vector* captureVector, struct Move * moveList, Vector * moveVector, unsigned char tempBoard[10][10], unsigned char depth){
    10a0:	defff404 	addi	sp,sp,-48
    10a4:	dfc00b15 	stw	ra,44(sp)
    10a8:	df000a15 	stw	fp,40(sp)
    10ac:	df000a04 	addi	fp,sp,40
    10b0:	e13ffb15 	stw	r4,-20(fp)
    10b4:	e17ffc15 	stw	r5,-16(fp)
    10b8:	e1bffd15 	stw	r6,-12(fp)
    10bc:	e1fffe15 	stw	r7,-8(fp)
    10c0:	e0800217 	ldw	r2,8(fp)
    10c4:	e0bfff05 	stb	r2,-4(fp)
	depth++;
    10c8:	e0bfff03 	ldbu	r2,-4(fp)
    10cc:	10800044 	addi	r2,r2,1
    10d0:	e0bfff05 	stb	r2,-4(fp)
	for(unsigned char i = 0; i < captureVector->count; i++){
    10d4:	e03ff705 	stb	zero,-36(fp)
    10d8:	00009b06 	br	1348 <generateCaptureList+0x2a8>
		if(captureVector->data[i] != NULL){
    10dc:	e0bffb17 	ldw	r2,-20(fp)
    10e0:	10c00017 	ldw	r3,0(r2)
    10e4:	e0bff703 	ldbu	r2,-36(fp)
    10e8:	1085883a 	add	r2,r2,r2
    10ec:	1085883a 	add	r2,r2,r2
    10f0:	1885883a 	add	r2,r3,r2
    10f4:	10800017 	ldw	r2,0(r2)
    10f8:	10009026 	beq	r2,zero,133c <generateCaptureList+0x29c>
			printf("kaasten\n");
    10fc:	010000b4 	movhi	r4,2
    1100:	2112e504 	addi	r4,r4,19348
    1104:	0005ca40 	call	5ca4 <puts>
			VectorCapture * capture = (VectorCapture *)captureVector->data[i];
    1108:	e0bffb17 	ldw	r2,-20(fp)
    110c:	10c00017 	ldw	r3,0(r2)
    1110:	e0bff703 	ldbu	r2,-36(fp)
    1114:	1085883a 	add	r2,r2,r2
    1118:	1085883a 	add	r2,r2,r2
    111c:	1885883a 	add	r2,r3,r2
    1120:	10800017 	ldw	r2,0(r2)
    1124:	e0bff915 	stw	r2,-28(fp)
			printf("add to move list\n");
    1128:	010000b4 	movhi	r4,2
    112c:	2112e704 	addi	r4,r4,19356
    1130:	0005ca40 	call	5ca4 <puts>
			addToMoveList(capture, moveList);
    1134:	e17ffc17 	ldw	r5,-16(fp)
    1138:	e13ff917 	ldw	r4,-28(fp)
    113c:	0000e7c0 	call	e7c <addToMoveList>

			printf("change board\n");
    1140:	010000b4 	movhi	r4,2
    1144:	2112ec04 	addi	r4,r4,19376
    1148:	0005ca40 	call	5ca4 <puts>
			tempBoard[capture->newLocation.row][capture->newLocation.field] = board[capture->oldLocation.row][capture->oldLocation.field];
    114c:	e0bff917 	ldw	r2,-28(fp)
    1150:	10800243 	ldbu	r2,9(r2)
    1154:	10803fcc 	andi	r2,r2,255
    1158:	108002a4 	muli	r2,r2,10
    115c:	e0fffe17 	ldw	r3,-8(fp)
    1160:	188b883a 	add	r5,r3,r2
    1164:	e0bff917 	ldw	r2,-28(fp)
    1168:	10800203 	ldbu	r2,8(r2)
    116c:	11003fcc 	andi	r4,r2,255
    1170:	e0bff917 	ldw	r2,-28(fp)
    1174:	10800143 	ldbu	r2,5(r2)
    1178:	11803fcc 	andi	r6,r2,255
    117c:	e0bff917 	ldw	r2,-28(fp)
    1180:	10800103 	ldbu	r2,4(r2)
    1184:	10c03fcc 	andi	r3,r2,255
    1188:	008000f4 	movhi	r2,3
    118c:	10a51d04 	addi	r2,r2,-27532
    1190:	318002a4 	muli	r6,r6,10
    1194:	1185883a 	add	r2,r2,r6
    1198:	10c5883a 	add	r2,r2,r3
    119c:	10c00003 	ldbu	r3,0(r2)
    11a0:	2905883a 	add	r2,r5,r4
    11a4:	10c00005 	stb	r3,0(r2)
			tempBoard[capture->oldLocation.row][capture->oldLocation.field] = BLACK;
    11a8:	e0bff917 	ldw	r2,-28(fp)
    11ac:	10800143 	ldbu	r2,5(r2)
    11b0:	10803fcc 	andi	r2,r2,255
    11b4:	108002a4 	muli	r2,r2,10
    11b8:	e0fffe17 	ldw	r3,-8(fp)
    11bc:	1887883a 	add	r3,r3,r2
    11c0:	e0bff917 	ldw	r2,-28(fp)
    11c4:	10800103 	ldbu	r2,4(r2)
    11c8:	10803fcc 	andi	r2,r2,255
    11cc:	1885883a 	add	r2,r3,r2
    11d0:	00c00044 	movi	r3,1
    11d4:	10c00005 	stb	r3,0(r2)
			tempBoard[capture->captureLocation.row][capture->captureLocation.field] = BLACK;
    11d8:	e0bff917 	ldw	r2,-28(fp)
    11dc:	108001c3 	ldbu	r2,7(r2)
    11e0:	10803fcc 	andi	r2,r2,255
    11e4:	108002a4 	muli	r2,r2,10
    11e8:	e0fffe17 	ldw	r3,-8(fp)
    11ec:	1887883a 	add	r3,r3,r2
    11f0:	e0bff917 	ldw	r2,-28(fp)
    11f4:	10800183 	ldbu	r2,6(r2)
    11f8:	10803fcc 	andi	r2,r2,255
    11fc:	1885883a 	add	r2,r3,r2
    1200:	00c00044 	movi	r3,1
    1204:	10c00005 	stb	r3,0(r2)

			if(capture->nextCaptures == NULL || capture->nextCaptures->count == 0){
    1208:	e0bff917 	ldw	r2,-28(fp)
    120c:	10800017 	ldw	r2,0(r2)
    1210:	10000426 	beq	r2,zero,1224 <generateCaptureList+0x184>
    1214:	e0bff917 	ldw	r2,-28(fp)
    1218:	10800017 	ldw	r2,0(r2)
    121c:	10800217 	ldw	r2,8(r2)
    1220:	1000241e 	bne	r2,zero,12b4 <generateCaptureList+0x214>
				#if DEBUG
					printf("add\n");
    1224:	010000b4 	movhi	r4,2
    1228:	2112f004 	addi	r4,r4,19392
    122c:	0005ca40 	call	5ca4 <puts>
					printf("malloccing vectorMove\n");
    1230:	010000b4 	movhi	r4,2
    1234:	2112f104 	addi	r4,r4,19396
    1238:	0005ca40 	call	5ca4 <puts>
				#endif
				VectorMove * vectorMove = malloc(sizeof(vectorMove));
    123c:	01000104 	movi	r4,4
    1240:	0004fd00 	call	4fd0 <malloc>
    1244:	e0bffa15 	stw	r2,-24(fp)
				#if DEBUG
					printf("mallocced vectorMove\n");
    1248:	010000b4 	movhi	r4,2
    124c:	2112f704 	addi	r4,r4,19420
    1250:	0005ca40 	call	5ca4 <puts>
				#endif
				vectorMove->move = moveList;
    1254:	e0bffa17 	ldw	r2,-24(fp)
    1258:	e0fffc17 	ldw	r3,-16(fp)
    125c:	10c00015 	stw	r3,0(r2)
				printf("starting copy\n");
    1260:	010000b4 	movhi	r4,2
    1264:	2112fd04 	addi	r4,r4,19444
    1268:	0005ca40 	call	5ca4 <puts>
				copyBoard(tempBoard, vectorMove->board);
    126c:	e0bffa17 	ldw	r2,-24(fp)
    1270:	10800104 	addi	r2,r2,4
    1274:	100b883a 	mov	r5,r2
    1278:	e13ffe17 	ldw	r4,-8(fp)
    127c:	0000f5c0 	call	f5c <copyBoard>
				#if DEBUG
					printf("board copied\n");
    1280:	010000b4 	movhi	r4,2
    1284:	21130104 	addi	r4,r4,19460
    1288:	0005ca40 	call	5ca4 <puts>
					printf("adding moves\n");
    128c:	010000b4 	movhi	r4,2
    1290:	21130504 	addi	r4,r4,19476
    1294:	0005ca40 	call	5ca4 <puts>
				#endif
				vectorAdd(moveVector, (void *)vectorMove);
    1298:	e17ffa17 	ldw	r5,-24(fp)
    129c:	e13ffd17 	ldw	r4,-12(fp)
    12a0:	00043540 	call	4354 <vectorAdd>
				#if DEBUG
					printf("moves added\n");
    12a4:	010000b4 	movhi	r4,2
    12a8:	21130904 	addi	r4,r4,19492
    12ac:	0005ca40 	call	5ca4 <puts>
			printf("change board\n");
			tempBoard[capture->newLocation.row][capture->newLocation.field] = board[capture->oldLocation.row][capture->oldLocation.field];
			tempBoard[capture->oldLocation.row][capture->oldLocation.field] = BLACK;
			tempBoard[capture->captureLocation.row][capture->captureLocation.field] = BLACK;

			if(capture->nextCaptures == NULL || capture->nextCaptures->count == 0){
    12b0:	00002206 	br	133c <generateCaptureList+0x29c>
				#if DEBUG
					printf("moves added\n");
				#endif

			}else{
				printf("Of ANDERS\n");
    12b4:	010000b4 	movhi	r4,2
    12b8:	21130c04 	addi	r4,r4,19504
    12bc:	0005ca40 	call	5ca4 <puts>
				struct Move * newMoveList;
				if(i > 0){
    12c0:	e0bff703 	ldbu	r2,-36(fp)
    12c4:	10000f26 	beq	r2,zero,1304 <generateCaptureList+0x264>
					printf("DIT\n");
    12c8:	010000b4 	movhi	r4,2
    12cc:	21130f04 	addi	r4,r4,19516
    12d0:	0005ca40 	call	5ca4 <puts>
					newMoveList = malloc(sizeof(struct Move));
    12d4:	01000304 	movi	r4,12
    12d8:	0004fd00 	call	4fd0 <malloc>
    12dc:	e0bff815 	stw	r2,-32(fp)
					printf("its the evil wizard again");
    12e0:	010000b4 	movhi	r4,2
    12e4:	21131004 	addi	r4,r4,19520
    12e8:	0005b880 	call	5b88 <printf>
					copyMoveList(moveList, newMoveList, depth);
    12ec:	e0bfff03 	ldbu	r2,-4(fp)
    12f0:	100d883a 	mov	r6,r2
    12f4:	e17ff817 	ldw	r5,-32(fp)
    12f8:	e13ffc17 	ldw	r4,-16(fp)
    12fc:	00010000 	call	1000 <copyMoveList>
    1300:	00000506 	br	1318 <generateCaptureList+0x278>
				}else{
					printf("DAT\n");
    1304:	010000b4 	movhi	r4,2
    1308:	21131704 	addi	r4,r4,19548
    130c:	0005ca40 	call	5ca4 <puts>
					newMoveList = moveList;
    1310:	e0bffc17 	ldw	r2,-16(fp)
    1314:	e0bff815 	stw	r2,-32(fp)
				}
				generateCaptureList(capture->nextCaptures, newMoveList, moveVector, tempBoard, depth);
    1318:	e0bff917 	ldw	r2,-28(fp)
    131c:	10c00017 	ldw	r3,0(r2)
    1320:	e0bfff03 	ldbu	r2,-4(fp)
    1324:	d8800015 	stw	r2,0(sp)
    1328:	e1fffe17 	ldw	r7,-8(fp)
    132c:	e1bffd17 	ldw	r6,-12(fp)
    1330:	e17ff817 	ldw	r5,-32(fp)
    1334:	1809883a 	mov	r4,r3
    1338:	00010a00 	call	10a0 <generateCaptureList>

}

void generateCaptureList(Vector* captureVector, struct Move * moveList, Vector * moveVector, unsigned char tempBoard[10][10], unsigned char depth){
	depth++;
	for(unsigned char i = 0; i < captureVector->count; i++){
    133c:	e0bff703 	ldbu	r2,-36(fp)
    1340:	10800044 	addi	r2,r2,1
    1344:	e0bff705 	stb	r2,-36(fp)
    1348:	e0fff703 	ldbu	r3,-36(fp)
    134c:	e0bffb17 	ldw	r2,-20(fp)
    1350:	10800217 	ldw	r2,8(r2)
    1354:	18bf6116 	blt	r3,r2,10dc <__alt_data_end+0xfc0010dc>
				}
				generateCaptureList(capture->nextCaptures, newMoveList, moveVector, tempBoard, depth);
			}
		}
	}
}
    1358:	0001883a 	nop
    135c:	e037883a 	mov	sp,fp
    1360:	dfc00117 	ldw	ra,4(sp)
    1364:	df000017 	ldw	fp,0(sp)
    1368:	dec00204 	addi	sp,sp,8
    136c:	f800283a 	ret

00001370 <manCapture>:

unsigned char manCapture(unsigned char * tempBoard[], unsigned char row, unsigned char field, unsigned char friendly, unsigned char friendlyKing, unsigned char enemy, unsigned char enemyKing){
    1370:	deffd904 	addi	sp,sp,-156
    1374:	dfc02615 	stw	ra,152(sp)
    1378:	df002515 	stw	fp,148(sp)
    137c:	df002504 	addi	fp,sp,148
    1380:	e13ff915 	stw	r4,-28(fp)
    1384:	2811883a 	mov	r8,r5
    1388:	380b883a 	mov	r5,r7
    138c:	e1000217 	ldw	r4,8(fp)
    1390:	e0c00317 	ldw	r3,12(fp)
    1394:	e0800417 	ldw	r2,16(fp)
    1398:	e23ffa05 	stb	r8,-24(fp)
    139c:	e1bffb05 	stb	r6,-20(fp)
    13a0:	e17ffc05 	stb	r5,-16(fp)
    13a4:	e13ffd05 	stb	r4,-12(fp)
    13a8:	e0fffe05 	stb	r3,-8(fp)
    13ac:	e0bfff05 	stb	r2,-4(fp)

	unsigned char b[10][10];
	memcpy(b,tempBoard,100);
    13b0:	e0bfdf84 	addi	r2,fp,-130
    13b4:	01801904 	movi	r6,100
    13b8:	e17ff917 	ldw	r5,-28(fp)
    13bc:	1009883a 	mov	r4,r2
    13c0:	00058e80 	call	58e8 <memcpy>

	unsigned char possibleEnemyRow, possibleEnemyField, possibleNewRow, possibleNewField;

	for(signed char rowDirection = -1; rowDirection < 2; rowDirection = rowDirection + 2){
    13c4:	00bfffc4 	movi	r2,-1
    13c8:	e0bfde05 	stb	r2,-136(fp)
    13cc:	0000a106 	br	1654 <manCapture+0x2e4>

		for(signed char fieldDirection = -1; fieldDirection < 2; fieldDirection = fieldDirection + 2){
    13d0:	00bfffc4 	movi	r2,-1
    13d4:	e0bfde45 	stb	r2,-135(fp)
    13d8:	00009806 	br	163c <manCapture+0x2cc>

			possibleEnemyRow = row + rowDirection;
    13dc:	e0bfde03 	ldbu	r2,-136(fp)
    13e0:	e0fffa03 	ldbu	r3,-24(fp)
    13e4:	1885883a 	add	r2,r3,r2
    13e8:	e0bfde85 	stb	r2,-134(fp)
			possibleEnemyField = field + fieldDirection;
    13ec:	e0bfde43 	ldbu	r2,-135(fp)
    13f0:	e0fffb03 	ldbu	r3,-20(fp)
    13f4:	1885883a 	add	r2,r3,r2
    13f8:	e0bfdec5 	stb	r2,-133(fp)

			// Dont check the side for enemies you cant capture them there
			if(possibleEnemyRow > 0 && possibleEnemyRow < 9 && possibleEnemyField > 0 && possibleEnemyField < 9){
    13fc:	e0bfde83 	ldbu	r2,-134(fp)
    1400:	10008b26 	beq	r2,zero,1630 <manCapture+0x2c0>
    1404:	e0bfde83 	ldbu	r2,-134(fp)
    1408:	10800268 	cmpgeui	r2,r2,9
    140c:	1000881e 	bne	r2,zero,1630 <manCapture+0x2c0>
    1410:	e0bfdec3 	ldbu	r2,-133(fp)
    1414:	10008626 	beq	r2,zero,1630 <manCapture+0x2c0>
    1418:	e0bfdec3 	ldbu	r2,-133(fp)
    141c:	10800268 	cmpgeui	r2,r2,9
    1420:	1000831e 	bne	r2,zero,1630 <manCapture+0x2c0>
			//	printf("%s %d%c", "enemy in range?", board[possibleEnemyRow][possibleEnemyField] == enemy || board[possibleEnemyRow][possibleEnemyField] == enemyKing, '\n');
				if(b[possibleEnemyRow][possibleEnemyField] == enemy || b[possibleEnemyRow][possibleEnemyField] == enemyKing){
    1424:	e0ffde83 	ldbu	r3,-134(fp)
    1428:	e0bfdec3 	ldbu	r2,-133(fp)
    142c:	18c002a4 	muli	r3,r3,10
    1430:	e13fde04 	addi	r4,fp,-136
    1434:	20c7883a 	add	r3,r4,r3
    1438:	1885883a 	add	r2,r3,r2
    143c:	10800184 	addi	r2,r2,6
    1440:	10800003 	ldbu	r2,0(r2)
    1444:	10c03fcc 	andi	r3,r2,255
    1448:	e0bffe03 	ldbu	r2,-8(fp)
    144c:	18800b26 	beq	r3,r2,147c <manCapture+0x10c>
    1450:	e0ffde83 	ldbu	r3,-134(fp)
    1454:	e0bfdec3 	ldbu	r2,-133(fp)
    1458:	18c002a4 	muli	r3,r3,10
    145c:	e17fde04 	addi	r5,fp,-136
    1460:	28c7883a 	add	r3,r5,r3
    1464:	1885883a 	add	r2,r3,r2
    1468:	10800184 	addi	r2,r2,6
    146c:	10800003 	ldbu	r2,0(r2)
    1470:	10c03fcc 	andi	r3,r2,255
    1474:	e0bfff03 	ldbu	r2,-4(fp)
    1478:	18806d1e 	bne	r3,r2,1630 <manCapture+0x2c0>

				//	printf("%s %d%c%d%c", "beeb boob enemy detected at",  possibleEnemyRow, '.', possibleEnemyField, '\n');
					possibleNewRow = possibleEnemyRow + rowDirection;
    147c:	e0bfde03 	ldbu	r2,-136(fp)
    1480:	e0ffde83 	ldbu	r3,-134(fp)
    1484:	1885883a 	add	r2,r3,r2
    1488:	e0bfdf05 	stb	r2,-132(fp)
					possibleNewField = possibleEnemyField + fieldDirection;
    148c:	e0bfde43 	ldbu	r2,-135(fp)
    1490:	e0ffdec3 	ldbu	r3,-133(fp)
    1494:	1885883a 	add	r2,r3,r2
    1498:	e0bfdf45 	stb	r2,-131(fp)

					if(b[possibleNewRow][possibleNewField] == BLACK){
    149c:	e0ffdf03 	ldbu	r3,-132(fp)
    14a0:	e0bfdf43 	ldbu	r2,-131(fp)
    14a4:	18c002a4 	muli	r3,r3,10
    14a8:	e13fde04 	addi	r4,fp,-136
    14ac:	20c7883a 	add	r3,r4,r3
    14b0:	1885883a 	add	r2,r3,r2
    14b4:	10800184 	addi	r2,r2,6
    14b8:	10800003 	ldbu	r2,0(r2)
    14bc:	10803fcc 	andi	r2,r2,255
    14c0:	10800058 	cmpnei	r2,r2,1
    14c4:	10005a1e 	bne	r2,zero,1630 <manCapture+0x2c0>

					//	printf("charge!!!!!!!!!\n");
						b[possibleNewRow][possibleNewField] = board[row][field];
    14c8:	e17fdf03 	ldbu	r5,-132(fp)
    14cc:	e13fdf43 	ldbu	r4,-131(fp)
    14d0:	e1bffa03 	ldbu	r6,-24(fp)
    14d4:	e0fffb03 	ldbu	r3,-20(fp)
    14d8:	008000f4 	movhi	r2,3
    14dc:	10a51d04 	addi	r2,r2,-27532
    14e0:	318002a4 	muli	r6,r6,10
    14e4:	1185883a 	add	r2,r2,r6
    14e8:	10c5883a 	add	r2,r2,r3
    14ec:	10c00003 	ldbu	r3,0(r2)
    14f0:	288002a4 	muli	r2,r5,10
    14f4:	e17fde04 	addi	r5,fp,-136
    14f8:	2885883a 	add	r2,r5,r2
    14fc:	1105883a 	add	r2,r2,r4
    1500:	10800184 	addi	r2,r2,6
    1504:	10c00005 	stb	r3,0(r2)
						b[row][field] = BLACK;
    1508:	e0fffa03 	ldbu	r3,-24(fp)
    150c:	e0bffb03 	ldbu	r2,-20(fp)
    1510:	18c002a4 	muli	r3,r3,10
    1514:	e13fde04 	addi	r4,fp,-136
    1518:	20c7883a 	add	r3,r4,r3
    151c:	1885883a 	add	r2,r3,r2
    1520:	10800184 	addi	r2,r2,6
    1524:	00c00044 	movi	r3,1
    1528:	10c00005 	stb	r3,0(r2)
						b[possibleEnemyRow][possibleEnemyField] = BLACK;
    152c:	e0ffde83 	ldbu	r3,-134(fp)
    1530:	e0bfdec3 	ldbu	r2,-133(fp)
    1534:	18c002a4 	muli	r3,r3,10
    1538:	e17fde04 	addi	r5,fp,-136
    153c:	28c7883a 	add	r3,r5,r3
    1540:	1885883a 	add	r2,r3,r2
    1544:	10800184 	addi	r2,r2,6
    1548:	00c00044 	movi	r3,1
    154c:	10c00005 	stb	r3,0(r2)
						#if DEBUG
							printBoard((unsigned char **)b,possibleNewRow, possibleNewField, row, field);
    1550:	e13fdf03 	ldbu	r4,-132(fp)
    1554:	e17fdf43 	ldbu	r5,-131(fp)
    1558:	e1bffa03 	ldbu	r6,-24(fp)
    155c:	e0bffb03 	ldbu	r2,-20(fp)
    1560:	e0ffdf84 	addi	r3,fp,-130
    1564:	d8800015 	stw	r2,0(sp)
    1568:	300f883a 	mov	r7,r6
    156c:	280d883a 	mov	r6,r5
    1570:	200b883a 	mov	r5,r4
    1574:	1809883a 	mov	r4,r3
    1578:	00004bc0 	call	4bc <printBoard>
							printf("%s %d %s %d%c", "old row", row, "old field", field,'\n');
    157c:	e13ffa03 	ldbu	r4,-24(fp)
    1580:	e0bffb03 	ldbu	r2,-20(fp)
    1584:	00c00284 	movi	r3,10
    1588:	d8c00115 	stw	r3,4(sp)
    158c:	d8800015 	stw	r2,0(sp)
    1590:	01c000b4 	movhi	r7,2
    1594:	39d31804 	addi	r7,r7,19552
    1598:	200d883a 	mov	r6,r4
    159c:	014000b4 	movhi	r5,2
    15a0:	29531b04 	addi	r5,r5,19564
    15a4:	010000b4 	movhi	r4,2
    15a8:	21131d04 	addi	r4,r4,19572
    15ac:	0005b880 	call	5b88 <printf>
							printf("%s %d %s %d%c", "new row", possibleNewRow, "new field", possibleNewField,'\n');
    15b0:	e13fdf03 	ldbu	r4,-132(fp)
    15b4:	e0bfdf43 	ldbu	r2,-131(fp)
    15b8:	00c00284 	movi	r3,10
    15bc:	d8c00115 	stw	r3,4(sp)
    15c0:	d8800015 	stw	r2,0(sp)
    15c4:	01c000b4 	movhi	r7,2
    15c8:	39d32104 	addi	r7,r7,19588
    15cc:	200d883a 	mov	r6,r4
    15d0:	014000b4 	movhi	r5,2
    15d4:	29532404 	addi	r5,r5,19600
    15d8:	010000b4 	movhi	r4,2
    15dc:	21131d04 	addi	r4,r4,19572
    15e0:	0005b880 	call	5b88 <printf>
						#endif
						//printCountPieces();
						manCapture((unsigned char **)b, possibleNewRow, possibleNewField, friendly, friendlyKing, enemy, enemyKing);
    15e4:	e17fdf03 	ldbu	r5,-132(fp)
    15e8:	e1bfdf43 	ldbu	r6,-131(fp)
    15ec:	e1fffc03 	ldbu	r7,-16(fp)
    15f0:	e0bffd03 	ldbu	r2,-12(fp)
    15f4:	e0fffe03 	ldbu	r3,-8(fp)
    15f8:	e13fff03 	ldbu	r4,-4(fp)
    15fc:	e23fdf84 	addi	r8,fp,-130
    1600:	d9000215 	stw	r4,8(sp)
    1604:	d8c00115 	stw	r3,4(sp)
    1608:	d8800015 	stw	r2,0(sp)
    160c:	4009883a 	mov	r4,r8
    1610:	00013700 	call	1370 <manCapture>
						memcpy(tempBoard,b,100);
    1614:	e0bfdf84 	addi	r2,fp,-130
    1618:	01801904 	movi	r6,100
    161c:	100b883a 	mov	r5,r2
    1620:	e13ff917 	ldw	r4,-28(fp)
    1624:	00058e80 	call	58e8 <memcpy>
						return 1;
    1628:	00800044 	movi	r2,1
    162c:	00000d06 	br	1664 <manCapture+0x2f4>

	unsigned char possibleEnemyRow, possibleEnemyField, possibleNewRow, possibleNewField;

	for(signed char rowDirection = -1; rowDirection < 2; rowDirection = rowDirection + 2){

		for(signed char fieldDirection = -1; fieldDirection < 2; fieldDirection = fieldDirection + 2){
    1630:	e0bfde43 	ldbu	r2,-135(fp)
    1634:	10800084 	addi	r2,r2,2
    1638:	e0bfde45 	stb	r2,-135(fp)
    163c:	e0bfde47 	ldb	r2,-135(fp)
    1640:	10800090 	cmplti	r2,r2,2
    1644:	103f651e 	bne	r2,zero,13dc <__alt_data_end+0xfc0013dc>
	unsigned char b[10][10];
	memcpy(b,tempBoard,100);

	unsigned char possibleEnemyRow, possibleEnemyField, possibleNewRow, possibleNewField;

	for(signed char rowDirection = -1; rowDirection < 2; rowDirection = rowDirection + 2){
    1648:	e0bfde03 	ldbu	r2,-136(fp)
    164c:	10800084 	addi	r2,r2,2
    1650:	e0bfde05 	stb	r2,-136(fp)
    1654:	e0bfde07 	ldb	r2,-136(fp)
    1658:	10800090 	cmplti	r2,r2,2
    165c:	103f5c1e 	bne	r2,zero,13d0 <__alt_data_end+0xfc0013d0>
					}
				}
			}
		}
	}
	return 0;
    1660:	0005883a 	mov	r2,zero
}
    1664:	e037883a 	mov	sp,fp
    1668:	dfc00117 	ldw	ra,4(sp)
    166c:	df000017 	ldw	fp,0(sp)
    1670:	dec00204 	addi	sp,sp,8
    1674:	f800283a 	ret

00001678 <manMove>:

unsigned char manMove(unsigned char * tempBoard[], unsigned char row, unsigned field, unsigned char friendly, unsigned char friendlyKing, unsigned char enemy, unsigned char enemyKing, signed direction){
    1678:	defff504 	addi	sp,sp,-44
    167c:	dfc00a15 	stw	ra,40(sp)
    1680:	df000915 	stw	fp,36(sp)
    1684:	df000904 	addi	fp,sp,36
    1688:	e13ff915 	stw	r4,-28(fp)
    168c:	2811883a 	mov	r8,r5
    1690:	e1bffb15 	stw	r6,-20(fp)
    1694:	380b883a 	mov	r5,r7
    1698:	e1000217 	ldw	r4,8(fp)
    169c:	e0c00317 	ldw	r3,12(fp)
    16a0:	e0800417 	ldw	r2,16(fp)
    16a4:	e23ffa05 	stb	r8,-24(fp)
    16a8:	e17ffc05 	stb	r5,-16(fp)
    16ac:	e13ffd05 	stb	r4,-12(fp)
    16b0:	e0fffe05 	stb	r3,-8(fp)
    16b4:	e0bfff05 	stb	r2,-4(fp)
	signed char possibleNewField;
	signed char possibleNewRow = row + direction;
    16b8:	e0800517 	ldw	r2,20(fp)
    16bc:	1007883a 	mov	r3,r2
    16c0:	e0bffa03 	ldbu	r2,-24(fp)
    16c4:	1885883a 	add	r2,r3,r2
    16c8:	e0bff845 	stb	r2,-31(fp)

	if(possibleNewRow > -1 && possibleNewRow < 10){
    16cc:	e0bff847 	ldb	r2,-31(fp)
    16d0:	10004f16 	blt	r2,zero,1810 <manMove+0x198>
    16d4:	e0bff847 	ldb	r2,-31(fp)
    16d8:	10800288 	cmpgei	r2,r2,10
    16dc:	10004c1e 	bne	r2,zero,1810 <manMove+0x198>
		for(signed char fieldDirection = -1; fieldDirection < 2; fieldDirection = fieldDirection + 2){
    16e0:	00bfffc4 	movi	r2,-1
    16e4:	e0bff805 	stb	r2,-32(fp)
    16e8:	00004606 	br	1804 <manMove+0x18c>
			possibleNewField = field + fieldDirection;
    16ec:	e0bffb17 	ldw	r2,-20(fp)
    16f0:	1007883a 	mov	r3,r2
    16f4:	e0bff803 	ldbu	r2,-32(fp)
    16f8:	1885883a 	add	r2,r3,r2
    16fc:	e0bff885 	stb	r2,-30(fp)

			if(possibleNewField > -1 && possibleNewField < 10 && board[possibleNewRow][possibleNewField] == BLACK){
    1700:	e0bff887 	ldb	r2,-30(fp)
    1704:	10003c16 	blt	r2,zero,17f8 <manMove+0x180>
    1708:	e0bff887 	ldb	r2,-30(fp)
    170c:	10800288 	cmpgei	r2,r2,10
    1710:	1000391e 	bne	r2,zero,17f8 <manMove+0x180>
    1714:	e13ff847 	ldb	r4,-31(fp)
    1718:	e0fff887 	ldb	r3,-30(fp)
    171c:	008000f4 	movhi	r2,3
    1720:	10a51d04 	addi	r2,r2,-27532
    1724:	210002a4 	muli	r4,r4,10
    1728:	1105883a 	add	r2,r2,r4
    172c:	10c5883a 	add	r2,r2,r3
    1730:	10800003 	ldbu	r2,0(r2)
    1734:	10803fcc 	andi	r2,r2,255
    1738:	10800058 	cmpnei	r2,r2,1
    173c:	10002e1e 	bne	r2,zero,17f8 <manMove+0x180>
				tempBoard[possibleNewRow][possibleNewField] = tempBoard[row][field];
    1740:	e0bff847 	ldb	r2,-31(fp)
    1744:	1085883a 	add	r2,r2,r2
    1748:	1085883a 	add	r2,r2,r2
    174c:	1007883a 	mov	r3,r2
    1750:	e0bff917 	ldw	r2,-28(fp)
    1754:	10c5883a 	add	r2,r2,r3
    1758:	10c00017 	ldw	r3,0(r2)
    175c:	e0bff887 	ldb	r2,-30(fp)
    1760:	1887883a 	add	r3,r3,r2
    1764:	e0bffa03 	ldbu	r2,-24(fp)
    1768:	1085883a 	add	r2,r2,r2
    176c:	1085883a 	add	r2,r2,r2
    1770:	1009883a 	mov	r4,r2
    1774:	e0bff917 	ldw	r2,-28(fp)
    1778:	1105883a 	add	r2,r2,r4
    177c:	11000017 	ldw	r4,0(r2)
    1780:	e0bffb17 	ldw	r2,-20(fp)
    1784:	2085883a 	add	r2,r4,r2
    1788:	10800003 	ldbu	r2,0(r2)
    178c:	18800005 	stb	r2,0(r3)
				tempBoard[row][field] = BLACK;
    1790:	e0bffa03 	ldbu	r2,-24(fp)
    1794:	1085883a 	add	r2,r2,r2
    1798:	1085883a 	add	r2,r2,r2
    179c:	1007883a 	mov	r3,r2
    17a0:	e0bff917 	ldw	r2,-28(fp)
    17a4:	10c5883a 	add	r2,r2,r3
    17a8:	10c00017 	ldw	r3,0(r2)
    17ac:	e0bffb17 	ldw	r2,-20(fp)
    17b0:	1885883a 	add	r2,r3,r2
    17b4:	00c00044 	movi	r3,1
    17b8:	10c00005 	stb	r3,0(r2)
				#if DEBUG
					printBoard((unsigned char **)tempBoard,possibleNewRow, possibleNewField, row, field);
    17bc:	e0bff843 	ldbu	r2,-31(fp)
    17c0:	10c03fcc 	andi	r3,r2,255
    17c4:	e0bff883 	ldbu	r2,-30(fp)
    17c8:	11003fcc 	andi	r4,r2,255
    17cc:	e17ffa03 	ldbu	r5,-24(fp)
    17d0:	e0bffb17 	ldw	r2,-20(fp)
    17d4:	10803fcc 	andi	r2,r2,255
    17d8:	d8800015 	stw	r2,0(sp)
    17dc:	280f883a 	mov	r7,r5
    17e0:	200d883a 	mov	r6,r4
    17e4:	180b883a 	mov	r5,r3
    17e8:	e13ff917 	ldw	r4,-28(fp)
    17ec:	00004bc0 	call	4bc <printBoard>
				#endif
				return 1;
    17f0:	00800044 	movi	r2,1
    17f4:	00000706 	br	1814 <manMove+0x19c>
unsigned char manMove(unsigned char * tempBoard[], unsigned char row, unsigned field, unsigned char friendly, unsigned char friendlyKing, unsigned char enemy, unsigned char enemyKing, signed direction){
	signed char possibleNewField;
	signed char possibleNewRow = row + direction;

	if(possibleNewRow > -1 && possibleNewRow < 10){
		for(signed char fieldDirection = -1; fieldDirection < 2; fieldDirection = fieldDirection + 2){
    17f8:	e0bff803 	ldbu	r2,-32(fp)
    17fc:	10800084 	addi	r2,r2,2
    1800:	e0bff805 	stb	r2,-32(fp)
    1804:	e0bff807 	ldb	r2,-32(fp)
    1808:	10800090 	cmplti	r2,r2,2
    180c:	103fb71e 	bne	r2,zero,16ec <__alt_data_end+0xfc0016ec>
				#endif
				return 1;
			}
		}
	}
	return 0;
    1810:	0005883a 	mov	r2,zero
}
    1814:	e037883a 	mov	sp,fp
    1818:	dfc00117 	ldw	ra,4(sp)
    181c:	df000017 	ldw	fp,0(sp)
    1820:	dec00204 	addi	sp,sp,8
    1824:	f800283a 	ret

00001828 <checkIfCanMove>:

int checkIfCanMove(unsigned char * tempBoard[], int row, int field, int dir, unsigned char friendly, unsigned char friendlyKing, unsigned char enemy, unsigned char enemyKing, signed direction){
    1828:	deffdb04 	addi	sp,sp,-148
    182c:	dfc02415 	stw	ra,144(sp)
    1830:	df002315 	stw	fp,140(sp)
    1834:	df002304 	addi	fp,sp,140
    1838:	e13ff815 	stw	r4,-32(fp)
    183c:	e17ff915 	stw	r5,-28(fp)
    1840:	e1bffa15 	stw	r6,-24(fp)
    1844:	e1fffb15 	stw	r7,-20(fp)
    1848:	e1400217 	ldw	r5,8(fp)
    184c:	e1000317 	ldw	r4,12(fp)
    1850:	e0c00417 	ldw	r3,16(fp)
    1854:	e0800517 	ldw	r2,20(fp)
    1858:	e17ffc05 	stb	r5,-16(fp)
    185c:	e13ffd05 	stb	r4,-12(fp)
    1860:	e0fffe05 	stb	r3,-8(fp)
    1864:	e0bfff05 	stb	r2,-4(fp)

	int retVal = 0;
    1868:	e03fdd15 	stw	zero,-140(fp)

	unsigned char b[10][10];
	memcpy(b,tempBoard,100);
    186c:	e0bfdf04 	addi	r2,fp,-132
    1870:	01801904 	movi	r6,100
    1874:	e17ff817 	ldw	r5,-32(fp)
    1878:	1009883a 	mov	r4,r2
    187c:	00058e80 	call	58e8 <memcpy>

	int stone = b[row][field];
    1880:	e0bff917 	ldw	r2,-28(fp)
    1884:	108002a4 	muli	r2,r2,10
    1888:	e13fdd04 	addi	r4,fp,-140
    188c:	2087883a 	add	r3,r4,r2
    1890:	e0bffa17 	ldw	r2,-24(fp)
    1894:	1885883a 	add	r2,r3,r2
    1898:	10800204 	addi	r2,r2,8
    189c:	10800003 	ldbu	r2,0(r2)
    18a0:	10803fcc 	andi	r2,r2,255
    18a4:	e0bfde15 	stw	r2,-136(fp)

	if(stone == FRIENDLY || stone == ENEMY)
    18a8:	e0bfde17 	ldw	r2,-136(fp)
    18ac:	108000a0 	cmpeqi	r2,r2,2
    18b0:	1000031e 	bne	r2,zero,18c0 <checkIfCanMove+0x98>
    18b4:	e0bfde17 	ldw	r2,-136(fp)
    18b8:	10800118 	cmpnei	r2,r2,4
    18bc:	10005a1e 	bne	r2,zero,1a28 <checkIfCanMove+0x200>
	{
		if(direction == FRIENDLYDIRECTION)
    18c0:	e0800617 	ldw	r2,24(fp)
    18c4:	10bfffd8 	cmpnei	r2,r2,-1
    18c8:	10002a1e 	bne	r2,zero,1974 <checkIfCanMove+0x14c>
		{
			if(dir == 1)
    18cc:	e0bffb17 	ldw	r2,-20(fp)
    18d0:	10800058 	cmpnei	r2,r2,1
    18d4:	1000121e 	bne	r2,zero,1920 <checkIfCanMove+0xf8>
			{
				if(b[row-1][field-1] == BLACK) retVal = 1;
    18d8:	e0bff917 	ldw	r2,-28(fp)
    18dc:	10ffffc4 	addi	r3,r2,-1
    18e0:	e0bffa17 	ldw	r2,-24(fp)
    18e4:	10bfffc4 	addi	r2,r2,-1
    18e8:	18c002a4 	muli	r3,r3,10
    18ec:	e13fdd04 	addi	r4,fp,-140
    18f0:	20c7883a 	add	r3,r4,r3
    18f4:	1885883a 	add	r2,r3,r2
    18f8:	10800204 	addi	r2,r2,8
    18fc:	10800003 	ldbu	r2,0(r2)
    1900:	10803fcc 	andi	r2,r2,255
    1904:	10800058 	cmpnei	r2,r2,1
    1908:	1000031e 	bne	r2,zero,1918 <checkIfCanMove+0xf0>
    190c:	00800044 	movi	r2,1
    1910:	e0bfdd15 	stw	r2,-140(fp)

	int stone = b[row][field];

	if(stone == FRIENDLY || stone == ENEMY)
	{
		if(direction == FRIENDLYDIRECTION)
    1914:	00009706 	br	1b74 <checkIfCanMove+0x34c>
		{
			if(dir == 1)
			{
				if(b[row-1][field-1] == BLACK) retVal = 1;
				else retVal = 0;
    1918:	e03fdd15 	stw	zero,-140(fp)

	int stone = b[row][field];

	if(stone == FRIENDLY || stone == ENEMY)
	{
		if(direction == FRIENDLYDIRECTION)
    191c:	00009506 	br	1b74 <checkIfCanMove+0x34c>
			if(dir == 1)
			{
				if(b[row-1][field-1] == BLACK) retVal = 1;
				else retVal = 0;
			}
			else if(dir == 2)
    1920:	e0bffb17 	ldw	r2,-20(fp)
    1924:	10800098 	cmpnei	r2,r2,2
    1928:	1000921e 	bne	r2,zero,1b74 <checkIfCanMove+0x34c>
			{
				if(b[row-1][field+1] == BLACK) retVal = 1;
    192c:	e0bff917 	ldw	r2,-28(fp)
    1930:	10ffffc4 	addi	r3,r2,-1
    1934:	e0bffa17 	ldw	r2,-24(fp)
    1938:	10800044 	addi	r2,r2,1
    193c:	18c002a4 	muli	r3,r3,10
    1940:	e13fdd04 	addi	r4,fp,-140
    1944:	20c7883a 	add	r3,r4,r3
    1948:	1885883a 	add	r2,r3,r2
    194c:	10800204 	addi	r2,r2,8
    1950:	10800003 	ldbu	r2,0(r2)
    1954:	10803fcc 	andi	r2,r2,255
    1958:	10800058 	cmpnei	r2,r2,1
    195c:	1000031e 	bne	r2,zero,196c <checkIfCanMove+0x144>
    1960:	00800044 	movi	r2,1
    1964:	e0bfdd15 	stw	r2,-140(fp)

	int stone = b[row][field];

	if(stone == FRIENDLY || stone == ENEMY)
	{
		if(direction == FRIENDLYDIRECTION)
    1968:	00008206 	br	1b74 <checkIfCanMove+0x34c>
				else retVal = 0;
			}
			else if(dir == 2)
			{
				if(b[row-1][field+1] == BLACK) retVal = 1;
				else retVal = 0;
    196c:	e03fdd15 	stw	zero,-140(fp)

	int stone = b[row][field];

	if(stone == FRIENDLY || stone == ENEMY)
	{
		if(direction == FRIENDLYDIRECTION)
    1970:	00008006 	br	1b74 <checkIfCanMove+0x34c>
			{
				if(b[row-1][field+1] == BLACK) retVal = 1;
				else retVal = 0;
			}
		}
		else if(direction == ENEMYDIRECTION)
    1974:	e0800617 	ldw	r2,24(fp)
    1978:	10800058 	cmpnei	r2,r2,1
    197c:	10007d1e 	bne	r2,zero,1b74 <checkIfCanMove+0x34c>
		{
			if(dir == 3)
    1980:	e0bffb17 	ldw	r2,-20(fp)
    1984:	108000d8 	cmpnei	r2,r2,3
    1988:	1000121e 	bne	r2,zero,19d4 <checkIfCanMove+0x1ac>
			{
				if(b[row+1][field-1] == BLACK) retVal = 1;
    198c:	e0bff917 	ldw	r2,-28(fp)
    1990:	10c00044 	addi	r3,r2,1
    1994:	e0bffa17 	ldw	r2,-24(fp)
    1998:	10bfffc4 	addi	r2,r2,-1
    199c:	18c002a4 	muli	r3,r3,10
    19a0:	e13fdd04 	addi	r4,fp,-140
    19a4:	20c7883a 	add	r3,r4,r3
    19a8:	1885883a 	add	r2,r3,r2
    19ac:	10800204 	addi	r2,r2,8
    19b0:	10800003 	ldbu	r2,0(r2)
    19b4:	10803fcc 	andi	r2,r2,255
    19b8:	10800058 	cmpnei	r2,r2,1
    19bc:	1000031e 	bne	r2,zero,19cc <checkIfCanMove+0x1a4>
    19c0:	00800044 	movi	r2,1
    19c4:	e0bfdd15 	stw	r2,-140(fp)

	int stone = b[row][field];

	if(stone == FRIENDLY || stone == ENEMY)
	{
		if(direction == FRIENDLYDIRECTION)
    19c8:	00006a06 	br	1b74 <checkIfCanMove+0x34c>
		else if(direction == ENEMYDIRECTION)
		{
			if(dir == 3)
			{
				if(b[row+1][field-1] == BLACK) retVal = 1;
				else retVal = 0;
    19cc:	e03fdd15 	stw	zero,-140(fp)

	int stone = b[row][field];

	if(stone == FRIENDLY || stone == ENEMY)
	{
		if(direction == FRIENDLYDIRECTION)
    19d0:	00006806 	br	1b74 <checkIfCanMove+0x34c>
			if(dir == 3)
			{
				if(b[row+1][field-1] == BLACK) retVal = 1;
				else retVal = 0;
			}
			else if(dir == 4)
    19d4:	e0bffb17 	ldw	r2,-20(fp)
    19d8:	10800118 	cmpnei	r2,r2,4
    19dc:	1000651e 	bne	r2,zero,1b74 <checkIfCanMove+0x34c>
			{
				if(b[row+1][field+1] == BLACK) retVal = 1;
    19e0:	e0bff917 	ldw	r2,-28(fp)
    19e4:	10c00044 	addi	r3,r2,1
    19e8:	e0bffa17 	ldw	r2,-24(fp)
    19ec:	10800044 	addi	r2,r2,1
    19f0:	18c002a4 	muli	r3,r3,10
    19f4:	e13fdd04 	addi	r4,fp,-140
    19f8:	20c7883a 	add	r3,r4,r3
    19fc:	1885883a 	add	r2,r3,r2
    1a00:	10800204 	addi	r2,r2,8
    1a04:	10800003 	ldbu	r2,0(r2)
    1a08:	10803fcc 	andi	r2,r2,255
    1a0c:	10800058 	cmpnei	r2,r2,1
    1a10:	1000031e 	bne	r2,zero,1a20 <checkIfCanMove+0x1f8>
    1a14:	00800044 	movi	r2,1
    1a18:	e0bfdd15 	stw	r2,-140(fp)

	int stone = b[row][field];

	if(stone == FRIENDLY || stone == ENEMY)
	{
		if(direction == FRIENDLYDIRECTION)
    1a1c:	00005506 	br	1b74 <checkIfCanMove+0x34c>
				else retVal = 0;
			}
			else if(dir == 4)
			{
				if(b[row+1][field+1] == BLACK) retVal = 1;
				else retVal = 0;
    1a20:	e03fdd15 	stw	zero,-140(fp)

	int stone = b[row][field];

	if(stone == FRIENDLY || stone == ENEMY)
	{
		if(direction == FRIENDLYDIRECTION)
    1a24:	00005306 	br	1b74 <checkIfCanMove+0x34c>
				if(b[row+1][field+1] == BLACK) retVal = 1;
				else retVal = 0;
			}
		}
	}
	else if(stone == FRIENDLYKING || stone == ENEMYKING)
    1a28:	e0bfde17 	ldw	r2,-136(fp)
    1a2c:	108000e0 	cmpeqi	r2,r2,3
    1a30:	1000031e 	bne	r2,zero,1a40 <checkIfCanMove+0x218>
    1a34:	e0bfde17 	ldw	r2,-136(fp)
    1a38:	10800158 	cmpnei	r2,r2,5
    1a3c:	1000561e 	bne	r2,zero,1b98 <checkIfCanMove+0x370>
	{
		switch(dir)
    1a40:	e0bffb17 	ldw	r2,-20(fp)
    1a44:	10c000a0 	cmpeqi	r3,r2,2
    1a48:	18001a1e 	bne	r3,zero,1ab4 <checkIfCanMove+0x28c>
    1a4c:	10c000c8 	cmpgei	r3,r2,3
    1a50:	1800031e 	bne	r3,zero,1a60 <checkIfCanMove+0x238>
    1a54:	10800060 	cmpeqi	r2,r2,1
    1a58:	1000061e 	bne	r2,zero,1a74 <checkIfCanMove+0x24c>
    1a5c:	00004e06 	br	1b98 <checkIfCanMove+0x370>
    1a60:	10c000e0 	cmpeqi	r3,r2,3
    1a64:	1800231e 	bne	r3,zero,1af4 <checkIfCanMove+0x2cc>
    1a68:	10800120 	cmpeqi	r2,r2,4
    1a6c:	1000311e 	bne	r2,zero,1b34 <checkIfCanMove+0x30c>
    1a70:	00004906 	br	1b98 <checkIfCanMove+0x370>
		{
			case 1:
				if(b[row-1][field-1] == BLACK) retVal = 1;
    1a74:	e0bff917 	ldw	r2,-28(fp)
    1a78:	10ffffc4 	addi	r3,r2,-1
    1a7c:	e0bffa17 	ldw	r2,-24(fp)
    1a80:	10bfffc4 	addi	r2,r2,-1
    1a84:	18c002a4 	muli	r3,r3,10
    1a88:	e13fdd04 	addi	r4,fp,-140
    1a8c:	20c7883a 	add	r3,r4,r3
    1a90:	1885883a 	add	r2,r3,r2
    1a94:	10800204 	addi	r2,r2,8
    1a98:	10800003 	ldbu	r2,0(r2)
    1a9c:	10803fcc 	andi	r2,r2,255
    1aa0:	10800058 	cmpnei	r2,r2,1
    1aa4:	1000351e 	bne	r2,zero,1b7c <checkIfCanMove+0x354>
    1aa8:	00800044 	movi	r2,1
    1aac:	e0bfdd15 	stw	r2,-140(fp)
				break;
    1ab0:	00003206 	br	1b7c <checkIfCanMove+0x354>
			case 2:
				if(b[row-1][field+1] == BLACK) retVal = 1;
    1ab4:	e0bff917 	ldw	r2,-28(fp)
    1ab8:	10ffffc4 	addi	r3,r2,-1
    1abc:	e0bffa17 	ldw	r2,-24(fp)
    1ac0:	10800044 	addi	r2,r2,1
    1ac4:	18c002a4 	muli	r3,r3,10
    1ac8:	e13fdd04 	addi	r4,fp,-140
    1acc:	20c7883a 	add	r3,r4,r3
    1ad0:	1885883a 	add	r2,r3,r2
    1ad4:	10800204 	addi	r2,r2,8
    1ad8:	10800003 	ldbu	r2,0(r2)
    1adc:	10803fcc 	andi	r2,r2,255
    1ae0:	10800058 	cmpnei	r2,r2,1
    1ae4:	1000271e 	bne	r2,zero,1b84 <checkIfCanMove+0x35c>
    1ae8:	00800044 	movi	r2,1
    1aec:	e0bfdd15 	stw	r2,-140(fp)
				break;
    1af0:	00002406 	br	1b84 <checkIfCanMove+0x35c>
			case 3:
				if(b[row+1][field-1] == BLACK) retVal = 1;
    1af4:	e0bff917 	ldw	r2,-28(fp)
    1af8:	10c00044 	addi	r3,r2,1
    1afc:	e0bffa17 	ldw	r2,-24(fp)
    1b00:	10bfffc4 	addi	r2,r2,-1
    1b04:	18c002a4 	muli	r3,r3,10
    1b08:	e13fdd04 	addi	r4,fp,-140
    1b0c:	20c7883a 	add	r3,r4,r3
    1b10:	1885883a 	add	r2,r3,r2
    1b14:	10800204 	addi	r2,r2,8
    1b18:	10800003 	ldbu	r2,0(r2)
    1b1c:	10803fcc 	andi	r2,r2,255
    1b20:	10800058 	cmpnei	r2,r2,1
    1b24:	1000191e 	bne	r2,zero,1b8c <checkIfCanMove+0x364>
    1b28:	00800044 	movi	r2,1
    1b2c:	e0bfdd15 	stw	r2,-140(fp)
				break;
    1b30:	00001606 	br	1b8c <checkIfCanMove+0x364>
			case 4:
				if(b[row+1][field+1] == BLACK) retVal = 1;
    1b34:	e0bff917 	ldw	r2,-28(fp)
    1b38:	10c00044 	addi	r3,r2,1
    1b3c:	e0bffa17 	ldw	r2,-24(fp)
    1b40:	10800044 	addi	r2,r2,1
    1b44:	18c002a4 	muli	r3,r3,10
    1b48:	e13fdd04 	addi	r4,fp,-140
    1b4c:	20c7883a 	add	r3,r4,r3
    1b50:	1885883a 	add	r2,r3,r2
    1b54:	10800204 	addi	r2,r2,8
    1b58:	10800003 	ldbu	r2,0(r2)
    1b5c:	10803fcc 	andi	r2,r2,255
    1b60:	10800058 	cmpnei	r2,r2,1
    1b64:	10000b1e 	bne	r2,zero,1b94 <checkIfCanMove+0x36c>
    1b68:	00800044 	movi	r2,1
    1b6c:	e0bfdd15 	stw	r2,-140(fp)
				break;
    1b70:	00000806 	br	1b94 <checkIfCanMove+0x36c>

	int stone = b[row][field];

	if(stone == FRIENDLY || stone == ENEMY)
	{
		if(direction == FRIENDLYDIRECTION)
    1b74:	0001883a 	nop
    1b78:	00000706 	br	1b98 <checkIfCanMove+0x370>
	{
		switch(dir)
		{
			case 1:
				if(b[row-1][field-1] == BLACK) retVal = 1;
				break;
    1b7c:	0001883a 	nop
    1b80:	00000506 	br	1b98 <checkIfCanMove+0x370>
			case 2:
				if(b[row-1][field+1] == BLACK) retVal = 1;
				break;
    1b84:	0001883a 	nop
    1b88:	00000306 	br	1b98 <checkIfCanMove+0x370>
			case 3:
				if(b[row+1][field-1] == BLACK) retVal = 1;
				break;
    1b8c:	0001883a 	nop
    1b90:	00000106 	br	1b98 <checkIfCanMove+0x370>
			case 4:
				if(b[row+1][field+1] == BLACK) retVal = 1;
				break;
    1b94:	0001883a 	nop
		}
	}

	return retVal;
    1b98:	e0bfdd17 	ldw	r2,-140(fp)
}
    1b9c:	e037883a 	mov	sp,fp
    1ba0:	dfc00117 	ldw	ra,4(sp)
    1ba4:	df000017 	ldw	fp,0(sp)
    1ba8:	dec00204 	addi	sp,sp,8
    1bac:	f800283a 	ret

00001bb0 <capture>:

//TODO: make this obsolete, replace with manCapture
int capture(int row,int field,int king){
    1bb0:	defffa04 	addi	sp,sp,-24
    1bb4:	dfc00515 	stw	ra,20(sp)
    1bb8:	df000415 	stw	fp,16(sp)
    1bbc:	df000404 	addi	fp,sp,16
    1bc0:	e13ffd15 	stw	r4,-12(fp)
    1bc4:	e17ffe15 	stw	r5,-8(fp)
    1bc8:	e1bfff15 	stw	r6,-4(fp)

	if((board[row-1][field-1] == ENEMY || board[row-1][field-1] == ENEMYKING)
    1bcc:	e0bffd17 	ldw	r2,-12(fp)
    1bd0:	113fffc4 	addi	r4,r2,-1
    1bd4:	e0bffe17 	ldw	r2,-8(fp)
    1bd8:	10ffffc4 	addi	r3,r2,-1
    1bdc:	008000f4 	movhi	r2,3
    1be0:	10a51d04 	addi	r2,r2,-27532
    1be4:	210002a4 	muli	r4,r4,10
    1be8:	1105883a 	add	r2,r2,r4
    1bec:	10c5883a 	add	r2,r2,r3
    1bf0:	10800003 	ldbu	r2,0(r2)
    1bf4:	10803fcc 	andi	r2,r2,255
    1bf8:	10800120 	cmpeqi	r2,r2,4
    1bfc:	10000d1e 	bne	r2,zero,1c34 <capture+0x84>
    1c00:	e0bffd17 	ldw	r2,-12(fp)
    1c04:	113fffc4 	addi	r4,r2,-1
    1c08:	e0bffe17 	ldw	r2,-8(fp)
    1c0c:	10ffffc4 	addi	r3,r2,-1
    1c10:	008000f4 	movhi	r2,3
    1c14:	10a51d04 	addi	r2,r2,-27532
    1c18:	210002a4 	muli	r4,r4,10
    1c1c:	1105883a 	add	r2,r2,r4
    1c20:	10c5883a 	add	r2,r2,r3
    1c24:	10800003 	ldbu	r2,0(r2)
    1c28:	10803fcc 	andi	r2,r2,255
    1c2c:	10800158 	cmpnei	r2,r2,5
    1c30:	1000531e 	bne	r2,zero,1d80 <capture+0x1d0>
	&&
	(board[row-2][field-2] == BLACK || board[row-2][field-2] == BLACK)){
    1c34:	e0bffd17 	ldw	r2,-12(fp)
    1c38:	113fff84 	addi	r4,r2,-2
    1c3c:	e0bffe17 	ldw	r2,-8(fp)
    1c40:	10ffff84 	addi	r3,r2,-2
    1c44:	008000f4 	movhi	r2,3
    1c48:	10a51d04 	addi	r2,r2,-27532
    1c4c:	210002a4 	muli	r4,r4,10
    1c50:	1105883a 	add	r2,r2,r4
    1c54:	10c5883a 	add	r2,r2,r3
    1c58:	10800003 	ldbu	r2,0(r2)

//TODO: make this obsolete, replace with manCapture
int capture(int row,int field,int king){

	if((board[row-1][field-1] == ENEMY || board[row-1][field-1] == ENEMYKING)
	&&
    1c5c:	10803fcc 	andi	r2,r2,255
    1c60:	10800060 	cmpeqi	r2,r2,1
    1c64:	10000d1e 	bne	r2,zero,1c9c <capture+0xec>
	(board[row-2][field-2] == BLACK || board[row-2][field-2] == BLACK)){
    1c68:	e0bffd17 	ldw	r2,-12(fp)
    1c6c:	113fff84 	addi	r4,r2,-2
    1c70:	e0bffe17 	ldw	r2,-8(fp)
    1c74:	10ffff84 	addi	r3,r2,-2
    1c78:	008000f4 	movhi	r2,3
    1c7c:	10a51d04 	addi	r2,r2,-27532
    1c80:	210002a4 	muli	r4,r4,10
    1c84:	1105883a 	add	r2,r2,r4
    1c88:	10c5883a 	add	r2,r2,r3
    1c8c:	10800003 	ldbu	r2,0(r2)
    1c90:	10803fcc 	andi	r2,r2,255
    1c94:	10800058 	cmpnei	r2,r2,1
    1c98:	1000391e 	bne	r2,zero,1d80 <capture+0x1d0>

		board[row-2][field-2] = board[row][field];
    1c9c:	e0bffd17 	ldw	r2,-12(fp)
    1ca0:	117fff84 	addi	r5,r2,-2
    1ca4:	e0bffe17 	ldw	r2,-8(fp)
    1ca8:	113fff84 	addi	r4,r2,-2
    1cac:	008000f4 	movhi	r2,3
    1cb0:	10a51d04 	addi	r2,r2,-27532
    1cb4:	e0fffd17 	ldw	r3,-12(fp)
    1cb8:	18c002a4 	muli	r3,r3,10
    1cbc:	10c7883a 	add	r3,r2,r3
    1cc0:	e0bffe17 	ldw	r2,-8(fp)
    1cc4:	1885883a 	add	r2,r3,r2
    1cc8:	10c00003 	ldbu	r3,0(r2)
    1ccc:	008000f4 	movhi	r2,3
    1cd0:	10a51d04 	addi	r2,r2,-27532
    1cd4:	294002a4 	muli	r5,r5,10
    1cd8:	1145883a 	add	r2,r2,r5
    1cdc:	1105883a 	add	r2,r2,r4
    1ce0:	10c00005 	stb	r3,0(r2)
		board[row-1][field-1] = BLACK;
    1ce4:	e0bffd17 	ldw	r2,-12(fp)
    1ce8:	113fffc4 	addi	r4,r2,-1
    1cec:	e0bffe17 	ldw	r2,-8(fp)
    1cf0:	10ffffc4 	addi	r3,r2,-1
    1cf4:	008000f4 	movhi	r2,3
    1cf8:	10a51d04 	addi	r2,r2,-27532
    1cfc:	210002a4 	muli	r4,r4,10
    1d00:	1105883a 	add	r2,r2,r4
    1d04:	10c5883a 	add	r2,r2,r3
    1d08:	00c00044 	movi	r3,1
    1d0c:	10c00005 	stb	r3,0(r2)
		board[row][field] = BLACK;
    1d10:	008000f4 	movhi	r2,3
    1d14:	10a51d04 	addi	r2,r2,-27532
    1d18:	e0fffd17 	ldw	r3,-12(fp)
    1d1c:	18c002a4 	muli	r3,r3,10
    1d20:	10c7883a 	add	r3,r2,r3
    1d24:	e0bffe17 	ldw	r2,-8(fp)
    1d28:	1885883a 	add	r2,r3,r2
    1d2c:	00c00044 	movi	r3,1
    1d30:	10c00005 	stb	r3,0(r2)
		#if DEBUG
			printBoard((unsigned char **)board,row-2,field-2,row,field);
    1d34:	e0bffd17 	ldw	r2,-12(fp)
    1d38:	10bfff84 	addi	r2,r2,-2
    1d3c:	10c03fcc 	andi	r3,r2,255
    1d40:	e0bffe17 	ldw	r2,-8(fp)
    1d44:	10bfff84 	addi	r2,r2,-2
    1d48:	11003fcc 	andi	r4,r2,255
    1d4c:	e0bffd17 	ldw	r2,-12(fp)
    1d50:	11403fcc 	andi	r5,r2,255
    1d54:	e0bffe17 	ldw	r2,-8(fp)
    1d58:	10803fcc 	andi	r2,r2,255
    1d5c:	d8800015 	stw	r2,0(sp)
    1d60:	280f883a 	mov	r7,r5
    1d64:	200d883a 	mov	r6,r4
    1d68:	180b883a 	mov	r5,r3
    1d6c:	010000f4 	movhi	r4,3
    1d70:	21251d04 	addi	r4,r4,-27532
    1d74:	00004bc0 	call	4bc <printBoard>
		#endif
		return 1;
    1d78:	00800044 	movi	r2,1
    1d7c:	00014806 	br	22a0 <capture+0x6f0>
	}

	else if((board[row-1][field+1] == ENEMY || board[row-1][field+1] == ENEMYKING)
    1d80:	e0bffd17 	ldw	r2,-12(fp)
    1d84:	113fffc4 	addi	r4,r2,-1
    1d88:	e0bffe17 	ldw	r2,-8(fp)
    1d8c:	10c00044 	addi	r3,r2,1
    1d90:	008000f4 	movhi	r2,3
    1d94:	10a51d04 	addi	r2,r2,-27532
    1d98:	210002a4 	muli	r4,r4,10
    1d9c:	1105883a 	add	r2,r2,r4
    1da0:	10c5883a 	add	r2,r2,r3
    1da4:	10800003 	ldbu	r2,0(r2)
    1da8:	10803fcc 	andi	r2,r2,255
    1dac:	10800120 	cmpeqi	r2,r2,4
    1db0:	10000d1e 	bne	r2,zero,1de8 <capture+0x238>
    1db4:	e0bffd17 	ldw	r2,-12(fp)
    1db8:	113fffc4 	addi	r4,r2,-1
    1dbc:	e0bffe17 	ldw	r2,-8(fp)
    1dc0:	10c00044 	addi	r3,r2,1
    1dc4:	008000f4 	movhi	r2,3
    1dc8:	10a51d04 	addi	r2,r2,-27532
    1dcc:	210002a4 	muli	r4,r4,10
    1dd0:	1105883a 	add	r2,r2,r4
    1dd4:	10c5883a 	add	r2,r2,r3
    1dd8:	10800003 	ldbu	r2,0(r2)
    1ddc:	10803fcc 	andi	r2,r2,255
    1de0:	10800158 	cmpnei	r2,r2,5
    1de4:	1000531e 	bne	r2,zero,1f34 <capture+0x384>
	&&
	(board[row-2][field+2] == BLACK || board[row-2][field+2] == BLACK)){
    1de8:	e0bffd17 	ldw	r2,-12(fp)
    1dec:	113fff84 	addi	r4,r2,-2
    1df0:	e0bffe17 	ldw	r2,-8(fp)
    1df4:	10c00084 	addi	r3,r2,2
    1df8:	008000f4 	movhi	r2,3
    1dfc:	10a51d04 	addi	r2,r2,-27532
    1e00:	210002a4 	muli	r4,r4,10
    1e04:	1105883a 	add	r2,r2,r4
    1e08:	10c5883a 	add	r2,r2,r3
    1e0c:	10800003 	ldbu	r2,0(r2)
		#endif
		return 1;
	}

	else if((board[row-1][field+1] == ENEMY || board[row-1][field+1] == ENEMYKING)
	&&
    1e10:	10803fcc 	andi	r2,r2,255
    1e14:	10800060 	cmpeqi	r2,r2,1
    1e18:	10000d1e 	bne	r2,zero,1e50 <capture+0x2a0>
	(board[row-2][field+2] == BLACK || board[row-2][field+2] == BLACK)){
    1e1c:	e0bffd17 	ldw	r2,-12(fp)
    1e20:	113fff84 	addi	r4,r2,-2
    1e24:	e0bffe17 	ldw	r2,-8(fp)
    1e28:	10c00084 	addi	r3,r2,2
    1e2c:	008000f4 	movhi	r2,3
    1e30:	10a51d04 	addi	r2,r2,-27532
    1e34:	210002a4 	muli	r4,r4,10
    1e38:	1105883a 	add	r2,r2,r4
    1e3c:	10c5883a 	add	r2,r2,r3
    1e40:	10800003 	ldbu	r2,0(r2)
    1e44:	10803fcc 	andi	r2,r2,255
    1e48:	10800058 	cmpnei	r2,r2,1
    1e4c:	1000391e 	bne	r2,zero,1f34 <capture+0x384>

		board[row-2][field+2] = board[row][field];
    1e50:	e0bffd17 	ldw	r2,-12(fp)
    1e54:	117fff84 	addi	r5,r2,-2
    1e58:	e0bffe17 	ldw	r2,-8(fp)
    1e5c:	11000084 	addi	r4,r2,2
    1e60:	008000f4 	movhi	r2,3
    1e64:	10a51d04 	addi	r2,r2,-27532
    1e68:	e0fffd17 	ldw	r3,-12(fp)
    1e6c:	18c002a4 	muli	r3,r3,10
    1e70:	10c7883a 	add	r3,r2,r3
    1e74:	e0bffe17 	ldw	r2,-8(fp)
    1e78:	1885883a 	add	r2,r3,r2
    1e7c:	10c00003 	ldbu	r3,0(r2)
    1e80:	008000f4 	movhi	r2,3
    1e84:	10a51d04 	addi	r2,r2,-27532
    1e88:	294002a4 	muli	r5,r5,10
    1e8c:	1145883a 	add	r2,r2,r5
    1e90:	1105883a 	add	r2,r2,r4
    1e94:	10c00005 	stb	r3,0(r2)
		board[row-1][field+1] = BLACK;
    1e98:	e0bffd17 	ldw	r2,-12(fp)
    1e9c:	113fffc4 	addi	r4,r2,-1
    1ea0:	e0bffe17 	ldw	r2,-8(fp)
    1ea4:	10c00044 	addi	r3,r2,1
    1ea8:	008000f4 	movhi	r2,3
    1eac:	10a51d04 	addi	r2,r2,-27532
    1eb0:	210002a4 	muli	r4,r4,10
    1eb4:	1105883a 	add	r2,r2,r4
    1eb8:	10c5883a 	add	r2,r2,r3
    1ebc:	00c00044 	movi	r3,1
    1ec0:	10c00005 	stb	r3,0(r2)
		board[row][field] = BLACK;
    1ec4:	008000f4 	movhi	r2,3
    1ec8:	10a51d04 	addi	r2,r2,-27532
    1ecc:	e0fffd17 	ldw	r3,-12(fp)
    1ed0:	18c002a4 	muli	r3,r3,10
    1ed4:	10c7883a 	add	r3,r2,r3
    1ed8:	e0bffe17 	ldw	r2,-8(fp)
    1edc:	1885883a 	add	r2,r3,r2
    1ee0:	00c00044 	movi	r3,1
    1ee4:	10c00005 	stb	r3,0(r2)
		#if DEBUG
			printBoard((unsigned char **)board,row-2,field+2,row,field);
    1ee8:	e0bffd17 	ldw	r2,-12(fp)
    1eec:	10bfff84 	addi	r2,r2,-2
    1ef0:	10c03fcc 	andi	r3,r2,255
    1ef4:	e0bffe17 	ldw	r2,-8(fp)
    1ef8:	10800084 	addi	r2,r2,2
    1efc:	11003fcc 	andi	r4,r2,255
    1f00:	e0bffd17 	ldw	r2,-12(fp)
    1f04:	11403fcc 	andi	r5,r2,255
    1f08:	e0bffe17 	ldw	r2,-8(fp)
    1f0c:	10803fcc 	andi	r2,r2,255
    1f10:	d8800015 	stw	r2,0(sp)
    1f14:	280f883a 	mov	r7,r5
    1f18:	200d883a 	mov	r6,r4
    1f1c:	180b883a 	mov	r5,r3
    1f20:	010000f4 	movhi	r4,3
    1f24:	21251d04 	addi	r4,r4,-27532
    1f28:	00004bc0 	call	4bc <printBoard>
		#endif
		return 1;
    1f2c:	00800044 	movi	r2,1
    1f30:	0000db06 	br	22a0 <capture+0x6f0>
	}

	else if((board[row+1][field-1] == ENEMY || board[row+1][field-1] == ENEMYKING)
    1f34:	e0bffd17 	ldw	r2,-12(fp)
    1f38:	11000044 	addi	r4,r2,1
    1f3c:	e0bffe17 	ldw	r2,-8(fp)
    1f40:	10ffffc4 	addi	r3,r2,-1
    1f44:	008000f4 	movhi	r2,3
    1f48:	10a51d04 	addi	r2,r2,-27532
    1f4c:	210002a4 	muli	r4,r4,10
    1f50:	1105883a 	add	r2,r2,r4
    1f54:	10c5883a 	add	r2,r2,r3
    1f58:	10800003 	ldbu	r2,0(r2)
    1f5c:	10803fcc 	andi	r2,r2,255
    1f60:	10800120 	cmpeqi	r2,r2,4
    1f64:	10000d1e 	bne	r2,zero,1f9c <capture+0x3ec>
    1f68:	e0bffd17 	ldw	r2,-12(fp)
    1f6c:	11000044 	addi	r4,r2,1
    1f70:	e0bffe17 	ldw	r2,-8(fp)
    1f74:	10ffffc4 	addi	r3,r2,-1
    1f78:	008000f4 	movhi	r2,3
    1f7c:	10a51d04 	addi	r2,r2,-27532
    1f80:	210002a4 	muli	r4,r4,10
    1f84:	1105883a 	add	r2,r2,r4
    1f88:	10c5883a 	add	r2,r2,r3
    1f8c:	10800003 	ldbu	r2,0(r2)
    1f90:	10803fcc 	andi	r2,r2,255
    1f94:	10800158 	cmpnei	r2,r2,5
    1f98:	1000531e 	bne	r2,zero,20e8 <capture+0x538>
	&&
	(board[row+2][field-2] == BLACK || board[row+2][field-2] == BLACK)){
    1f9c:	e0bffd17 	ldw	r2,-12(fp)
    1fa0:	11000084 	addi	r4,r2,2
    1fa4:	e0bffe17 	ldw	r2,-8(fp)
    1fa8:	10ffff84 	addi	r3,r2,-2
    1fac:	008000f4 	movhi	r2,3
    1fb0:	10a51d04 	addi	r2,r2,-27532
    1fb4:	210002a4 	muli	r4,r4,10
    1fb8:	1105883a 	add	r2,r2,r4
    1fbc:	10c5883a 	add	r2,r2,r3
    1fc0:	10800003 	ldbu	r2,0(r2)
		#endif
		return 1;
	}

	else if((board[row+1][field-1] == ENEMY || board[row+1][field-1] == ENEMYKING)
	&&
    1fc4:	10803fcc 	andi	r2,r2,255
    1fc8:	10800060 	cmpeqi	r2,r2,1
    1fcc:	10000d1e 	bne	r2,zero,2004 <capture+0x454>
	(board[row+2][field-2] == BLACK || board[row+2][field-2] == BLACK)){
    1fd0:	e0bffd17 	ldw	r2,-12(fp)
    1fd4:	11000084 	addi	r4,r2,2
    1fd8:	e0bffe17 	ldw	r2,-8(fp)
    1fdc:	10ffff84 	addi	r3,r2,-2
    1fe0:	008000f4 	movhi	r2,3
    1fe4:	10a51d04 	addi	r2,r2,-27532
    1fe8:	210002a4 	muli	r4,r4,10
    1fec:	1105883a 	add	r2,r2,r4
    1ff0:	10c5883a 	add	r2,r2,r3
    1ff4:	10800003 	ldbu	r2,0(r2)
    1ff8:	10803fcc 	andi	r2,r2,255
    1ffc:	10800058 	cmpnei	r2,r2,1
    2000:	1000391e 	bne	r2,zero,20e8 <capture+0x538>

		board[row+2][field-2] = board[row][field];
    2004:	e0bffd17 	ldw	r2,-12(fp)
    2008:	11400084 	addi	r5,r2,2
    200c:	e0bffe17 	ldw	r2,-8(fp)
    2010:	113fff84 	addi	r4,r2,-2
    2014:	008000f4 	movhi	r2,3
    2018:	10a51d04 	addi	r2,r2,-27532
    201c:	e0fffd17 	ldw	r3,-12(fp)
    2020:	18c002a4 	muli	r3,r3,10
    2024:	10c7883a 	add	r3,r2,r3
    2028:	e0bffe17 	ldw	r2,-8(fp)
    202c:	1885883a 	add	r2,r3,r2
    2030:	10c00003 	ldbu	r3,0(r2)
    2034:	008000f4 	movhi	r2,3
    2038:	10a51d04 	addi	r2,r2,-27532
    203c:	294002a4 	muli	r5,r5,10
    2040:	1145883a 	add	r2,r2,r5
    2044:	1105883a 	add	r2,r2,r4
    2048:	10c00005 	stb	r3,0(r2)
		board[row+1][field-1] = BLACK;
    204c:	e0bffd17 	ldw	r2,-12(fp)
    2050:	11000044 	addi	r4,r2,1
    2054:	e0bffe17 	ldw	r2,-8(fp)
    2058:	10ffffc4 	addi	r3,r2,-1
    205c:	008000f4 	movhi	r2,3
    2060:	10a51d04 	addi	r2,r2,-27532
    2064:	210002a4 	muli	r4,r4,10
    2068:	1105883a 	add	r2,r2,r4
    206c:	10c5883a 	add	r2,r2,r3
    2070:	00c00044 	movi	r3,1
    2074:	10c00005 	stb	r3,0(r2)
		board[row][field] = BLACK;
    2078:	008000f4 	movhi	r2,3
    207c:	10a51d04 	addi	r2,r2,-27532
    2080:	e0fffd17 	ldw	r3,-12(fp)
    2084:	18c002a4 	muli	r3,r3,10
    2088:	10c7883a 	add	r3,r2,r3
    208c:	e0bffe17 	ldw	r2,-8(fp)
    2090:	1885883a 	add	r2,r3,r2
    2094:	00c00044 	movi	r3,1
    2098:	10c00005 	stb	r3,0(r2)
		#if DEBUG
			printBoard((unsigned char **)board,row+2,field-2,row,field);
    209c:	e0bffd17 	ldw	r2,-12(fp)
    20a0:	10800084 	addi	r2,r2,2
    20a4:	10c03fcc 	andi	r3,r2,255
    20a8:	e0bffe17 	ldw	r2,-8(fp)
    20ac:	10bfff84 	addi	r2,r2,-2
    20b0:	11003fcc 	andi	r4,r2,255
    20b4:	e0bffd17 	ldw	r2,-12(fp)
    20b8:	11403fcc 	andi	r5,r2,255
    20bc:	e0bffe17 	ldw	r2,-8(fp)
    20c0:	10803fcc 	andi	r2,r2,255
    20c4:	d8800015 	stw	r2,0(sp)
    20c8:	280f883a 	mov	r7,r5
    20cc:	200d883a 	mov	r6,r4
    20d0:	180b883a 	mov	r5,r3
    20d4:	010000f4 	movhi	r4,3
    20d8:	21251d04 	addi	r4,r4,-27532
    20dc:	00004bc0 	call	4bc <printBoard>
		#endif
		return 1;
    20e0:	00800044 	movi	r2,1
    20e4:	00006e06 	br	22a0 <capture+0x6f0>
	}

	else if((board[row+1][field+1] == ENEMY || board[row+1][field+1] == ENEMYKING)
    20e8:	e0bffd17 	ldw	r2,-12(fp)
    20ec:	11000044 	addi	r4,r2,1
    20f0:	e0bffe17 	ldw	r2,-8(fp)
    20f4:	10c00044 	addi	r3,r2,1
    20f8:	008000f4 	movhi	r2,3
    20fc:	10a51d04 	addi	r2,r2,-27532
    2100:	210002a4 	muli	r4,r4,10
    2104:	1105883a 	add	r2,r2,r4
    2108:	10c5883a 	add	r2,r2,r3
    210c:	10800003 	ldbu	r2,0(r2)
    2110:	10803fcc 	andi	r2,r2,255
    2114:	10800120 	cmpeqi	r2,r2,4
    2118:	10000d1e 	bne	r2,zero,2150 <capture+0x5a0>
    211c:	e0bffd17 	ldw	r2,-12(fp)
    2120:	11000044 	addi	r4,r2,1
    2124:	e0bffe17 	ldw	r2,-8(fp)
    2128:	10c00044 	addi	r3,r2,1
    212c:	008000f4 	movhi	r2,3
    2130:	10a51d04 	addi	r2,r2,-27532
    2134:	210002a4 	muli	r4,r4,10
    2138:	1105883a 	add	r2,r2,r4
    213c:	10c5883a 	add	r2,r2,r3
    2140:	10800003 	ldbu	r2,0(r2)
    2144:	10803fcc 	andi	r2,r2,255
    2148:	10800158 	cmpnei	r2,r2,5
    214c:	1000531e 	bne	r2,zero,229c <capture+0x6ec>
	&&
	(board[row+2][field+2] == BLACK || board[row+2][field+2] == BLACK)){
    2150:	e0bffd17 	ldw	r2,-12(fp)
    2154:	11000084 	addi	r4,r2,2
    2158:	e0bffe17 	ldw	r2,-8(fp)
    215c:	10c00084 	addi	r3,r2,2
    2160:	008000f4 	movhi	r2,3
    2164:	10a51d04 	addi	r2,r2,-27532
    2168:	210002a4 	muli	r4,r4,10
    216c:	1105883a 	add	r2,r2,r4
    2170:	10c5883a 	add	r2,r2,r3
    2174:	10800003 	ldbu	r2,0(r2)
		#endif
		return 1;
	}

	else if((board[row+1][field+1] == ENEMY || board[row+1][field+1] == ENEMYKING)
	&&
    2178:	10803fcc 	andi	r2,r2,255
    217c:	10800060 	cmpeqi	r2,r2,1
    2180:	10000d1e 	bne	r2,zero,21b8 <capture+0x608>
	(board[row+2][field+2] == BLACK || board[row+2][field+2] == BLACK)){
    2184:	e0bffd17 	ldw	r2,-12(fp)
    2188:	11000084 	addi	r4,r2,2
    218c:	e0bffe17 	ldw	r2,-8(fp)
    2190:	10c00084 	addi	r3,r2,2
    2194:	008000f4 	movhi	r2,3
    2198:	10a51d04 	addi	r2,r2,-27532
    219c:	210002a4 	muli	r4,r4,10
    21a0:	1105883a 	add	r2,r2,r4
    21a4:	10c5883a 	add	r2,r2,r3
    21a8:	10800003 	ldbu	r2,0(r2)
    21ac:	10803fcc 	andi	r2,r2,255
    21b0:	10800058 	cmpnei	r2,r2,1
    21b4:	1000391e 	bne	r2,zero,229c <capture+0x6ec>

		board[row+2][field+2] = board[row][field];
    21b8:	e0bffd17 	ldw	r2,-12(fp)
    21bc:	11400084 	addi	r5,r2,2
    21c0:	e0bffe17 	ldw	r2,-8(fp)
    21c4:	11000084 	addi	r4,r2,2
    21c8:	008000f4 	movhi	r2,3
    21cc:	10a51d04 	addi	r2,r2,-27532
    21d0:	e0fffd17 	ldw	r3,-12(fp)
    21d4:	18c002a4 	muli	r3,r3,10
    21d8:	10c7883a 	add	r3,r2,r3
    21dc:	e0bffe17 	ldw	r2,-8(fp)
    21e0:	1885883a 	add	r2,r3,r2
    21e4:	10c00003 	ldbu	r3,0(r2)
    21e8:	008000f4 	movhi	r2,3
    21ec:	10a51d04 	addi	r2,r2,-27532
    21f0:	294002a4 	muli	r5,r5,10
    21f4:	1145883a 	add	r2,r2,r5
    21f8:	1105883a 	add	r2,r2,r4
    21fc:	10c00005 	stb	r3,0(r2)
		board[row+1][field+1] = BLACK;
    2200:	e0bffd17 	ldw	r2,-12(fp)
    2204:	11000044 	addi	r4,r2,1
    2208:	e0bffe17 	ldw	r2,-8(fp)
    220c:	10c00044 	addi	r3,r2,1
    2210:	008000f4 	movhi	r2,3
    2214:	10a51d04 	addi	r2,r2,-27532
    2218:	210002a4 	muli	r4,r4,10
    221c:	1105883a 	add	r2,r2,r4
    2220:	10c5883a 	add	r2,r2,r3
    2224:	00c00044 	movi	r3,1
    2228:	10c00005 	stb	r3,0(r2)
		board[row][field] = BLACK;
    222c:	008000f4 	movhi	r2,3
    2230:	10a51d04 	addi	r2,r2,-27532
    2234:	e0fffd17 	ldw	r3,-12(fp)
    2238:	18c002a4 	muli	r3,r3,10
    223c:	10c7883a 	add	r3,r2,r3
    2240:	e0bffe17 	ldw	r2,-8(fp)
    2244:	1885883a 	add	r2,r3,r2
    2248:	00c00044 	movi	r3,1
    224c:	10c00005 	stb	r3,0(r2)
		#if DEBUG
			printBoard((unsigned char **)board,row+2,field+2,row,field);
    2250:	e0bffd17 	ldw	r2,-12(fp)
    2254:	10800084 	addi	r2,r2,2
    2258:	10c03fcc 	andi	r3,r2,255
    225c:	e0bffe17 	ldw	r2,-8(fp)
    2260:	10800084 	addi	r2,r2,2
    2264:	11003fcc 	andi	r4,r2,255
    2268:	e0bffd17 	ldw	r2,-12(fp)
    226c:	11403fcc 	andi	r5,r2,255
    2270:	e0bffe17 	ldw	r2,-8(fp)
    2274:	10803fcc 	andi	r2,r2,255
    2278:	d8800015 	stw	r2,0(sp)
    227c:	280f883a 	mov	r7,r5
    2280:	200d883a 	mov	r6,r4
    2284:	180b883a 	mov	r5,r3
    2288:	010000f4 	movhi	r4,3
    228c:	21251d04 	addi	r4,r4,-27532
    2290:	00004bc0 	call	4bc <printBoard>
		#endif
		return 1;
    2294:	00800044 	movi	r2,1
    2298:	00000106 	br	22a0 <capture+0x6f0>
	}

	else return 0;
    229c:	0005883a 	mov	r2,zero
}
    22a0:	e037883a 	mov	sp,fp
    22a4:	dfc00117 	ldw	ra,4(sp)
    22a8:	df000017 	ldw	fp,0(sp)
    22ac:	dec00204 	addi	sp,sp,8
    22b0:	f800283a 	ret

000022b4 <move>:

//TODO: make this obsolete, replace with manMove
void move(unsigned char * tempBoard[], unsigned char row, unsigned char field, unsigned char dir, unsigned char friendly, unsigned char friendlyKing, unsigned char enemy, unsigned char enemyKing, signed char direction){
    22b4:	deffda04 	addi	sp,sp,-152
    22b8:	dfc02515 	stw	ra,148(sp)
    22bc:	df002415 	stw	fp,144(sp)
    22c0:	df002404 	addi	fp,sp,144
    22c4:	e13ff715 	stw	r4,-36(fp)
    22c8:	2813883a 	mov	r9,r5
    22cc:	3011883a 	mov	r8,r6
    22d0:	e1800217 	ldw	r6,8(fp)
    22d4:	e1400317 	ldw	r5,12(fp)
    22d8:	e1000417 	ldw	r4,16(fp)
    22dc:	e0c00517 	ldw	r3,20(fp)
    22e0:	e0800617 	ldw	r2,24(fp)
    22e4:	e27ff805 	stb	r9,-32(fp)
    22e8:	e23ff905 	stb	r8,-28(fp)
    22ec:	e1fffa05 	stb	r7,-24(fp)
    22f0:	e1bffb05 	stb	r6,-20(fp)
    22f4:	e17ffc05 	stb	r5,-16(fp)
    22f8:	e13ffd05 	stb	r4,-12(fp)
    22fc:	e0fffe05 	stb	r3,-8(fp)
    2300:	e0bfff05 	stb	r2,-4(fp)

	unsigned char b[10][10];
	memcpy(b,tempBoard,100);
    2304:	e0bfde04 	addi	r2,fp,-136
    2308:	01801904 	movi	r6,100
    230c:	e17ff717 	ldw	r5,-36(fp)
    2310:	1009883a 	mov	r4,r2
    2314:	00058e80 	call	58e8 <memcpy>

	int stone = b[row][field];
    2318:	e0fff803 	ldbu	r3,-32(fp)
    231c:	e0bff903 	ldbu	r2,-28(fp)
    2320:	18c002a4 	muli	r3,r3,10
    2324:	e13fdd04 	addi	r4,fp,-140
    2328:	20c7883a 	add	r3,r4,r3
    232c:	1885883a 	add	r2,r3,r2
    2330:	10800104 	addi	r2,r2,4
    2334:	10800003 	ldbu	r2,0(r2)
    2338:	10803fcc 	andi	r2,r2,255
    233c:	e0bfdd15 	stw	r2,-140(fp)

	b[row][field] = BLACK;
    2340:	e0fff803 	ldbu	r3,-32(fp)
    2344:	e0bff903 	ldbu	r2,-28(fp)
    2348:	18c002a4 	muli	r3,r3,10
    234c:	e17fdd04 	addi	r5,fp,-140
    2350:	28c7883a 	add	r3,r5,r3
    2354:	1885883a 	add	r2,r3,r2
    2358:	10800104 	addi	r2,r2,4
    235c:	00c00044 	movi	r3,1
    2360:	10c00005 	stb	r3,0(r2)

	switch(dir){
    2364:	e0bffa03 	ldbu	r2,-24(fp)
    2368:	10c000a0 	cmpeqi	r3,r2,2
    236c:	1800251e 	bne	r3,zero,2404 <move+0x150>
    2370:	10c000c8 	cmpgei	r3,r2,3
    2374:	1800031e 	bne	r3,zero,2384 <move+0xd0>
    2378:	10800060 	cmpeqi	r2,r2,1
    237c:	1000061e 	bne	r2,zero,2398 <move+0xe4>
    2380:	00007106 	br	2548 <move+0x294>
    2384:	10c000e0 	cmpeqi	r3,r2,3
    2388:	1800391e 	bne	r3,zero,2470 <move+0x1bc>
    238c:	10800120 	cmpeqi	r2,r2,4
    2390:	1000521e 	bne	r2,zero,24dc <move+0x228>
    2394:	00006c06 	br	2548 <move+0x294>
		case 1:
			b[row-1][field-1] = stone;
    2398:	e0bff803 	ldbu	r2,-32(fp)
    239c:	10ffffc4 	addi	r3,r2,-1
    23a0:	e0bff903 	ldbu	r2,-28(fp)
    23a4:	10bfffc4 	addi	r2,r2,-1
    23a8:	e13fdd17 	ldw	r4,-140(fp)
    23ac:	18c002a4 	muli	r3,r3,10
    23b0:	e17fdd04 	addi	r5,fp,-140
    23b4:	28c7883a 	add	r3,r5,r3
    23b8:	1885883a 	add	r2,r3,r2
    23bc:	10800104 	addi	r2,r2,4
    23c0:	11000005 	stb	r4,0(r2)
			#if DEBUG
				printBoard((unsigned char **)b,row-1,field-1,row,field);
    23c4:	e0bff803 	ldbu	r2,-32(fp)
    23c8:	10bfffc4 	addi	r2,r2,-1
    23cc:	11003fcc 	andi	r4,r2,255
    23d0:	e0bff903 	ldbu	r2,-28(fp)
    23d4:	10bfffc4 	addi	r2,r2,-1
    23d8:	11403fcc 	andi	r5,r2,255
    23dc:	e1bff803 	ldbu	r6,-32(fp)
    23e0:	e0bff903 	ldbu	r2,-28(fp)
    23e4:	e0ffde04 	addi	r3,fp,-136
    23e8:	d8800015 	stw	r2,0(sp)
    23ec:	300f883a 	mov	r7,r6
    23f0:	280d883a 	mov	r6,r5
    23f4:	200b883a 	mov	r5,r4
    23f8:	1809883a 	mov	r4,r3
    23fc:	00004bc0 	call	4bc <printBoard>
			#endif
			break;
    2400:	00005106 	br	2548 <move+0x294>
		case 2:
			b[row-1][field+1] = stone;
    2404:	e0bff803 	ldbu	r2,-32(fp)
    2408:	10ffffc4 	addi	r3,r2,-1
    240c:	e0bff903 	ldbu	r2,-28(fp)
    2410:	10800044 	addi	r2,r2,1
    2414:	e13fdd17 	ldw	r4,-140(fp)
    2418:	18c002a4 	muli	r3,r3,10
    241c:	e17fdd04 	addi	r5,fp,-140
    2420:	28c7883a 	add	r3,r5,r3
    2424:	1885883a 	add	r2,r3,r2
    2428:	10800104 	addi	r2,r2,4
    242c:	11000005 	stb	r4,0(r2)
			#if DEBUG
				printBoard((unsigned char **)b,row-1,field+1,row,field);
    2430:	e0bff803 	ldbu	r2,-32(fp)
    2434:	10bfffc4 	addi	r2,r2,-1
    2438:	11003fcc 	andi	r4,r2,255
    243c:	e0bff903 	ldbu	r2,-28(fp)
    2440:	10800044 	addi	r2,r2,1
    2444:	11403fcc 	andi	r5,r2,255
    2448:	e1bff803 	ldbu	r6,-32(fp)
    244c:	e0bff903 	ldbu	r2,-28(fp)
    2450:	e0ffde04 	addi	r3,fp,-136
    2454:	d8800015 	stw	r2,0(sp)
    2458:	300f883a 	mov	r7,r6
    245c:	280d883a 	mov	r6,r5
    2460:	200b883a 	mov	r5,r4
    2464:	1809883a 	mov	r4,r3
    2468:	00004bc0 	call	4bc <printBoard>
			#endif
			break;
    246c:	00003606 	br	2548 <move+0x294>
		case 3:
			b[row+1][field-1] = stone;
    2470:	e0bff803 	ldbu	r2,-32(fp)
    2474:	10c00044 	addi	r3,r2,1
    2478:	e0bff903 	ldbu	r2,-28(fp)
    247c:	10bfffc4 	addi	r2,r2,-1
    2480:	e13fdd17 	ldw	r4,-140(fp)
    2484:	18c002a4 	muli	r3,r3,10
    2488:	e17fdd04 	addi	r5,fp,-140
    248c:	28c7883a 	add	r3,r5,r3
    2490:	1885883a 	add	r2,r3,r2
    2494:	10800104 	addi	r2,r2,4
    2498:	11000005 	stb	r4,0(r2)
			#if DEBUG
				printBoard((unsigned char **)b,row+1,field-1,row,field);
    249c:	e0bff803 	ldbu	r2,-32(fp)
    24a0:	10800044 	addi	r2,r2,1
    24a4:	11003fcc 	andi	r4,r2,255
    24a8:	e0bff903 	ldbu	r2,-28(fp)
    24ac:	10bfffc4 	addi	r2,r2,-1
    24b0:	11403fcc 	andi	r5,r2,255
    24b4:	e1bff803 	ldbu	r6,-32(fp)
    24b8:	e0bff903 	ldbu	r2,-28(fp)
    24bc:	e0ffde04 	addi	r3,fp,-136
    24c0:	d8800015 	stw	r2,0(sp)
    24c4:	300f883a 	mov	r7,r6
    24c8:	280d883a 	mov	r6,r5
    24cc:	200b883a 	mov	r5,r4
    24d0:	1809883a 	mov	r4,r3
    24d4:	00004bc0 	call	4bc <printBoard>
			#endif
			break;
    24d8:	00001b06 	br	2548 <move+0x294>
		case 4:
			b[row+1][field+1] = stone;
    24dc:	e0bff803 	ldbu	r2,-32(fp)
    24e0:	10c00044 	addi	r3,r2,1
    24e4:	e0bff903 	ldbu	r2,-28(fp)
    24e8:	10800044 	addi	r2,r2,1
    24ec:	e13fdd17 	ldw	r4,-140(fp)
    24f0:	18c002a4 	muli	r3,r3,10
    24f4:	e17fdd04 	addi	r5,fp,-140
    24f8:	28c7883a 	add	r3,r5,r3
    24fc:	1885883a 	add	r2,r3,r2
    2500:	10800104 	addi	r2,r2,4
    2504:	11000005 	stb	r4,0(r2)
			#if DEBUG
				printBoard((unsigned char **)b,row+1,field+1,row,field);
    2508:	e0bff803 	ldbu	r2,-32(fp)
    250c:	10800044 	addi	r2,r2,1
    2510:	11003fcc 	andi	r4,r2,255
    2514:	e0bff903 	ldbu	r2,-28(fp)
    2518:	10800044 	addi	r2,r2,1
    251c:	11403fcc 	andi	r5,r2,255
    2520:	e1bff803 	ldbu	r6,-32(fp)
    2524:	e0bff903 	ldbu	r2,-28(fp)
    2528:	e0ffde04 	addi	r3,fp,-136
    252c:	d8800015 	stw	r2,0(sp)
    2530:	300f883a 	mov	r7,r6
    2534:	280d883a 	mov	r6,r5
    2538:	200b883a 	mov	r5,r4
    253c:	1809883a 	mov	r4,r3
    2540:	00004bc0 	call	4bc <printBoard>
			#endif
			break;
    2544:	0001883a 	nop
	}
	memcpy(tempBoard,b,100);
    2548:	e0bfde04 	addi	r2,fp,-136
    254c:	01801904 	movi	r6,100
    2550:	100b883a 	mov	r5,r2
    2554:	e13ff717 	ldw	r4,-36(fp)
    2558:	00058e80 	call	58e8 <memcpy>
}
    255c:	0001883a 	nop
    2560:	e037883a 	mov	sp,fp
    2564:	dfc00117 	ldw	ra,4(sp)
    2568:	df000017 	ldw	fp,0(sp)
    256c:	dec00204 	addi	sp,sp,8
    2570:	f800283a 	ret

00002574 <createKing>:

void createKing(unsigned char * tempBoard[])
{
    2574:	deffe304 	addi	sp,sp,-116
    2578:	dfc01c15 	stw	ra,112(sp)
    257c:	df001b15 	stw	fp,108(sp)
    2580:	df001b04 	addi	fp,sp,108
    2584:	e13fff15 	stw	r4,-4(fp)
	unsigned char b[10][10];
	memcpy(b,tempBoard,100);
    2588:	e0bfe544 	addi	r2,fp,-107
    258c:	01801904 	movi	r6,100
    2590:	e17fff17 	ldw	r5,-4(fp)
    2594:	1009883a 	mov	r4,r2
    2598:	00058e80 	call	58e8 <memcpy>

	for(unsigned char field = 0; field <= 9; field++)
    259c:	e03fe505 	stb	zero,-108(fp)
    25a0:	00001b06 	br	2610 <createKing+0x9c>
	{
		if(b[0][field] == FRIENDLY)
    25a4:	e0bfe503 	ldbu	r2,-108(fp)
    25a8:	e0ffe544 	addi	r3,fp,-107
    25ac:	1885883a 	add	r2,r3,r2
    25b0:	10800003 	ldbu	r2,0(r2)
    25b4:	10803fcc 	andi	r2,r2,255
    25b8:	10800098 	cmpnei	r2,r2,2
    25bc:	1000051e 	bne	r2,zero,25d4 <createKing+0x60>
		{
			b[0][field] = FRIENDLYKING;
    25c0:	e0bfe503 	ldbu	r2,-108(fp)
    25c4:	e0ffe544 	addi	r3,fp,-107
    25c8:	1885883a 	add	r2,r3,r2
    25cc:	00c000c4 	movi	r3,3
    25d0:	10c00005 	stb	r3,0(r2)
		}

		if(b[9][field] == ENEMY)
    25d4:	e0bfe503 	ldbu	r2,-108(fp)
    25d8:	e0fffbc4 	addi	r3,fp,-17
    25dc:	1885883a 	add	r2,r3,r2
    25e0:	10800003 	ldbu	r2,0(r2)
    25e4:	10803fcc 	andi	r2,r2,255
    25e8:	10800118 	cmpnei	r2,r2,4
    25ec:	1000051e 	bne	r2,zero,2604 <createKing+0x90>
		{
			b[9][field] = ENEMYKING;
    25f0:	e0bfe503 	ldbu	r2,-108(fp)
    25f4:	e0fffbc4 	addi	r3,fp,-17
    25f8:	1885883a 	add	r2,r3,r2
    25fc:	00c00144 	movi	r3,5
    2600:	10c00005 	stb	r3,0(r2)
void createKing(unsigned char * tempBoard[])
{
	unsigned char b[10][10];
	memcpy(b,tempBoard,100);

	for(unsigned char field = 0; field <= 9; field++)
    2604:	e0bfe503 	ldbu	r2,-108(fp)
    2608:	10800044 	addi	r2,r2,1
    260c:	e0bfe505 	stb	r2,-108(fp)
    2610:	e0bfe503 	ldbu	r2,-108(fp)
    2614:	108002b0 	cmpltui	r2,r2,10
    2618:	103fe21e 	bne	r2,zero,25a4 <__alt_data_end+0xfc0025a4>
		{
			b[9][field] = ENEMYKING;
		}
	}

	memcpy(tempBoard,b,100);
    261c:	e0bfe544 	addi	r2,fp,-107
    2620:	01801904 	movi	r6,100
    2624:	100b883a 	mov	r5,r2
    2628:	e13fff17 	ldw	r4,-4(fp)
    262c:	00058e80 	call	58e8 <memcpy>
}
    2630:	0001883a 	nop
    2634:	e037883a 	mov	sp,fp
    2638:	dfc00117 	ldw	ra,4(sp)
    263c:	df000017 	ldw	fp,0(sp)
    2640:	dec00204 	addi	sp,sp,8
    2644:	f800283a 	ret

00002648 <minimaxAlgorithmRecursive>:


int minimaxAlgorithmRecursive(unsigned char * tempBoard[], unsigned char friendly, unsigned char friendlyKing, unsigned char enemy, unsigned char enemyKing, signed char direction, int depth)
{
    2648:	deff9c04 	addi	sp,sp,-400
    264c:	dfc06315 	stw	ra,396(sp)
    2650:	df006215 	stw	fp,392(sp)
    2654:	df006204 	addi	fp,sp,392
    2658:	e13ffa15 	stw	r4,-24(fp)
    265c:	2811883a 	mov	r8,r5
    2660:	300b883a 	mov	r5,r6
    2664:	3809883a 	mov	r4,r7
    2668:	e0c00217 	ldw	r3,8(fp)
    266c:	e0800317 	ldw	r2,12(fp)
    2670:	e23ffb05 	stb	r8,-20(fp)
    2674:	e17ffc05 	stb	r5,-16(fp)
    2678:	e13ffd05 	stb	r4,-12(fp)
    267c:	e0fffe05 	stb	r3,-8(fp)
    2680:	e0bfff05 	stb	r2,-4(fp)
	int bestScore;

	createKing((unsigned char **)tempBoard);
    2684:	e13ffa17 	ldw	r4,-24(fp)
    2688:	00025740 	call	2574 <createKing>

	unsigned char b[10][10];
	memcpy(b,tempBoard,100);
    268c:	e0bfaf04 	addi	r2,fp,-324
    2690:	01801904 	movi	r6,100
    2694:	e17ffa17 	ldw	r5,-24(fp)
    2698:	1009883a 	mov	r4,r2
    269c:	00058e80 	call	58e8 <memcpy>

	if(depth > 0)
    26a0:	e0800417 	ldw	r2,16(fp)
    26a4:	0081a50e 	bge	zero,r2,2d3c <minimaxAlgorithmRecursive+0x6f4>
	{
		node_t * head = NULL;
    26a8:	e03fac15 	stw	zero,-336(fp)
		head = malloc(sizeof(node_t));
    26ac:	01000204 	movi	r4,8
    26b0:	0004fd00 	call	4fd0 <malloc>
    26b4:	e0bfac15 	stw	r2,-336(fp)

		node_t * current = head;
    26b8:	e0bfac17 	ldw	r2,-336(fp)
    26bc:	e0bfa415 	stw	r2,-368(fp)

		for(unsigned char row = 0; row < 10; row++)
    26c0:	e03fa505 	stb	zero,-364(fp)
    26c4:	00013206 	br	2b90 <minimaxAlgorithmRecursive+0x548>
		{
			for(unsigned char field = 0; field < 10; field++)
    26c8:	e03fa545 	stb	zero,-363(fp)
    26cc:	00012a06 	br	2b78 <minimaxAlgorithmRecursive+0x530>
			{
				if(b[row][field] == friendly)
    26d0:	e0ffa503 	ldbu	r3,-364(fp)
    26d4:	e0bfa543 	ldbu	r2,-363(fp)
    26d8:	18c002a4 	muli	r3,r3,10
    26dc:	e13fa304 	addi	r4,fp,-372
    26e0:	20c7883a 	add	r3,r4,r3
    26e4:	1885883a 	add	r2,r3,r2
    26e8:	10800c04 	addi	r2,r2,48
    26ec:	10800003 	ldbu	r2,0(r2)
    26f0:	10c03fcc 	andi	r3,r2,255
    26f4:	e0bffb03 	ldbu	r2,-20(fp)
    26f8:	18811c1e 	bne	r3,r2,2b6c <minimaxAlgorithmRecursive+0x524>
				{
					#if DEBUG
						printf("R%i: [%i][%i] is friendly\n",depth,row,field);
    26fc:	e0bfa503 	ldbu	r2,-364(fp)
    2700:	e0ffa543 	ldbu	r3,-363(fp)
    2704:	180f883a 	mov	r7,r3
    2708:	100d883a 	mov	r6,r2
    270c:	e1400417 	ldw	r5,16(fp)
    2710:	010000b4 	movhi	r4,2
    2714:	21132604 	addi	r4,r4,19608
    2718:	0005b880 	call	5b88 <printf>
					#endif
					int nextDirection;
					if(direction == -1) nextDirection = 1;
    271c:	e0bfff07 	ldb	r2,-4(fp)
    2720:	10bfffd8 	cmpnei	r2,r2,-1
    2724:	1000021e 	bne	r2,zero,2730 <minimaxAlgorithmRecursive+0xe8>
    2728:	00800044 	movi	r2,1
    272c:	e0bfa615 	stw	r2,-360(fp)
					if(direction == 1) nextDirection = -1;
    2730:	e0bfff07 	ldb	r2,-4(fp)
    2734:	10800058 	cmpnei	r2,r2,1
    2738:	1000021e 	bne	r2,zero,2744 <minimaxAlgorithmRecursive+0xfc>
    273c:	00bfffc4 	movi	r2,-1
    2740:	e0bfa615 	stw	r2,-360(fp)

					unsigned char newBoard[10][10];
					memcpy(newBoard,b,100);
    2744:	e0bfe104 	addi	r2,fp,-124
    2748:	e0ffaf04 	addi	r3,fp,-324
    274c:	01001904 	movi	r4,100
    2750:	200d883a 	mov	r6,r4
    2754:	180b883a 	mov	r5,r3
    2758:	1009883a 	mov	r4,r2
    275c:	00058e80 	call	58e8 <memcpy>

					int captured = manCapture((unsigned char **)newBoard, row, field, friendly, friendlyKing, enemy, enemyKing);
    2760:	e17fa503 	ldbu	r5,-364(fp)
    2764:	e1bfa543 	ldbu	r6,-363(fp)
    2768:	e1fffb03 	ldbu	r7,-20(fp)
    276c:	e0bffc03 	ldbu	r2,-16(fp)
    2770:	e0fffd03 	ldbu	r3,-12(fp)
    2774:	e13ffe03 	ldbu	r4,-8(fp)
    2778:	e23fe104 	addi	r8,fp,-124
    277c:	d9000215 	stw	r4,8(sp)
    2780:	d8c00115 	stw	r3,4(sp)
    2784:	d8800015 	stw	r2,0(sp)
    2788:	4009883a 	mov	r4,r8
    278c:	00013700 	call	1370 <manCapture>
    2790:	10803fcc 	andi	r2,r2,255
    2794:	e0bfad15 	stw	r2,-332(fp)
					if(captured)
    2798:	e0bfad17 	ldw	r2,-332(fp)
    279c:	10008326 	beq	r2,zero,29ac <minimaxAlgorithmRecursive+0x364>
					{
						#if DEBUG
							printf("R%i: [%i][%i] can capture\n",depth,row,field);
    27a0:	e0bfa503 	ldbu	r2,-364(fp)
    27a4:	e0ffa543 	ldbu	r3,-363(fp)
    27a8:	180f883a 	mov	r7,r3
    27ac:	100d883a 	mov	r6,r2
    27b0:	e1400417 	ldw	r5,16(fp)
    27b4:	010000b4 	movhi	r4,2
    27b8:	21132d04 	addi	r4,r4,19636
    27bc:	0005b880 	call	5b88 <printf>
						#endif
						int enemiesLeft = 0;
    27c0:	e03fa715 	stw	zero,-356(fp)
						for(unsigned char r = 0; r < 10; r++)
    27c4:	e03fa805 	stb	zero,-352(fp)
    27c8:	00002306 	br	2858 <minimaxAlgorithmRecursive+0x210>
						{
							for(unsigned char f = 0; f < 10; f++)
    27cc:	e03fa845 	stb	zero,-351(fp)
    27d0:	00001b06 	br	2840 <minimaxAlgorithmRecursive+0x1f8>
							{
								if(b[row][field] == enemy || b[row][field] == enemyKing)
    27d4:	e0ffa503 	ldbu	r3,-364(fp)
    27d8:	e0bfa543 	ldbu	r2,-363(fp)
    27dc:	18c002a4 	muli	r3,r3,10
    27e0:	e13fa304 	addi	r4,fp,-372
    27e4:	20c7883a 	add	r3,r4,r3
    27e8:	1885883a 	add	r2,r3,r2
    27ec:	10800c04 	addi	r2,r2,48
    27f0:	10800003 	ldbu	r2,0(r2)
    27f4:	10c03fcc 	andi	r3,r2,255
    27f8:	e0bffd03 	ldbu	r2,-12(fp)
    27fc:	18800b26 	beq	r3,r2,282c <minimaxAlgorithmRecursive+0x1e4>
    2800:	e0ffa503 	ldbu	r3,-364(fp)
    2804:	e0bfa543 	ldbu	r2,-363(fp)
    2808:	18c002a4 	muli	r3,r3,10
    280c:	e13fa304 	addi	r4,fp,-372
    2810:	20c7883a 	add	r3,r4,r3
    2814:	1885883a 	add	r2,r3,r2
    2818:	10800c04 	addi	r2,r2,48
    281c:	10800003 	ldbu	r2,0(r2)
    2820:	10c03fcc 	andi	r3,r2,255
    2824:	e0bffe03 	ldbu	r2,-8(fp)
    2828:	1880021e 	bne	r3,r2,2834 <minimaxAlgorithmRecursive+0x1ec>
									enemiesLeft = 1;
    282c:	00800044 	movi	r2,1
    2830:	e0bfa715 	stw	r2,-356(fp)
							printf("R%i: [%i][%i] can capture\n",depth,row,field);
						#endif
						int enemiesLeft = 0;
						for(unsigned char r = 0; r < 10; r++)
						{
							for(unsigned char f = 0; f < 10; f++)
    2834:	e0bfa843 	ldbu	r2,-351(fp)
    2838:	10800044 	addi	r2,r2,1
    283c:	e0bfa845 	stb	r2,-351(fp)
    2840:	e0bfa843 	ldbu	r2,-351(fp)
    2844:	108002b0 	cmpltui	r2,r2,10
    2848:	103fe21e 	bne	r2,zero,27d4 <__alt_data_end+0xfc0027d4>
					{
						#if DEBUG
							printf("R%i: [%i][%i] can capture\n",depth,row,field);
						#endif
						int enemiesLeft = 0;
						for(unsigned char r = 0; r < 10; r++)
    284c:	e0bfa803 	ldbu	r2,-352(fp)
    2850:	10800044 	addi	r2,r2,1
    2854:	e0bfa805 	stb	r2,-352(fp)
    2858:	e0bfa803 	ldbu	r2,-352(fp)
    285c:	108002b0 	cmpltui	r2,r2,10
    2860:	103fda1e 	bne	r2,zero,27cc <__alt_data_end+0xfc0027cc>
								if(b[row][field] == enemy || b[row][field] == enemyKing)
									enemiesLeft = 1;
							}
						}
						int score;
						if(enemiesLeft == 1)
    2864:	e0bfa717 	ldw	r2,-356(fp)
    2868:	10800058 	cmpnei	r2,r2,1
    286c:	10001d1e 	bne	r2,zero,28e4 <minimaxAlgorithmRecursive+0x29c>
						{
							#if DEBUG
								printf("R%i: there are enemies left after the capture\n",depth);
    2870:	e1400417 	ldw	r5,16(fp)
    2874:	010000b4 	movhi	r4,2
    2878:	21133404 	addi	r4,r4,19664
    287c:	0005b880 	call	5b88 <printf>
								printf("R%i: calling minimaxAlgorithmRecursive with depth %i\n",depth,depth-1);
    2880:	e0800417 	ldw	r2,16(fp)
    2884:	10bfffc4 	addi	r2,r2,-1
    2888:	100d883a 	mov	r6,r2
    288c:	e1400417 	ldw	r5,16(fp)
    2890:	010000b4 	movhi	r4,2
    2894:	21134004 	addi	r4,r4,19712
    2898:	0005b880 	call	5b88 <printf>
							#endif
							score = minimaxAlgorithmRecursive((unsigned char **)newBoard, enemy, enemyKing, friendly, friendlyKing, nextDirection, depth-1);
    289c:	e17ffd03 	ldbu	r5,-12(fp)
    28a0:	e1bffe03 	ldbu	r6,-8(fp)
    28a4:	e1fffb03 	ldbu	r7,-20(fp)
    28a8:	e0bffc03 	ldbu	r2,-16(fp)
    28ac:	e0ffa617 	ldw	r3,-360(fp)
    28b0:	18c03fcc 	andi	r3,r3,255
    28b4:	18c0201c 	xori	r3,r3,128
    28b8:	18ffe004 	addi	r3,r3,-128
    28bc:	e1000417 	ldw	r4,16(fp)
    28c0:	213fffc4 	addi	r4,r4,-1
    28c4:	e23fe104 	addi	r8,fp,-124
    28c8:	d9000215 	stw	r4,8(sp)
    28cc:	d8c00115 	stw	r3,4(sp)
    28d0:	d8800015 	stw	r2,0(sp)
    28d4:	4009883a 	mov	r4,r8
    28d8:	00026480 	call	2648 <minimaxAlgorithmRecursive>
    28dc:	e0bfa915 	stw	r2,-348(fp)
    28e0:	00001806 	br	2944 <minimaxAlgorithmRecursive+0x2fc>
						}
						else if(enemiesLeft == 0)
    28e4:	e0bfa717 	ldw	r2,-356(fp)
    28e8:	1000161e 	bne	r2,zero,2944 <minimaxAlgorithmRecursive+0x2fc>
						{
							#if DEBUG
								printf("R%i: there are no enemies left after the capture\n",depth);
    28ec:	e1400417 	ldw	r5,16(fp)
    28f0:	010000b4 	movhi	r4,2
    28f4:	21134e04 	addi	r4,r4,19768
    28f8:	0005b880 	call	5b88 <printf>
								printf("R%i: calling minimaxAlgorithmRecursive with depth 0\n",depth);
    28fc:	e1400417 	ldw	r5,16(fp)
    2900:	010000b4 	movhi	r4,2
    2904:	21135b04 	addi	r4,r4,19820
    2908:	0005b880 	call	5b88 <printf>
							#endif
							//TODO should i do this? this is a dirty fix for when after a capture, the same stone is used twice.
							score = minimaxAlgorithmRecursive((unsigned char **)newBoard, enemy, enemyKing, friendly, friendlyKing, nextDirection, 0);
    290c:	e17ffd03 	ldbu	r5,-12(fp)
    2910:	e1bffe03 	ldbu	r6,-8(fp)
    2914:	e1fffb03 	ldbu	r7,-20(fp)
    2918:	e0bffc03 	ldbu	r2,-16(fp)
    291c:	e0ffa617 	ldw	r3,-360(fp)
    2920:	18c03fcc 	andi	r3,r3,255
    2924:	18c0201c 	xori	r3,r3,128
    2928:	18ffe004 	addi	r3,r3,-128
    292c:	e13fe104 	addi	r4,fp,-124
    2930:	d8000215 	stw	zero,8(sp)
    2934:	d8c00115 	stw	r3,4(sp)
    2938:	d8800015 	stw	r2,0(sp)
    293c:	00026480 	call	2648 <minimaxAlgorithmRecursive>
    2940:	e0bfa915 	stw	r2,-348(fp)
						}
						#if DEBUG
							printf("R%i: manCapture: adding score %i to linked list\n",depth,score);
    2944:	e1bfa917 	ldw	r6,-348(fp)
    2948:	e1400417 	ldw	r5,16(fp)
    294c:	010000b4 	movhi	r4,2
    2950:	21136904 	addi	r4,r4,19876
    2954:	0005b880 	call	5b88 <printf>
						#endif

						current = head;
    2958:	e0bfac17 	ldw	r2,-336(fp)
    295c:	e0bfa415 	stw	r2,-368(fp)
						#if DEBUG
							printf("R%i: manCapture: looping through linked list\n",depth);
    2960:	e1400417 	ldw	r5,16(fp)
    2964:	010000b4 	movhi	r4,2
    2968:	21137604 	addi	r4,r4,19928
    296c:	0005b880 	call	5b88 <printf>
						#endif
						while (current->next != NULL)
    2970:	00000306 	br	2980 <minimaxAlgorithmRecursive+0x338>
						{
							current = current->next;
    2974:	e0bfa417 	ldw	r2,-368(fp)
    2978:	10800017 	ldw	r2,0(r2)
    297c:	e0bfa415 	stw	r2,-368(fp)

						current = head;
						#if DEBUG
							printf("R%i: manCapture: looping through linked list\n",depth);
						#endif
						while (current->next != NULL)
    2980:	e0bfa417 	ldw	r2,-368(fp)
    2984:	10800017 	ldw	r2,0(r2)
    2988:	103ffa1e 	bne	r2,zero,2974 <__alt_data_end+0xfc002974>
						{
							current = current->next;
						}
						current->next = malloc(sizeof(node_t));
    298c:	01000204 	movi	r4,8
    2990:	0004fd00 	call	4fd0 <malloc>
    2994:	1007883a 	mov	r3,r2
    2998:	e0bfa417 	ldw	r2,-368(fp)
    299c:	10c00015 	stw	r3,0(r2)
						current->score = score;
    29a0:	e0bfa417 	ldw	r2,-368(fp)
    29a4:	e0ffa917 	ldw	r3,-348(fp)
    29a8:	10c00115 	stw	r3,4(r2)
					}

					#if DEBUG
						printf("R%i: checking if [%i][%i] can move\n",depth,row,field);
    29ac:	e0bfa503 	ldbu	r2,-364(fp)
    29b0:	e0ffa543 	ldbu	r3,-363(fp)
    29b4:	180f883a 	mov	r7,r3
    29b8:	100d883a 	mov	r6,r2
    29bc:	e1400417 	ldw	r5,16(fp)
    29c0:	010000b4 	movhi	r4,2
    29c4:	21138204 	addi	r4,r4,19976
    29c8:	0005b880 	call	5b88 <printf>
					#endif
					for(int d = 1;d<=4;d++)
    29cc:	00800044 	movi	r2,1
    29d0:	e0bfaa15 	stw	r2,-344(fp)
    29d4:	00006206 	br	2b60 <minimaxAlgorithmRecursive+0x518>
					{
						if(checkIfCanMove((unsigned char **)b, row, field, d, friendly, friendlyKing, enemy, enemyKing, direction) == 1)
    29d8:	e27fa503 	ldbu	r9,-364(fp)
    29dc:	e2bfa543 	ldbu	r10,-363(fp)
    29e0:	e0bffb03 	ldbu	r2,-20(fp)
    29e4:	e0fffc03 	ldbu	r3,-16(fp)
    29e8:	e13ffd03 	ldbu	r4,-12(fp)
    29ec:	e17ffe03 	ldbu	r5,-8(fp)
    29f0:	e1bfff07 	ldb	r6,-4(fp)
    29f4:	e23faf04 	addi	r8,fp,-324
    29f8:	d9800415 	stw	r6,16(sp)
    29fc:	d9400315 	stw	r5,12(sp)
    2a00:	d9000215 	stw	r4,8(sp)
    2a04:	d8c00115 	stw	r3,4(sp)
    2a08:	d8800015 	stw	r2,0(sp)
    2a0c:	e1ffaa17 	ldw	r7,-344(fp)
    2a10:	500d883a 	mov	r6,r10
    2a14:	480b883a 	mov	r5,r9
    2a18:	4009883a 	mov	r4,r8
    2a1c:	00018280 	call	1828 <checkIfCanMove>
    2a20:	10800058 	cmpnei	r2,r2,1
    2a24:	10004b1e 	bne	r2,zero,2b54 <minimaxAlgorithmRecursive+0x50c>
						{
							#if DEBUG
								printf("R%i: [%i][%i] can move with dir %i\n",depth,row,field,d);
    2a28:	e0ffa503 	ldbu	r3,-364(fp)
    2a2c:	e13fa543 	ldbu	r4,-363(fp)
    2a30:	e0bfaa17 	ldw	r2,-344(fp)
    2a34:	d8800015 	stw	r2,0(sp)
    2a38:	200f883a 	mov	r7,r4
    2a3c:	180d883a 	mov	r6,r3
    2a40:	e1400417 	ldw	r5,16(fp)
    2a44:	010000b4 	movhi	r4,2
    2a48:	21138b04 	addi	r4,r4,20012
    2a4c:	0005b880 	call	5b88 <printf>
							#endif
							unsigned char newBoard[10][10];
							memcpy(newBoard,b,100);
    2a50:	e0bfc804 	addi	r2,fp,-224
    2a54:	e0ffaf04 	addi	r3,fp,-324
    2a58:	01001904 	movi	r4,100
    2a5c:	200d883a 	mov	r6,r4
    2a60:	180b883a 	mov	r5,r3
    2a64:	1009883a 	mov	r4,r2
    2a68:	00058e80 	call	58e8 <memcpy>
							move((unsigned char **)newBoard, row, field, d, friendly, friendlyKing, enemy, enemyKing, direction);
    2a6c:	e27fa503 	ldbu	r9,-364(fp)
    2a70:	e2bfa543 	ldbu	r10,-363(fp)
    2a74:	e0bfaa17 	ldw	r2,-344(fp)
    2a78:	11c03fcc 	andi	r7,r2,255
    2a7c:	e0bffb03 	ldbu	r2,-20(fp)
    2a80:	e0fffc03 	ldbu	r3,-16(fp)
    2a84:	e13ffd03 	ldbu	r4,-12(fp)
    2a88:	e17ffe03 	ldbu	r5,-8(fp)
    2a8c:	e1bfff07 	ldb	r6,-4(fp)
    2a90:	e23fc804 	addi	r8,fp,-224
    2a94:	d9800415 	stw	r6,16(sp)
    2a98:	d9400315 	stw	r5,12(sp)
    2a9c:	d9000215 	stw	r4,8(sp)
    2aa0:	d8c00115 	stw	r3,4(sp)
    2aa4:	d8800015 	stw	r2,0(sp)
    2aa8:	500d883a 	mov	r6,r10
    2aac:	480b883a 	mov	r5,r9
    2ab0:	4009883a 	mov	r4,r8
    2ab4:	00022b40 	call	22b4 <move>
							int score = minimaxAlgorithmRecursive((unsigned char **)newBoard, enemy, enemyKing, friendly, friendlyKing, nextDirection, depth-1);
    2ab8:	e17ffd03 	ldbu	r5,-12(fp)
    2abc:	e1bffe03 	ldbu	r6,-8(fp)
    2ac0:	e1fffb03 	ldbu	r7,-20(fp)
    2ac4:	e0bffc03 	ldbu	r2,-16(fp)
    2ac8:	e0ffa617 	ldw	r3,-360(fp)
    2acc:	18c03fcc 	andi	r3,r3,255
    2ad0:	18c0201c 	xori	r3,r3,128
    2ad4:	18ffe004 	addi	r3,r3,-128
    2ad8:	e1000417 	ldw	r4,16(fp)
    2adc:	213fffc4 	addi	r4,r4,-1
    2ae0:	e23fc804 	addi	r8,fp,-224
    2ae4:	d9000215 	stw	r4,8(sp)
    2ae8:	d8c00115 	stw	r3,4(sp)
    2aec:	d8800015 	stw	r2,0(sp)
    2af0:	4009883a 	mov	r4,r8
    2af4:	00026480 	call	2648 <minimaxAlgorithmRecursive>
    2af8:	e0bfae15 	stw	r2,-328(fp)
							#if DEBUG
								printf("R%i: manMove: adding score %i to linked list\n",depth,score);
    2afc:	e1bfae17 	ldw	r6,-328(fp)
    2b00:	e1400417 	ldw	r5,16(fp)
    2b04:	010000b4 	movhi	r4,2
    2b08:	21139404 	addi	r4,r4,20048
    2b0c:	0005b880 	call	5b88 <printf>
							#endif
							current = head;
    2b10:	e0bfac17 	ldw	r2,-336(fp)
    2b14:	e0bfa415 	stw	r2,-368(fp)
							while (current->next != NULL) current = current->next;
    2b18:	00000306 	br	2b28 <minimaxAlgorithmRecursive+0x4e0>
    2b1c:	e0bfa417 	ldw	r2,-368(fp)
    2b20:	10800017 	ldw	r2,0(r2)
    2b24:	e0bfa415 	stw	r2,-368(fp)
    2b28:	e0bfa417 	ldw	r2,-368(fp)
    2b2c:	10800017 	ldw	r2,0(r2)
    2b30:	103ffa1e 	bne	r2,zero,2b1c <__alt_data_end+0xfc002b1c>
							current->next = malloc(sizeof(node_t));
    2b34:	01000204 	movi	r4,8
    2b38:	0004fd00 	call	4fd0 <malloc>
    2b3c:	1007883a 	mov	r3,r2
    2b40:	e0bfa417 	ldw	r2,-368(fp)
    2b44:	10c00015 	stw	r3,0(r2)
							current->score = score;
    2b48:	e0bfa417 	ldw	r2,-368(fp)
    2b4c:	e0ffae17 	ldw	r3,-328(fp)
    2b50:	10c00115 	stw	r3,4(r2)
					}

					#if DEBUG
						printf("R%i: checking if [%i][%i] can move\n",depth,row,field);
					#endif
					for(int d = 1;d<=4;d++)
    2b54:	e0bfaa17 	ldw	r2,-344(fp)
    2b58:	10800044 	addi	r2,r2,1
    2b5c:	e0bfaa15 	stw	r2,-344(fp)
    2b60:	e0bfaa17 	ldw	r2,-344(fp)
    2b64:	10800150 	cmplti	r2,r2,5
    2b68:	103f9b1e 	bne	r2,zero,29d8 <__alt_data_end+0xfc0029d8>

		node_t * current = head;

		for(unsigned char row = 0; row < 10; row++)
		{
			for(unsigned char field = 0; field < 10; field++)
    2b6c:	e0bfa543 	ldbu	r2,-363(fp)
    2b70:	10800044 	addi	r2,r2,1
    2b74:	e0bfa545 	stb	r2,-363(fp)
    2b78:	e0bfa543 	ldbu	r2,-363(fp)
    2b7c:	108002b0 	cmpltui	r2,r2,10
    2b80:	103ed31e 	bne	r2,zero,26d0 <__alt_data_end+0xfc0026d0>
		node_t * head = NULL;
		head = malloc(sizeof(node_t));

		node_t * current = head;

		for(unsigned char row = 0; row < 10; row++)
    2b84:	e0bfa503 	ldbu	r2,-364(fp)
    2b88:	10800044 	addi	r2,r2,1
    2b8c:	e0bfa505 	stb	r2,-364(fp)
    2b90:	e0bfa503 	ldbu	r2,-364(fp)
    2b94:	108002b0 	cmpltui	r2,r2,10
    2b98:	103ecb1e 	bne	r2,zero,26c8 <__alt_data_end+0xfc0026c8>
					*/
				}
			}
		}

		if(direction == FRIENDLYDIRECTION) bestScore = -1000;
    2b9c:	e0bfff07 	ldb	r2,-4(fp)
    2ba0:	10bfffd8 	cmpnei	r2,r2,-1
    2ba4:	1000031e 	bne	r2,zero,2bb4 <minimaxAlgorithmRecursive+0x56c>
    2ba8:	00bf0604 	movi	r2,-1000
    2bac:	e0bfa315 	stw	r2,-372(fp)
    2bb0:	00000206 	br	2bbc <minimaxAlgorithmRecursive+0x574>
		else bestScore = 1000;
    2bb4:	0080fa04 	movi	r2,1000
    2bb8:	e0bfa315 	stw	r2,-372(fp)

		//remove last item in the list
		//if there is only one item in the list, remove it
		if (head->next == NULL) free(head);
    2bbc:	e0bfac17 	ldw	r2,-336(fp)
    2bc0:	10800017 	ldw	r2,0(r2)
    2bc4:	1000021e 	bne	r2,zero,2bd0 <minimaxAlgorithmRecursive+0x588>
    2bc8:	e13fac17 	ldw	r4,-336(fp)
    2bcc:	0004fe40 	call	4fe4 <free>
		//get to the second to last node in the list
		current = head;
    2bd0:	e0bfac17 	ldw	r2,-336(fp)
    2bd4:	e0bfa415 	stw	r2,-368(fp)
		while (current->next->next != NULL) current = current->next;
    2bd8:	00000306 	br	2be8 <minimaxAlgorithmRecursive+0x5a0>
    2bdc:	e0bfa417 	ldw	r2,-368(fp)
    2be0:	10800017 	ldw	r2,0(r2)
    2be4:	e0bfa415 	stw	r2,-368(fp)
    2be8:	e0bfa417 	ldw	r2,-368(fp)
    2bec:	10800017 	ldw	r2,0(r2)
    2bf0:	10800017 	ldw	r2,0(r2)
    2bf4:	103ff91e 	bne	r2,zero,2bdc <__alt_data_end+0xfc002bdc>
		//now current points to the second to last item of the list, so let's remove current->next
		free(current->next);
    2bf8:	e0bfa417 	ldw	r2,-368(fp)
    2bfc:	10800017 	ldw	r2,0(r2)
    2c00:	1009883a 	mov	r4,r2
    2c04:	0004fe40 	call	4fe4 <free>
		current->next = NULL;
    2c08:	e0bfa417 	ldw	r2,-368(fp)
    2c0c:	10000015 	stw	zero,0(r2)

		#if DEBUG
			printf("R%i list: \n",depth);
    2c10:	e1400417 	ldw	r5,16(fp)
    2c14:	010000b4 	movhi	r4,2
    2c18:	2113a004 	addi	r4,r4,20096
    2c1c:	0005b880 	call	5b88 <printf>
			current = head;
    2c20:	e0bfac17 	ldw	r2,-336(fp)
    2c24:	e0bfa415 	stw	r2,-368(fp)
			while(current != NULL)
    2c28:	00000906 	br	2c50 <minimaxAlgorithmRecursive+0x608>
			{
				printf("score: %i\n",current->score);
    2c2c:	e0bfa417 	ldw	r2,-368(fp)
    2c30:	10800117 	ldw	r2,4(r2)
    2c34:	100b883a 	mov	r5,r2
    2c38:	010000b4 	movhi	r4,2
    2c3c:	2113a304 	addi	r4,r4,20108
    2c40:	0005b880 	call	5b88 <printf>
				current = current->next;
    2c44:	e0bfa417 	ldw	r2,-368(fp)
    2c48:	10800017 	ldw	r2,0(r2)
    2c4c:	e0bfa415 	stw	r2,-368(fp)
		current->next = NULL;

		#if DEBUG
			printf("R%i list: \n",depth);
			current = head;
			while(current != NULL)
    2c50:	e0bfa417 	ldw	r2,-368(fp)
    2c54:	103ff51e 	bne	r2,zero,2c2c <__alt_data_end+0xfc002c2c>
				printf("score: %i\n",current->score);
				current = current->next;
			}
		#endif

		current = head;
    2c58:	e0bfac17 	ldw	r2,-336(fp)
    2c5c:	e0bfa415 	stw	r2,-368(fp)
		while (current != NULL)
    2c60:	00002e06 	br	2d1c <minimaxAlgorithmRecursive+0x6d4>
		{
			if(direction == FRIENDLYDIRECTION && current->score > bestScore)
    2c64:	e0bfff07 	ldb	r2,-4(fp)
    2c68:	10bfffd8 	cmpnei	r2,r2,-1
    2c6c:	10000f1e 	bne	r2,zero,2cac <minimaxAlgorithmRecursive+0x664>
    2c70:	e0bfa417 	ldw	r2,-368(fp)
    2c74:	10800117 	ldw	r2,4(r2)
    2c78:	e0ffa317 	ldw	r3,-372(fp)
    2c7c:	18800b0e 	bge	r3,r2,2cac <minimaxAlgorithmRecursive+0x664>
			{
				#if DEBUG
					printf("score %i is bigger than best score %i, overwriting\n",current->score,bestScore);
    2c80:	e0bfa417 	ldw	r2,-368(fp)
    2c84:	10800117 	ldw	r2,4(r2)
    2c88:	e1bfa317 	ldw	r6,-372(fp)
    2c8c:	100b883a 	mov	r5,r2
    2c90:	010000b4 	movhi	r4,2
    2c94:	2113a604 	addi	r4,r4,20120
    2c98:	0005b880 	call	5b88 <printf>
				#endif
				bestScore = current->score;
    2c9c:	e0bfa417 	ldw	r2,-368(fp)
    2ca0:	10800117 	ldw	r2,4(r2)
    2ca4:	e0bfa315 	stw	r2,-372(fp)
    2ca8:	00001906 	br	2d10 <minimaxAlgorithmRecursive+0x6c8>
			}
			else if(direction == ENEMYDIRECTION && current->score < bestScore)
    2cac:	e0bfff07 	ldb	r2,-4(fp)
    2cb0:	10800058 	cmpnei	r2,r2,1
    2cb4:	10000f1e 	bne	r2,zero,2cf4 <minimaxAlgorithmRecursive+0x6ac>
    2cb8:	e0bfa417 	ldw	r2,-368(fp)
    2cbc:	10c00117 	ldw	r3,4(r2)
    2cc0:	e0bfa317 	ldw	r2,-372(fp)
    2cc4:	18800b0e 	bge	r3,r2,2cf4 <minimaxAlgorithmRecursive+0x6ac>
			{
				#if DEBUG
					printf("score %i is smaller than best score %i, overwriting\n",current->score,bestScore);
    2cc8:	e0bfa417 	ldw	r2,-368(fp)
    2ccc:	10800117 	ldw	r2,4(r2)
    2cd0:	e1bfa317 	ldw	r6,-372(fp)
    2cd4:	100b883a 	mov	r5,r2
    2cd8:	010000b4 	movhi	r4,2
    2cdc:	2113b304 	addi	r4,r4,20172
    2ce0:	0005b880 	call	5b88 <printf>
				#endif
				bestScore = current->score;
    2ce4:	e0bfa417 	ldw	r2,-368(fp)
    2ce8:	10800117 	ldw	r2,4(r2)
    2cec:	e0bfa315 	stw	r2,-372(fp)
    2cf0:	00000706 	br	2d10 <minimaxAlgorithmRecursive+0x6c8>
			}
			#if DEBUG
				else
				{
					printf("score %i is not better than best score %i, not overwriting\n",current->score,bestScore);
    2cf4:	e0bfa417 	ldw	r2,-368(fp)
    2cf8:	10800117 	ldw	r2,4(r2)
    2cfc:	e1bfa317 	ldw	r6,-372(fp)
    2d00:	100b883a 	mov	r5,r2
    2d04:	010000b4 	movhi	r4,2
    2d08:	2113c104 	addi	r4,r4,20228
    2d0c:	0005b880 	call	5b88 <printf>
				}
			#endif
			current = current->next;
    2d10:	e0bfa417 	ldw	r2,-368(fp)
    2d14:	10800017 	ldw	r2,0(r2)
    2d18:	e0bfa415 	stw	r2,-368(fp)
				current = current->next;
			}
		#endif

		current = head;
		while (current != NULL)
    2d1c:	e0bfa417 	ldw	r2,-368(fp)
    2d20:	103fd01e 	bne	r2,zero,2c64 <__alt_data_end+0xfc002c64>
				}
			#endif
			current = current->next;
		}
		#if DEBUG
			printf("R%i: iterated, bestScore is %i\n",depth,bestScore);
    2d24:	e1bfa317 	ldw	r6,-372(fp)
    2d28:	e1400417 	ldw	r5,16(fp)
    2d2c:	010000b4 	movhi	r4,2
    2d30:	2113d004 	addi	r4,r4,20288
    2d34:	0005b880 	call	5b88 <printf>
    2d38:	00005506 	br	2e90 <minimaxAlgorithmRecursive+0x848>
		#endif
		*/
	}
	else
	{
		bestScore = 0;
    2d3c:	e03fa315 	stw	zero,-372(fp)
		//calculate score to return
		for(unsigned char row = 0;row<10;row++)
    2d40:	e03fab05 	stb	zero,-340(fp)
    2d44:	00004a06 	br	2e70 <minimaxAlgorithmRecursive+0x828>
		{
			for(unsigned char field = 0;field<10;field++)
    2d48:	e03fab45 	stb	zero,-339(fp)
    2d4c:	00004206 	br	2e58 <minimaxAlgorithmRecursive+0x810>
			{
				if(b[row][field] == FRIENDLY)		bestScore = bestScore + (9-row);
    2d50:	e0ffab03 	ldbu	r3,-340(fp)
    2d54:	e0bfab43 	ldbu	r2,-339(fp)
    2d58:	18c002a4 	muli	r3,r3,10
    2d5c:	e13fa304 	addi	r4,fp,-372
    2d60:	20c7883a 	add	r3,r4,r3
    2d64:	1885883a 	add	r2,r3,r2
    2d68:	10800c04 	addi	r2,r2,48
    2d6c:	10800003 	ldbu	r2,0(r2)
    2d70:	10803fcc 	andi	r2,r2,255
    2d74:	10800098 	cmpnei	r2,r2,2
    2d78:	1000071e 	bne	r2,zero,2d98 <minimaxAlgorithmRecursive+0x750>
    2d7c:	e0bfab03 	ldbu	r2,-340(fp)
    2d80:	00c00244 	movi	r3,9
    2d84:	1885c83a 	sub	r2,r3,r2
    2d88:	e0ffa317 	ldw	r3,-372(fp)
    2d8c:	1885883a 	add	r2,r3,r2
    2d90:	e0bfa315 	stw	r2,-372(fp)
    2d94:	00002d06 	br	2e4c <minimaxAlgorithmRecursive+0x804>
				else if(b[row][field] == FRIENDLYKING)	bestScore = bestScore + 9;
    2d98:	e0ffab03 	ldbu	r3,-340(fp)
    2d9c:	e0bfab43 	ldbu	r2,-339(fp)
    2da0:	18c002a4 	muli	r3,r3,10
    2da4:	e13fa304 	addi	r4,fp,-372
    2da8:	20c7883a 	add	r3,r4,r3
    2dac:	1885883a 	add	r2,r3,r2
    2db0:	10800c04 	addi	r2,r2,48
    2db4:	10800003 	ldbu	r2,0(r2)
    2db8:	10803fcc 	andi	r2,r2,255
    2dbc:	108000d8 	cmpnei	r2,r2,3
    2dc0:	1000041e 	bne	r2,zero,2dd4 <minimaxAlgorithmRecursive+0x78c>
    2dc4:	e0bfa317 	ldw	r2,-372(fp)
    2dc8:	10800244 	addi	r2,r2,9
    2dcc:	e0bfa315 	stw	r2,-372(fp)
    2dd0:	00001e06 	br	2e4c <minimaxAlgorithmRecursive+0x804>
				else if(b[row][field] == ENEMY)		bestScore = bestScore - row;
    2dd4:	e0ffab03 	ldbu	r3,-340(fp)
    2dd8:	e0bfab43 	ldbu	r2,-339(fp)
    2ddc:	18c002a4 	muli	r3,r3,10
    2de0:	e13fa304 	addi	r4,fp,-372
    2de4:	20c7883a 	add	r3,r4,r3
    2de8:	1885883a 	add	r2,r3,r2
    2dec:	10800c04 	addi	r2,r2,48
    2df0:	10800003 	ldbu	r2,0(r2)
    2df4:	10803fcc 	andi	r2,r2,255
    2df8:	10800118 	cmpnei	r2,r2,4
    2dfc:	1000051e 	bne	r2,zero,2e14 <minimaxAlgorithmRecursive+0x7cc>
    2e00:	e0bfab03 	ldbu	r2,-340(fp)
    2e04:	e0ffa317 	ldw	r3,-372(fp)
    2e08:	1885c83a 	sub	r2,r3,r2
    2e0c:	e0bfa315 	stw	r2,-372(fp)
    2e10:	00000e06 	br	2e4c <minimaxAlgorithmRecursive+0x804>
				else if(b[row][field] == ENEMYKING)	bestScore = bestScore - 9;
    2e14:	e0ffab03 	ldbu	r3,-340(fp)
    2e18:	e0bfab43 	ldbu	r2,-339(fp)
    2e1c:	18c002a4 	muli	r3,r3,10
    2e20:	e13fa304 	addi	r4,fp,-372
    2e24:	20c7883a 	add	r3,r4,r3
    2e28:	1885883a 	add	r2,r3,r2
    2e2c:	10800c04 	addi	r2,r2,48
    2e30:	10800003 	ldbu	r2,0(r2)
    2e34:	10803fcc 	andi	r2,r2,255
    2e38:	10800158 	cmpnei	r2,r2,5
    2e3c:	1000031e 	bne	r2,zero,2e4c <minimaxAlgorithmRecursive+0x804>
    2e40:	e0bfa317 	ldw	r2,-372(fp)
    2e44:	10bffdc4 	addi	r2,r2,-9
    2e48:	e0bfa315 	stw	r2,-372(fp)
	{
		bestScore = 0;
		//calculate score to return
		for(unsigned char row = 0;row<10;row++)
		{
			for(unsigned char field = 0;field<10;field++)
    2e4c:	e0bfab43 	ldbu	r2,-339(fp)
    2e50:	10800044 	addi	r2,r2,1
    2e54:	e0bfab45 	stb	r2,-339(fp)
    2e58:	e0bfab43 	ldbu	r2,-339(fp)
    2e5c:	108002b0 	cmpltui	r2,r2,10
    2e60:	103fbb1e 	bne	r2,zero,2d50 <__alt_data_end+0xfc002d50>
	}
	else
	{
		bestScore = 0;
		//calculate score to return
		for(unsigned char row = 0;row<10;row++)
    2e64:	e0bfab03 	ldbu	r2,-340(fp)
    2e68:	10800044 	addi	r2,r2,1
    2e6c:	e0bfab05 	stb	r2,-340(fp)
    2e70:	e0bfab03 	ldbu	r2,-340(fp)
    2e74:	108002b0 	cmpltui	r2,r2,10
    2e78:	103fb31e 	bne	r2,zero,2d48 <__alt_data_end+0xfc002d48>
				else if(b[row][field] == ENEMY)		bestScore = bestScore - row;
				else if(b[row][field] == ENEMYKING)	bestScore = bestScore - 9;
			}
		}
		#if DEBUG
			printf("R%i: calculated score: %i\n",depth,bestScore);
    2e7c:	e1bfa317 	ldw	r6,-372(fp)
    2e80:	e1400417 	ldw	r5,16(fp)
    2e84:	010000b4 	movhi	r4,2
    2e88:	2113d804 	addi	r4,r4,20320
    2e8c:	0005b880 	call	5b88 <printf>
		#endif
	}

	return bestScore;
    2e90:	e0bfa317 	ldw	r2,-372(fp)
}
    2e94:	e037883a 	mov	sp,fp
    2e98:	dfc00117 	ldw	ra,4(sp)
    2e9c:	df000017 	ldw	fp,0(sp)
    2ea0:	dec00204 	addi	sp,sp,8
    2ea4:	f800283a 	ret

00002ea8 <minimaxAlgorithm>:

int minimaxAlgorithm(unsigned char * tempBoard[], unsigned char friendly, unsigned char friendlyKing, unsigned char enemy, unsigned char enemyKing, signed char direction, int depth)
{
    2ea8:	deff9804 	addi	sp,sp,-416
    2eac:	dfc06715 	stw	ra,412(sp)
    2eb0:	df006615 	stw	fp,408(sp)
    2eb4:	df006604 	addi	fp,sp,408
    2eb8:	e13ffa15 	stw	r4,-24(fp)
    2ebc:	2811883a 	mov	r8,r5
    2ec0:	300b883a 	mov	r5,r6
    2ec4:	3809883a 	mov	r4,r7
    2ec8:	e0c00217 	ldw	r3,8(fp)
    2ecc:	e0800317 	ldw	r2,12(fp)
    2ed0:	e23ffb05 	stb	r8,-20(fp)
    2ed4:	e17ffc05 	stb	r5,-16(fp)
    2ed8:	e13ffd05 	stb	r4,-12(fp)
    2edc:	e0fffe05 	stb	r3,-8(fp)
    2ee0:	e0bfff05 	stb	r2,-4(fp)
	createKing((unsigned char **)tempBoard);
    2ee4:	e13ffa17 	ldw	r4,-24(fp)
    2ee8:	00025740 	call	2574 <createKing>

	unsigned char b[10][10];
	memcpy(b,tempBoard,100);
    2eec:	e0bfaf04 	addi	r2,fp,-324
    2ef0:	01801904 	movi	r6,100
    2ef4:	e17ffa17 	ldw	r5,-24(fp)
    2ef8:	1009883a 	mov	r4,r2
    2efc:	00058e80 	call	58e8 <memcpy>

	//if(direction == FRIENDLYDIRECTION) best->score = -1000;
	//else best->score = 1000;
	//printf("S: made best score %i\n",best->score);

	nodemove_t * head = NULL;
    2f00:	e03f9f15 	stw	zero,-388(fp)
	head = malloc(sizeof(nodemove_t));
    2f04:	01000404 	movi	r4,16
    2f08:	0004fd00 	call	4fd0 <malloc>
    2f0c:	e0bf9f15 	stw	r2,-388(fp)
	nodemove_t * current = head;
    2f10:	e0bf9f17 	ldw	r2,-388(fp)
    2f14:	e0bfa015 	stw	r2,-384(fp)

	int thereAreFriendliesLeft = 0;
    2f18:	e03fa115 	stw	zero,-380(fp)

	for(unsigned char row = 0; row < 10; row++)
    2f1c:	e03fa205 	stb	zero,-376(fp)
    2f20:	00012706 	br	33c0 <minimaxAlgorithm+0x518>
	{
		for(unsigned char field = 0; field < 10; field++)
    2f24:	e03fa245 	stb	zero,-375(fp)
    2f28:	00011f06 	br	33a8 <minimaxAlgorithm+0x500>
		{
			if(b[row][field] == friendly)
    2f2c:	e0ffa203 	ldbu	r3,-376(fp)
    2f30:	e0bfa243 	ldbu	r2,-375(fp)
    2f34:	18c002a4 	muli	r3,r3,10
    2f38:	e13f9f04 	addi	r4,fp,-388
    2f3c:	20c7883a 	add	r3,r4,r3
    2f40:	1885883a 	add	r2,r3,r2
    2f44:	10801004 	addi	r2,r2,64
    2f48:	10800003 	ldbu	r2,0(r2)
    2f4c:	10c03fcc 	andi	r3,r2,255
    2f50:	e0bffb03 	ldbu	r2,-20(fp)
    2f54:	1881111e 	bne	r3,r2,339c <minimaxAlgorithm+0x4f4>
			{
				thereAreFriendliesLeft = 1;
    2f58:	00800044 	movi	r2,1
    2f5c:	e0bfa115 	stw	r2,-380(fp)
				int nextDirection;
				if(direction == FRIENDLYDIRECTION) nextDirection = ENEMYDIRECTION;
    2f60:	e0bfff07 	ldb	r2,-4(fp)
    2f64:	10bfffd8 	cmpnei	r2,r2,-1
    2f68:	1000021e 	bne	r2,zero,2f74 <minimaxAlgorithm+0xcc>
    2f6c:	00800044 	movi	r2,1
    2f70:	e0bfa315 	stw	r2,-372(fp)
				if(direction == ENEMYDIRECTION) nextDirection = FRIENDLYDIRECTION;
    2f74:	e0bfff07 	ldb	r2,-4(fp)
    2f78:	10800058 	cmpnei	r2,r2,1
    2f7c:	1000021e 	bne	r2,zero,2f88 <minimaxAlgorithm+0xe0>
    2f80:	00bfffc4 	movi	r2,-1
    2f84:	e0bfa315 	stw	r2,-372(fp)

				unsigned char newBoard[10][10];
				memcpy(newBoard,b,100);
    2f88:	e0bfe104 	addi	r2,fp,-124
    2f8c:	e0ffaf04 	addi	r3,fp,-324
    2f90:	01001904 	movi	r4,100
    2f94:	200d883a 	mov	r6,r4
    2f98:	180b883a 	mov	r5,r3
    2f9c:	1009883a 	mov	r4,r2
    2fa0:	00058e80 	call	58e8 <memcpy>

				int captured = manCapture((unsigned char **)newBoard, row, field, friendly, friendlyKing, enemy, enemyKing);
    2fa4:	e17fa203 	ldbu	r5,-376(fp)
    2fa8:	e1bfa243 	ldbu	r6,-375(fp)
    2fac:	e1fffb03 	ldbu	r7,-20(fp)
    2fb0:	e0bffc03 	ldbu	r2,-16(fp)
    2fb4:	e0fffd03 	ldbu	r3,-12(fp)
    2fb8:	e13ffe03 	ldbu	r4,-8(fp)
    2fbc:	e23fe104 	addi	r8,fp,-124
    2fc0:	d9000215 	stw	r4,8(sp)
    2fc4:	d8c00115 	stw	r3,4(sp)
    2fc8:	d8800015 	stw	r2,0(sp)
    2fcc:	4009883a 	mov	r4,r8
    2fd0:	00013700 	call	1370 <manCapture>
    2fd4:	10803fcc 	andi	r2,r2,255
    2fd8:	e0bfab15 	stw	r2,-340(fp)
				if(captured)
    2fdc:	e0bfab17 	ldw	r2,-340(fp)
    2fe0:	10007d26 	beq	r2,zero,31d8 <minimaxAlgorithm+0x330>
				{
					#if DEBUG
						printf("S : [%i][%i] can capture\n",row,field);
    2fe4:	e0bfa203 	ldbu	r2,-376(fp)
    2fe8:	e0ffa243 	ldbu	r3,-375(fp)
    2fec:	180d883a 	mov	r6,r3
    2ff0:	100b883a 	mov	r5,r2
    2ff4:	010000b4 	movhi	r4,2
    2ff8:	2113df04 	addi	r4,r4,20348
    2ffc:	0005b880 	call	5b88 <printf>
					#endif
					int enemiesLeft = 0;
    3000:	e03fa415 	stw	zero,-368(fp)
					for(unsigned char r = 0; r < 10; r++)
    3004:	e03fa505 	stb	zero,-364(fp)
    3008:	00002306 	br	3098 <minimaxAlgorithm+0x1f0>
					{
						for(unsigned char f = 0; f < 10; f++)
    300c:	e03fa545 	stb	zero,-363(fp)
    3010:	00001b06 	br	3080 <minimaxAlgorithm+0x1d8>
						{
							if(newBoard[row][field] == enemy || newBoard[row][field] == enemyKing)
    3014:	e0ffa203 	ldbu	r3,-376(fp)
    3018:	e0bfa243 	ldbu	r2,-375(fp)
    301c:	18c002a4 	muli	r3,r3,10
    3020:	e13f9f04 	addi	r4,fp,-388
    3024:	20c7883a 	add	r3,r4,r3
    3028:	1885883a 	add	r2,r3,r2
    302c:	10804204 	addi	r2,r2,264
    3030:	10800003 	ldbu	r2,0(r2)
    3034:	10c03fcc 	andi	r3,r2,255
    3038:	e0bffd03 	ldbu	r2,-12(fp)
    303c:	18800b26 	beq	r3,r2,306c <minimaxAlgorithm+0x1c4>
    3040:	e0ffa203 	ldbu	r3,-376(fp)
    3044:	e0bfa243 	ldbu	r2,-375(fp)
    3048:	18c002a4 	muli	r3,r3,10
    304c:	e13f9f04 	addi	r4,fp,-388
    3050:	20c7883a 	add	r3,r4,r3
    3054:	1885883a 	add	r2,r3,r2
    3058:	10804204 	addi	r2,r2,264
    305c:	10800003 	ldbu	r2,0(r2)
    3060:	10c03fcc 	andi	r3,r2,255
    3064:	e0bffe03 	ldbu	r2,-8(fp)
    3068:	1880021e 	bne	r3,r2,3074 <minimaxAlgorithm+0x1cc>
							{
								enemiesLeft = 1;
    306c:	00800044 	movi	r2,1
    3070:	e0bfa415 	stw	r2,-368(fp)
						printf("S : [%i][%i] can capture\n",row,field);
					#endif
					int enemiesLeft = 0;
					for(unsigned char r = 0; r < 10; r++)
					{
						for(unsigned char f = 0; f < 10; f++)
    3074:	e0bfa543 	ldbu	r2,-363(fp)
    3078:	10800044 	addi	r2,r2,1
    307c:	e0bfa545 	stb	r2,-363(fp)
    3080:	e0bfa543 	ldbu	r2,-363(fp)
    3084:	108002b0 	cmpltui	r2,r2,10
    3088:	103fe21e 	bne	r2,zero,3014 <__alt_data_end+0xfc003014>
				{
					#if DEBUG
						printf("S : [%i][%i] can capture\n",row,field);
					#endif
					int enemiesLeft = 0;
					for(unsigned char r = 0; r < 10; r++)
    308c:	e0bfa503 	ldbu	r2,-364(fp)
    3090:	10800044 	addi	r2,r2,1
    3094:	e0bfa505 	stb	r2,-364(fp)
    3098:	e0bfa503 	ldbu	r2,-364(fp)
    309c:	108002b0 	cmpltui	r2,r2,10
    30a0:	103fda1e 	bne	r2,zero,300c <__alt_data_end+0xfc00300c>
								enemiesLeft = 1;
							}
						}
					}
					#if DEBUG
						printf("enemiesLeft: %i\n",enemiesLeft);
    30a4:	e17fa417 	ldw	r5,-368(fp)
    30a8:	010000b4 	movhi	r4,2
    30ac:	2113e604 	addi	r4,r4,20376
    30b0:	0005b880 	call	5b88 <printf>
					#endif
					int score;
					if(enemiesLeft == 1)
    30b4:	e0bfa417 	ldw	r2,-368(fp)
    30b8:	10800058 	cmpnei	r2,r2,1
    30bc:	1000151e 	bne	r2,zero,3114 <minimaxAlgorithm+0x26c>
					{
						#if DEBUG
							printf("S : there are enemies left");
    30c0:	010000b4 	movhi	r4,2
    30c4:	2113eb04 	addi	r4,r4,20396
    30c8:	0005b880 	call	5b88 <printf>
						#endif
						score = minimaxAlgorithmRecursive((unsigned char **)newBoard, enemy, enemyKing, friendly, friendlyKing, nextDirection, depth-1);
    30cc:	e17ffd03 	ldbu	r5,-12(fp)
    30d0:	e1bffe03 	ldbu	r6,-8(fp)
    30d4:	e1fffb03 	ldbu	r7,-20(fp)
    30d8:	e0bffc03 	ldbu	r2,-16(fp)
    30dc:	e0ffa317 	ldw	r3,-372(fp)
    30e0:	18c03fcc 	andi	r3,r3,255
    30e4:	18c0201c 	xori	r3,r3,128
    30e8:	18ffe004 	addi	r3,r3,-128
    30ec:	e1000417 	ldw	r4,16(fp)
    30f0:	213fffc4 	addi	r4,r4,-1
    30f4:	e23fe104 	addi	r8,fp,-124
    30f8:	d9000215 	stw	r4,8(sp)
    30fc:	d8c00115 	stw	r3,4(sp)
    3100:	d8800015 	stw	r2,0(sp)
    3104:	4009883a 	mov	r4,r8
    3108:	00026480 	call	2648 <minimaxAlgorithmRecursive>
    310c:	e0bfa615 	stw	r2,-360(fp)
    3110:	00001106 	br	3158 <minimaxAlgorithm+0x2b0>
					}
					else
					{
						#if DEBUG
							printf("S : manCapture: there are no enemies left\n");
    3114:	010000b4 	movhi	r4,2
    3118:	2113f204 	addi	r4,r4,20424
    311c:	0005ca40 	call	5ca4 <puts>
						#endif
						// if there are no enemies left
						score = minimaxAlgorithmRecursive((unsigned char **)newBoard, enemy, enemyKing, friendly, friendlyKing, nextDirection, 0);
    3120:	e17ffd03 	ldbu	r5,-12(fp)
    3124:	e1bffe03 	ldbu	r6,-8(fp)
    3128:	e1fffb03 	ldbu	r7,-20(fp)
    312c:	e0bffc03 	ldbu	r2,-16(fp)
    3130:	e0ffa317 	ldw	r3,-372(fp)
    3134:	18c03fcc 	andi	r3,r3,255
    3138:	18c0201c 	xori	r3,r3,128
    313c:	18ffe004 	addi	r3,r3,-128
    3140:	e13fe104 	addi	r4,fp,-124
    3144:	d8000215 	stw	zero,8(sp)
    3148:	d8c00115 	stw	r3,4(sp)
    314c:	d8800015 	stw	r2,0(sp)
    3150:	00026480 	call	2648 <minimaxAlgorithmRecursive>
    3154:	e0bfa615 	stw	r2,-360(fp)
					}
					#if DEBUG
						printf("S : adding score %i to list\n",score);
    3158:	e17fa617 	ldw	r5,-360(fp)
    315c:	010000b4 	movhi	r4,2
    3160:	2113fd04 	addi	r4,r4,20468
    3164:	0005b880 	call	5b88 <printf>
					#endif
					current = head;
    3168:	e0bf9f17 	ldw	r2,-388(fp)
    316c:	e0bfa015 	stw	r2,-384(fp)
					while (current->next != NULL) current = current->next;
    3170:	00000306 	br	3180 <minimaxAlgorithm+0x2d8>
    3174:	e0bfa017 	ldw	r2,-384(fp)
    3178:	10800017 	ldw	r2,0(r2)
    317c:	e0bfa015 	stw	r2,-384(fp)
    3180:	e0bfa017 	ldw	r2,-384(fp)
    3184:	10800017 	ldw	r2,0(r2)
    3188:	103ffa1e 	bne	r2,zero,3174 <__alt_data_end+0xfc003174>
					current->next = malloc(sizeof(nodemove_t));
    318c:	01000404 	movi	r4,16
    3190:	0004fd00 	call	4fd0 <malloc>
    3194:	1007883a 	mov	r3,r2
    3198:	e0bfa017 	ldw	r2,-384(fp)
    319c:	10c00015 	stw	r3,0(r2)
					current->score = score;
    31a0:	e0bfa017 	ldw	r2,-384(fp)
    31a4:	e0ffa617 	ldw	r3,-360(fp)
    31a8:	10c00115 	stw	r3,4(r2)
					current->row = row;
    31ac:	e0bfa017 	ldw	r2,-384(fp)
    31b0:	e0ffa203 	ldbu	r3,-376(fp)
    31b4:	10c00205 	stb	r3,8(r2)
					current->field = field;
    31b8:	e0bfa017 	ldw	r2,-384(fp)
    31bc:	e0ffa243 	ldbu	r3,-375(fp)
    31c0:	10c00245 	stb	r3,9(r2)
					current->dir = 0;
    31c4:	e0bfa017 	ldw	r2,-384(fp)
    31c8:	10000285 	stb	zero,10(r2)
					current->isCapture = 1;
    31cc:	e0bfa017 	ldw	r2,-384(fp)
    31d0:	00c00044 	movi	r3,1
    31d4:	10c002c5 	stb	r3,11(r2)
				}

				for(int d = 1;d<=4;d++)
    31d8:	00800044 	movi	r2,1
    31dc:	e0bfa715 	stw	r2,-356(fp)
    31e0:	00006b06 	br	3390 <minimaxAlgorithm+0x4e8>
				{
					if(checkIfCanMove((unsigned char **)b, row, field, d, friendly, friendlyKing, enemy, enemyKing, direction) == 1)
    31e4:	e27fa203 	ldbu	r9,-376(fp)
    31e8:	e2bfa243 	ldbu	r10,-375(fp)
    31ec:	e0bffb03 	ldbu	r2,-20(fp)
    31f0:	e0fffc03 	ldbu	r3,-16(fp)
    31f4:	e13ffd03 	ldbu	r4,-12(fp)
    31f8:	e17ffe03 	ldbu	r5,-8(fp)
    31fc:	e1bfff07 	ldb	r6,-4(fp)
    3200:	e23faf04 	addi	r8,fp,-324
    3204:	d9800415 	stw	r6,16(sp)
    3208:	d9400315 	stw	r5,12(sp)
    320c:	d9000215 	stw	r4,8(sp)
    3210:	d8c00115 	stw	r3,4(sp)
    3214:	d8800015 	stw	r2,0(sp)
    3218:	e1ffa717 	ldw	r7,-356(fp)
    321c:	500d883a 	mov	r6,r10
    3220:	480b883a 	mov	r5,r9
    3224:	4009883a 	mov	r4,r8
    3228:	00018280 	call	1828 <checkIfCanMove>
    322c:	10800058 	cmpnei	r2,r2,1
    3230:	1000541e 	bne	r2,zero,3384 <minimaxAlgorithm+0x4dc>
					{
						#if DEBUG
							printf("S : [%i][%i] dir %i can move\n",row,field,d);
    3234:	e0bfa203 	ldbu	r2,-376(fp)
    3238:	e0ffa243 	ldbu	r3,-375(fp)
    323c:	e1ffa717 	ldw	r7,-356(fp)
    3240:	180d883a 	mov	r6,r3
    3244:	100b883a 	mov	r5,r2
    3248:	010000b4 	movhi	r4,2
    324c:	21140504 	addi	r4,r4,20500
    3250:	0005b880 	call	5b88 <printf>
						#endif
						unsigned char newBoard[10][10];
						memcpy(newBoard,b,100);
    3254:	e0bfc804 	addi	r2,fp,-224
    3258:	e0ffaf04 	addi	r3,fp,-324
    325c:	01001904 	movi	r4,100
    3260:	200d883a 	mov	r6,r4
    3264:	180b883a 	mov	r5,r3
    3268:	1009883a 	mov	r4,r2
    326c:	00058e80 	call	58e8 <memcpy>
						move((unsigned char **)newBoard, row, field, d, friendly, friendlyKing, enemy, enemyKing, direction);
    3270:	e27fa203 	ldbu	r9,-376(fp)
    3274:	e2bfa243 	ldbu	r10,-375(fp)
    3278:	e0bfa717 	ldw	r2,-356(fp)
    327c:	11c03fcc 	andi	r7,r2,255
    3280:	e0bffb03 	ldbu	r2,-20(fp)
    3284:	e0fffc03 	ldbu	r3,-16(fp)
    3288:	e13ffd03 	ldbu	r4,-12(fp)
    328c:	e17ffe03 	ldbu	r5,-8(fp)
    3290:	e1bfff07 	ldb	r6,-4(fp)
    3294:	e23fc804 	addi	r8,fp,-224
    3298:	d9800415 	stw	r6,16(sp)
    329c:	d9400315 	stw	r5,12(sp)
    32a0:	d9000215 	stw	r4,8(sp)
    32a4:	d8c00115 	stw	r3,4(sp)
    32a8:	d8800015 	stw	r2,0(sp)
    32ac:	500d883a 	mov	r6,r10
    32b0:	480b883a 	mov	r5,r9
    32b4:	4009883a 	mov	r4,r8
    32b8:	00022b40 	call	22b4 <move>
						int score = minimaxAlgorithmRecursive((unsigned char **)newBoard, enemy, enemyKing, friendly, friendlyKing, nextDirection, depth-1);
    32bc:	e17ffd03 	ldbu	r5,-12(fp)
    32c0:	e1bffe03 	ldbu	r6,-8(fp)
    32c4:	e1fffb03 	ldbu	r7,-20(fp)
    32c8:	e0bffc03 	ldbu	r2,-16(fp)
    32cc:	e0ffa317 	ldw	r3,-372(fp)
    32d0:	18c03fcc 	andi	r3,r3,255
    32d4:	18c0201c 	xori	r3,r3,128
    32d8:	18ffe004 	addi	r3,r3,-128
    32dc:	e1000417 	ldw	r4,16(fp)
    32e0:	213fffc4 	addi	r4,r4,-1
    32e4:	e23fc804 	addi	r8,fp,-224
    32e8:	d9000215 	stw	r4,8(sp)
    32ec:	d8c00115 	stw	r3,4(sp)
    32f0:	d8800015 	stw	r2,0(sp)
    32f4:	4009883a 	mov	r4,r8
    32f8:	00026480 	call	2648 <minimaxAlgorithmRecursive>
    32fc:	e0bfac15 	stw	r2,-336(fp)
						#if DEBUG
							printf("S : adding score %i to linked list\n",score);
    3300:	e17fac17 	ldw	r5,-336(fp)
    3304:	010000b4 	movhi	r4,2
    3308:	21140d04 	addi	r4,r4,20532
    330c:	0005b880 	call	5b88 <printf>
						#endif
						current = head;
    3310:	e0bf9f17 	ldw	r2,-388(fp)
    3314:	e0bfa015 	stw	r2,-384(fp)
						while (current->next != NULL) current = current->next;
    3318:	00000306 	br	3328 <minimaxAlgorithm+0x480>
    331c:	e0bfa017 	ldw	r2,-384(fp)
    3320:	10800017 	ldw	r2,0(r2)
    3324:	e0bfa015 	stw	r2,-384(fp)
    3328:	e0bfa017 	ldw	r2,-384(fp)
    332c:	10800017 	ldw	r2,0(r2)
    3330:	103ffa1e 	bne	r2,zero,331c <__alt_data_end+0xfc00331c>
						current->next = malloc(sizeof(nodemove_t));
    3334:	01000404 	movi	r4,16
    3338:	0004fd00 	call	4fd0 <malloc>
    333c:	1007883a 	mov	r3,r2
    3340:	e0bfa017 	ldw	r2,-384(fp)
    3344:	10c00015 	stw	r3,0(r2)
						current->score = score;
    3348:	e0bfa017 	ldw	r2,-384(fp)
    334c:	e0ffac17 	ldw	r3,-336(fp)
    3350:	10c00115 	stw	r3,4(r2)
						current->row = row;
    3354:	e0bfa017 	ldw	r2,-384(fp)
    3358:	e0ffa203 	ldbu	r3,-376(fp)
    335c:	10c00205 	stb	r3,8(r2)
						current->field = field;
    3360:	e0bfa017 	ldw	r2,-384(fp)
    3364:	e0ffa243 	ldbu	r3,-375(fp)
    3368:	10c00245 	stb	r3,9(r2)
						current->dir = d;
    336c:	e0bfa717 	ldw	r2,-356(fp)
    3370:	1007883a 	mov	r3,r2
    3374:	e0bfa017 	ldw	r2,-384(fp)
    3378:	10c00285 	stb	r3,10(r2)
						current->isCapture = 0;
    337c:	e0bfa017 	ldw	r2,-384(fp)
    3380:	100002c5 	stb	zero,11(r2)
					current->field = field;
					current->dir = 0;
					current->isCapture = 1;
				}

				for(int d = 1;d<=4;d++)
    3384:	e0bfa717 	ldw	r2,-356(fp)
    3388:	10800044 	addi	r2,r2,1
    338c:	e0bfa715 	stw	r2,-356(fp)
    3390:	e0bfa717 	ldw	r2,-356(fp)
    3394:	10800150 	cmplti	r2,r2,5
    3398:	103f921e 	bne	r2,zero,31e4 <__alt_data_end+0xfc0031e4>

	int thereAreFriendliesLeft = 0;

	for(unsigned char row = 0; row < 10; row++)
	{
		for(unsigned char field = 0; field < 10; field++)
    339c:	e0bfa243 	ldbu	r2,-375(fp)
    33a0:	10800044 	addi	r2,r2,1
    33a4:	e0bfa245 	stb	r2,-375(fp)
    33a8:	e0bfa243 	ldbu	r2,-375(fp)
    33ac:	108002b0 	cmpltui	r2,r2,10
    33b0:	103ede1e 	bne	r2,zero,2f2c <__alt_data_end+0xfc002f2c>
	head = malloc(sizeof(nodemove_t));
	nodemove_t * current = head;

	int thereAreFriendliesLeft = 0;

	for(unsigned char row = 0; row < 10; row++)
    33b4:	e0bfa203 	ldbu	r2,-376(fp)
    33b8:	10800044 	addi	r2,r2,1
    33bc:	e0bfa205 	stb	r2,-376(fp)
    33c0:	e0bfa203 	ldbu	r2,-376(fp)
    33c4:	108002b0 	cmpltui	r2,r2,10
    33c8:	103ed61e 	bne	r2,zero,2f24 <__alt_data_end+0xfc002f24>
				*/
			}
		}
	}

	if(!thereAreFriendliesLeft)
    33cc:	e0bfa117 	ldw	r2,-380(fp)
    33d0:	1000051e 	bne	r2,zero,33e8 <minimaxAlgorithm+0x540>
	{
		#if DEBUG
			printf("there are no friendlies left to move, returning 0\n");
    33d4:	010000b4 	movhi	r4,2
    33d8:	21141604 	addi	r4,r4,20568
    33dc:	0005ca40 	call	5ca4 <puts>
		#endif
		return 0;
    33e0:	0005883a 	mov	r2,zero
    33e4:	00016406 	br	3978 <minimaxAlgorithm+0xad0>
	}

	#if DEBUG
		printf("S : final list:\n");
    33e8:	010000b4 	movhi	r4,2
    33ec:	21142304 	addi	r4,r4,20620
    33f0:	0005ca40 	call	5ca4 <puts>
		current = head;
    33f4:	e0bf9f17 	ldw	r2,-388(fp)
    33f8:	e0bfa015 	stw	r2,-384(fp)
		while(current != NULL)
    33fc:	00001906 	br	3464 <minimaxAlgorithm+0x5bc>
		{
			printf("score: %i\nrow: %i\nfield: %i\ndir: %i\nisCapture: %i\n\n",current->score,current->row,current->field,current->dir,current->isCapture);
    3400:	e0bfa017 	ldw	r2,-384(fp)
    3404:	11000117 	ldw	r4,4(r2)
    3408:	e0bfa017 	ldw	r2,-384(fp)
    340c:	10800203 	ldbu	r2,8(r2)
    3410:	11403fcc 	andi	r5,r2,255
    3414:	e0bfa017 	ldw	r2,-384(fp)
    3418:	10800243 	ldbu	r2,9(r2)
    341c:	11803fcc 	andi	r6,r2,255
    3420:	e0bfa017 	ldw	r2,-384(fp)
    3424:	10800283 	ldbu	r2,10(r2)
    3428:	10803fcc 	andi	r2,r2,255
    342c:	e0ffa017 	ldw	r3,-384(fp)
    3430:	18c002c3 	ldbu	r3,11(r3)
    3434:	18c03fcc 	andi	r3,r3,255
    3438:	d8c00115 	stw	r3,4(sp)
    343c:	d8800015 	stw	r2,0(sp)
    3440:	300f883a 	mov	r7,r6
    3444:	280d883a 	mov	r6,r5
    3448:	200b883a 	mov	r5,r4
    344c:	010000b4 	movhi	r4,2
    3450:	21142704 	addi	r4,r4,20636
    3454:	0005b880 	call	5b88 <printf>
			current = current->next;
    3458:	e0bfa017 	ldw	r2,-384(fp)
    345c:	10800017 	ldw	r2,0(r2)
    3460:	e0bfa015 	stw	r2,-384(fp)
	}

	#if DEBUG
		printf("S : final list:\n");
		current = head;
		while(current != NULL)
    3464:	e0bfa017 	ldw	r2,-384(fp)
    3468:	103fe51e 	bne	r2,zero,3400 <__alt_data_end+0xfc003400>
		}
	#endif

	//remove last item in the list
	//if there is only one item in the list, remove it
	if (head->next == NULL)
    346c:	e0bf9f17 	ldw	r2,-388(fp)
    3470:	10800017 	ldw	r2,0(r2)
    3474:	1000071e 	bne	r2,zero,3494 <minimaxAlgorithm+0x5ec>
	{
		#if DEBUG
			printf("S : the list is empty, free head and return 0\n");
    3478:	010000b4 	movhi	r4,2
    347c:	21143404 	addi	r4,r4,20688
    3480:	0005ca40 	call	5ca4 <puts>
		#endif
		free(head);
    3484:	e13f9f17 	ldw	r4,-388(fp)
    3488:	0004fe40 	call	4fe4 <free>
		return 0;
    348c:	0005883a 	mov	r2,zero
    3490:	00013906 	br	3978 <minimaxAlgorithm+0xad0>
	}
	//get to the second to last node in the list
	current = head;
    3494:	e0bf9f17 	ldw	r2,-388(fp)
    3498:	e0bfa015 	stw	r2,-384(fp)
	while (current->next->next != NULL) current = current->next;
    349c:	00000306 	br	34ac <minimaxAlgorithm+0x604>
    34a0:	e0bfa017 	ldw	r2,-384(fp)
    34a4:	10800017 	ldw	r2,0(r2)
    34a8:	e0bfa015 	stw	r2,-384(fp)
    34ac:	e0bfa017 	ldw	r2,-384(fp)
    34b0:	10800017 	ldw	r2,0(r2)
    34b4:	10800017 	ldw	r2,0(r2)
    34b8:	103ff91e 	bne	r2,zero,34a0 <__alt_data_end+0xfc0034a0>
	//now current points to the second to last item of the list, so let's remove current->next
	free(current->next);
    34bc:	e0bfa017 	ldw	r2,-384(fp)
    34c0:	10800017 	ldw	r2,0(r2)
    34c4:	1009883a 	mov	r4,r2
    34c8:	0004fe40 	call	4fe4 <free>
	current->next = NULL;
    34cc:	e0bfa017 	ldw	r2,-384(fp)
    34d0:	10000015 	stw	zero,0(r2)

	#if DEBUG
		printf("S : final list:\n");
    34d4:	010000b4 	movhi	r4,2
    34d8:	21142304 	addi	r4,r4,20620
    34dc:	0005ca40 	call	5ca4 <puts>
		current = head;
    34e0:	e0bf9f17 	ldw	r2,-388(fp)
    34e4:	e0bfa015 	stw	r2,-384(fp)
		while(current != NULL)
    34e8:	00001906 	br	3550 <minimaxAlgorithm+0x6a8>
		{
			printf("score: %i\nrow: %i\nfield: %i\ndir: %i\nisCapture: %i\n\n",current->score,current->row,current->field,current->dir,current->isCapture);
    34ec:	e0bfa017 	ldw	r2,-384(fp)
    34f0:	11000117 	ldw	r4,4(r2)
    34f4:	e0bfa017 	ldw	r2,-384(fp)
    34f8:	10800203 	ldbu	r2,8(r2)
    34fc:	11403fcc 	andi	r5,r2,255
    3500:	e0bfa017 	ldw	r2,-384(fp)
    3504:	10800243 	ldbu	r2,9(r2)
    3508:	11803fcc 	andi	r6,r2,255
    350c:	e0bfa017 	ldw	r2,-384(fp)
    3510:	10800283 	ldbu	r2,10(r2)
    3514:	10803fcc 	andi	r2,r2,255
    3518:	e0ffa017 	ldw	r3,-384(fp)
    351c:	18c002c3 	ldbu	r3,11(r3)
    3520:	18c03fcc 	andi	r3,r3,255
    3524:	d8c00115 	stw	r3,4(sp)
    3528:	d8800015 	stw	r2,0(sp)
    352c:	300f883a 	mov	r7,r6
    3530:	280d883a 	mov	r6,r5
    3534:	200b883a 	mov	r5,r4
    3538:	010000b4 	movhi	r4,2
    353c:	21142704 	addi	r4,r4,20636
    3540:	0005b880 	call	5b88 <printf>
			current = current->next;
    3544:	e0bfa017 	ldw	r2,-384(fp)
    3548:	10800017 	ldw	r2,0(r2)
    354c:	e0bfa015 	stw	r2,-384(fp)
	current->next = NULL;

	#if DEBUG
		printf("S : final list:\n");
		current = head;
		while(current != NULL)
    3550:	e0bfa017 	ldw	r2,-384(fp)
    3554:	103fe51e 	bne	r2,zero,34ec <__alt_data_end+0xfc0034ec>
			printf("score: %i\nrow: %i\nfield: %i\ndir: %i\nisCapture: %i\n\n",current->score,current->row,current->field,current->dir,current->isCapture);
			current = current->next;
		}
	#endif

	nodemove_t * bestMove = malloc(sizeof(nodemove_t));
    3558:	01000404 	movi	r4,16
    355c:	0004fd00 	call	4fd0 <malloc>
    3560:	e0bfa815 	stw	r2,-352(fp)

	if(direction == FRIENDLYDIRECTION) bestMove->score = -1000;
    3564:	e0bfff07 	ldb	r2,-4(fp)
    3568:	10bfffd8 	cmpnei	r2,r2,-1
    356c:	1000041e 	bne	r2,zero,3580 <minimaxAlgorithm+0x6d8>
    3570:	e0bfa817 	ldw	r2,-352(fp)
    3574:	00ff0604 	movi	r3,-1000
    3578:	10c00115 	stw	r3,4(r2)
    357c:	00000306 	br	358c <minimaxAlgorithm+0x6e4>
	else bestMove->score = 1000;
    3580:	e0bfa817 	ldw	r2,-352(fp)
    3584:	00c0fa04 	movi	r3,1000
    3588:	10c00115 	stw	r3,4(r2)

	//if there are captures in the list, remove all non-captures
	int thereAreCaptures = 0;
    358c:	e03fa915 	stw	zero,-348(fp)
	current = head;
    3590:	e0bf9f17 	ldw	r2,-388(fp)
    3594:	e0bfa015 	stw	r2,-384(fp)
	while(current != NULL)
    3598:	00000a06 	br	35c4 <minimaxAlgorithm+0x71c>
	{
		if(current->isCapture == 1) thereAreCaptures = 1;
    359c:	e0bfa017 	ldw	r2,-384(fp)
    35a0:	108002c3 	ldbu	r2,11(r2)
    35a4:	10803fcc 	andi	r2,r2,255
    35a8:	10800058 	cmpnei	r2,r2,1
    35ac:	1000021e 	bne	r2,zero,35b8 <minimaxAlgorithm+0x710>
    35b0:	00800044 	movi	r2,1
    35b4:	e0bfa915 	stw	r2,-348(fp)
		current = current->next;
    35b8:	e0bfa017 	ldw	r2,-384(fp)
    35bc:	10800017 	ldw	r2,0(r2)
    35c0:	e0bfa015 	stw	r2,-384(fp)
	else bestMove->score = 1000;

	//if there are captures in the list, remove all non-captures
	int thereAreCaptures = 0;
	current = head;
	while(current != NULL)
    35c4:	e0bfa017 	ldw	r2,-384(fp)
    35c8:	103ff41e 	bne	r2,zero,359c <__alt_data_end+0xfc00359c>
		if(current->isCapture == 1) thereAreCaptures = 1;
		current = current->next;
	}

	//stuff to do if there are in fact captures in the list
	if(thereAreCaptures)
    35cc:	e0bfa917 	ldw	r2,-348(fp)
    35d0:	10004d26 	beq	r2,zero,3708 <minimaxAlgorithm+0x860>
	{
		#if DEBUG
			printf("S : it seems like there are captures in this list\n");
    35d4:	010000b4 	movhi	r4,2
    35d8:	21144004 	addi	r4,r4,20736
    35dc:	0005ca40 	call	5ca4 <puts>
		#endif

		//create captures linked list
		nodemove_t * capturesHead = malloc(sizeof(nodemove_t));
    35e0:	01000404 	movi	r4,16
    35e4:	0004fd00 	call	4fd0 <malloc>
    35e8:	e0bfad15 	stw	r2,-332(fp)
		nodemove_t * capturesCurrent = malloc(sizeof(nodemove_t));
    35ec:	01000404 	movi	r4,16
    35f0:	0004fd00 	call	4fd0 <malloc>
    35f4:	e0bfaa15 	stw	r2,-344(fp)
		capturesCurrent = capturesHead;
    35f8:	e0bfad17 	ldw	r2,-332(fp)
    35fc:	e0bfaa15 	stw	r2,-344(fp)

		//add all captures in the move list to the capture list
		current = head;
    3600:	e0bf9f17 	ldw	r2,-388(fp)
    3604:	e0bfa015 	stw	r2,-384(fp)
		while(current != NULL)
    3608:	00001006 	br	364c <minimaxAlgorithm+0x7a4>
		{
			if(current->isCapture)
    360c:	e0bfa017 	ldw	r2,-384(fp)
    3610:	108002c3 	ldbu	r2,11(r2)
    3614:	10803fcc 	andi	r2,r2,255
    3618:	10000926 	beq	r2,zero,3640 <minimaxAlgorithm+0x798>
			{
				capturesCurrent->next = current;
    361c:	e0bfaa17 	ldw	r2,-344(fp)
    3620:	e0ffa017 	ldw	r3,-384(fp)
    3624:	10c00015 	stw	r3,0(r2)
				capturesCurrent->next->next = NULL;
    3628:	e0bfaa17 	ldw	r2,-344(fp)
    362c:	10800017 	ldw	r2,0(r2)
    3630:	10000015 	stw	zero,0(r2)
				capturesCurrent = capturesCurrent->next;
    3634:	e0bfaa17 	ldw	r2,-344(fp)
    3638:	10800017 	ldw	r2,0(r2)
    363c:	e0bfaa15 	stw	r2,-344(fp)
			}
			current = current->next;
    3640:	e0bfa017 	ldw	r2,-384(fp)
    3644:	10800017 	ldw	r2,0(r2)
    3648:	e0bfa015 	stw	r2,-384(fp)
		nodemove_t * capturesCurrent = malloc(sizeof(nodemove_t));
		capturesCurrent = capturesHead;

		//add all captures in the move list to the capture list
		current = head;
		while(current != NULL)
    364c:	e0bfa017 	ldw	r2,-384(fp)
    3650:	103fee1e 	bne	r2,zero,360c <__alt_data_end+0xfc00360c>
			}
			current = current->next;
		}

		//pop the first item and make the second one head
		nodemove_t * newHead = NULL;
    3654:	e03fae15 	stw	zero,-328(fp)
		newHead = capturesHead->next;
    3658:	e0bfad17 	ldw	r2,-332(fp)
    365c:	10800017 	ldw	r2,0(r2)
    3660:	e0bfae15 	stw	r2,-328(fp)
		free(capturesHead);
    3664:	e13fad17 	ldw	r4,-332(fp)
    3668:	0004fe40 	call	4fe4 <free>
		capturesHead = newHead;
    366c:	e0bfae17 	ldw	r2,-328(fp)
    3670:	e0bfad15 	stw	r2,-332(fp)

		//print the captures list
		#if DEBUG
			printf("S : captures list:\n");
    3674:	010000b4 	movhi	r4,2
    3678:	21144d04 	addi	r4,r4,20788
    367c:	0005ca40 	call	5ca4 <puts>
			capturesCurrent = capturesHead;
    3680:	e0bfad17 	ldw	r2,-332(fp)
    3684:	e0bfaa15 	stw	r2,-344(fp)
			while(capturesCurrent != NULL)
    3688:	00001906 	br	36f0 <minimaxAlgorithm+0x848>
			{
				printf("score: %i\nrow: %i\nfield: %i\ndir: %i\nisCapture: %i\n\n",capturesCurrent->score,capturesCurrent->row,capturesCurrent->field,capturesCurrent->dir,capturesCurrent->isCapture);
    368c:	e0bfaa17 	ldw	r2,-344(fp)
    3690:	11000117 	ldw	r4,4(r2)
    3694:	e0bfaa17 	ldw	r2,-344(fp)
    3698:	10800203 	ldbu	r2,8(r2)
    369c:	11403fcc 	andi	r5,r2,255
    36a0:	e0bfaa17 	ldw	r2,-344(fp)
    36a4:	10800243 	ldbu	r2,9(r2)
    36a8:	11803fcc 	andi	r6,r2,255
    36ac:	e0bfaa17 	ldw	r2,-344(fp)
    36b0:	10800283 	ldbu	r2,10(r2)
    36b4:	10803fcc 	andi	r2,r2,255
    36b8:	e0ffaa17 	ldw	r3,-344(fp)
    36bc:	18c002c3 	ldbu	r3,11(r3)
    36c0:	18c03fcc 	andi	r3,r3,255
    36c4:	d8c00115 	stw	r3,4(sp)
    36c8:	d8800015 	stw	r2,0(sp)
    36cc:	300f883a 	mov	r7,r6
    36d0:	280d883a 	mov	r6,r5
    36d4:	200b883a 	mov	r5,r4
    36d8:	010000b4 	movhi	r4,2
    36dc:	21142704 	addi	r4,r4,20636
    36e0:	0005b880 	call	5b88 <printf>
				capturesCurrent = capturesCurrent->next;
    36e4:	e0bfaa17 	ldw	r2,-344(fp)
    36e8:	10800017 	ldw	r2,0(r2)
    36ec:	e0bfaa15 	stw	r2,-344(fp)

		//print the captures list
		#if DEBUG
			printf("S : captures list:\n");
			capturesCurrent = capturesHead;
			while(capturesCurrent != NULL)
    36f0:	e0bfaa17 	ldw	r2,-344(fp)
    36f4:	103fe51e 	bne	r2,zero,368c <__alt_data_end+0xfc00368c>
				capturesCurrent = capturesCurrent->next;
			}
		#endif

		//capture list becomes the normal list
		head = capturesHead;
    36f8:	e0bfad17 	ldw	r2,-332(fp)
    36fc:	e0bf9f15 	stw	r2,-388(fp)
		current = capturesCurrent;
    3700:	e0bfaa17 	ldw	r2,-344(fp)
    3704:	e0bfa015 	stw	r2,-384(fp)
			printf("S : done freeing\n");
		#endif
		*/
	}

	current = head;
    3708:	e0bf9f17 	ldw	r2,-388(fp)
    370c:	e0bfa015 	stw	r2,-384(fp)
	while(current != NULL)
    3710:	00004406 	br	3824 <minimaxAlgorithm+0x97c>
	{
		if(direction == FRIENDLYDIRECTION && current->score > bestMove->score && !(current->row == 0 && current->field == 0))
    3714:	e0bfff07 	ldb	r2,-4(fp)
    3718:	10bfffd8 	cmpnei	r2,r2,-1
    371c:	1000191e 	bne	r2,zero,3784 <minimaxAlgorithm+0x8dc>
    3720:	e0bfa017 	ldw	r2,-384(fp)
    3724:	10800117 	ldw	r2,4(r2)
    3728:	e0ffa817 	ldw	r3,-352(fp)
    372c:	18c00117 	ldw	r3,4(r3)
    3730:	1880140e 	bge	r3,r2,3784 <minimaxAlgorithm+0x8dc>
    3734:	e0bfa017 	ldw	r2,-384(fp)
    3738:	10800203 	ldbu	r2,8(r2)
    373c:	10803fcc 	andi	r2,r2,255
    3740:	1000041e 	bne	r2,zero,3754 <minimaxAlgorithm+0x8ac>
    3744:	e0bfa017 	ldw	r2,-384(fp)
    3748:	10800243 	ldbu	r2,9(r2)
    374c:	10803fcc 	andi	r2,r2,255
    3750:	10000c26 	beq	r2,zero,3784 <minimaxAlgorithm+0x8dc>
		{
			#if DEBUG
				printf("S : score %i is bigger than best score %i, overwriting\n",current->score,bestMove->score);
    3754:	e0bfa017 	ldw	r2,-384(fp)
    3758:	10c00117 	ldw	r3,4(r2)
    375c:	e0bfa817 	ldw	r2,-352(fp)
    3760:	10800117 	ldw	r2,4(r2)
    3764:	100d883a 	mov	r6,r2
    3768:	180b883a 	mov	r5,r3
    376c:	010000b4 	movhi	r4,2
    3770:	21145204 	addi	r4,r4,20808
    3774:	0005b880 	call	5b88 <printf>
			#endif
			bestMove = current;
    3778:	e0bfa017 	ldw	r2,-384(fp)
    377c:	e0bfa815 	stw	r2,-352(fp)
    3780:	00002506 	br	3818 <minimaxAlgorithm+0x970>
		}
		else if(direction == ENEMYDIRECTION && current->score < bestMove->score && !(current->row == 0 && current->field == 0))
    3784:	e0bfff07 	ldb	r2,-4(fp)
    3788:	10800058 	cmpnei	r2,r2,1
    378c:	1000191e 	bne	r2,zero,37f4 <minimaxAlgorithm+0x94c>
    3790:	e0bfa017 	ldw	r2,-384(fp)
    3794:	10c00117 	ldw	r3,4(r2)
    3798:	e0bfa817 	ldw	r2,-352(fp)
    379c:	10800117 	ldw	r2,4(r2)
    37a0:	1880140e 	bge	r3,r2,37f4 <minimaxAlgorithm+0x94c>
    37a4:	e0bfa017 	ldw	r2,-384(fp)
    37a8:	10800203 	ldbu	r2,8(r2)
    37ac:	10803fcc 	andi	r2,r2,255
    37b0:	1000041e 	bne	r2,zero,37c4 <minimaxAlgorithm+0x91c>
    37b4:	e0bfa017 	ldw	r2,-384(fp)
    37b8:	10800243 	ldbu	r2,9(r2)
    37bc:	10803fcc 	andi	r2,r2,255
    37c0:	10000c26 	beq	r2,zero,37f4 <minimaxAlgorithm+0x94c>
		{
			#if DEBUG
				printf("S : score %i is smaller than best score %i, overwriting\n",current->score,bestMove->score);
    37c4:	e0bfa017 	ldw	r2,-384(fp)
    37c8:	10c00117 	ldw	r3,4(r2)
    37cc:	e0bfa817 	ldw	r2,-352(fp)
    37d0:	10800117 	ldw	r2,4(r2)
    37d4:	100d883a 	mov	r6,r2
    37d8:	180b883a 	mov	r5,r3
    37dc:	010000b4 	movhi	r4,2
    37e0:	21146004 	addi	r4,r4,20864
    37e4:	0005b880 	call	5b88 <printf>
			#endif
			bestMove = current;
    37e8:	e0bfa017 	ldw	r2,-384(fp)
    37ec:	e0bfa815 	stw	r2,-352(fp)
    37f0:	00000906 	br	3818 <minimaxAlgorithm+0x970>
		}
		#if DEBUG
			else printf("S : score %i is not better than best score %i, not overwriting\n",current->score,bestMove->score);
    37f4:	e0bfa017 	ldw	r2,-384(fp)
    37f8:	10c00117 	ldw	r3,4(r2)
    37fc:	e0bfa817 	ldw	r2,-352(fp)
    3800:	10800117 	ldw	r2,4(r2)
    3804:	100d883a 	mov	r6,r2
    3808:	180b883a 	mov	r5,r3
    380c:	010000b4 	movhi	r4,2
    3810:	21146f04 	addi	r4,r4,20924
    3814:	0005b880 	call	5b88 <printf>
		#endif

		current = current->next;
    3818:	e0bfa017 	ldw	r2,-384(fp)
    381c:	10800017 	ldw	r2,0(r2)
    3820:	e0bfa015 	stw	r2,-384(fp)
		#endif
		*/
	}

	current = head;
	while(current != NULL)
    3824:	e0bfa017 	ldw	r2,-384(fp)
    3828:	103fba1e 	bne	r2,zero,3714 <__alt_data_end+0xfc003714>

		current = current->next;
	}

	#if DEBUG
		printf("S : bestMove\nscore: %i\nrow: %i\nfield: %i\ndir: %i\nisCapture: %i\n\n",bestMove->score,bestMove->row,bestMove->field,bestMove->dir,bestMove->isCapture);
    382c:	e0bfa817 	ldw	r2,-352(fp)
    3830:	11000117 	ldw	r4,4(r2)
    3834:	e0bfa817 	ldw	r2,-352(fp)
    3838:	10800203 	ldbu	r2,8(r2)
    383c:	11403fcc 	andi	r5,r2,255
    3840:	e0bfa817 	ldw	r2,-352(fp)
    3844:	10800243 	ldbu	r2,9(r2)
    3848:	11803fcc 	andi	r6,r2,255
    384c:	e0bfa817 	ldw	r2,-352(fp)
    3850:	10800283 	ldbu	r2,10(r2)
    3854:	10803fcc 	andi	r2,r2,255
    3858:	e0ffa817 	ldw	r3,-352(fp)
    385c:	18c002c3 	ldbu	r3,11(r3)
    3860:	18c03fcc 	andi	r3,r3,255
    3864:	d8c00115 	stw	r3,4(sp)
    3868:	d8800015 	stw	r2,0(sp)
    386c:	300f883a 	mov	r7,r6
    3870:	280d883a 	mov	r6,r5
    3874:	200b883a 	mov	r5,r4
    3878:	010000b4 	movhi	r4,2
    387c:	21147f04 	addi	r4,r4,20988
    3880:	0005b880 	call	5b88 <printf>
	#endif

	if(bestMove->isCapture == 1)
    3884:	e0bfa817 	ldw	r2,-352(fp)
    3888:	108002c3 	ldbu	r2,11(r2)
    388c:	10803fcc 	andi	r2,r2,255
    3890:	10800058 	cmpnei	r2,r2,1
    3894:	1000111e 	bne	r2,zero,38dc <minimaxAlgorithm+0xa34>
	{
		//if(board[bestMove->row][bestMove->field] == friendly)
			manCapture((unsigned char **)board, bestMove->row, bestMove->field, friendly, friendlyKing, enemy, enemyKing);
    3898:	e0bfa817 	ldw	r2,-352(fp)
    389c:	10800203 	ldbu	r2,8(r2)
    38a0:	11403fcc 	andi	r5,r2,255
    38a4:	e0bfa817 	ldw	r2,-352(fp)
    38a8:	10800243 	ldbu	r2,9(r2)
    38ac:	11803fcc 	andi	r6,r2,255
    38b0:	e1fffb03 	ldbu	r7,-20(fp)
    38b4:	e0bffc03 	ldbu	r2,-16(fp)
    38b8:	e0fffd03 	ldbu	r3,-12(fp)
    38bc:	e13ffe03 	ldbu	r4,-8(fp)
    38c0:	d9000215 	stw	r4,8(sp)
    38c4:	d8c00115 	stw	r3,4(sp)
    38c8:	d8800015 	stw	r2,0(sp)
    38cc:	010000f4 	movhi	r4,3
    38d0:	21251d04 	addi	r4,r4,-27532
    38d4:	00013700 	call	1370 <manCapture>
    38d8:	00001806 	br	393c <minimaxAlgorithm+0xa94>
		}
		*/
	}
	else
	{
		move((unsigned char **)board, bestMove->row, bestMove->field, bestMove->dir, friendly, friendlyKing, enemy, enemyKing, direction);
    38dc:	e0bfa817 	ldw	r2,-352(fp)
    38e0:	10800203 	ldbu	r2,8(r2)
    38e4:	12003fcc 	andi	r8,r2,255
    38e8:	e0bfa817 	ldw	r2,-352(fp)
    38ec:	10800243 	ldbu	r2,9(r2)
    38f0:	12403fcc 	andi	r9,r2,255
    38f4:	e0bfa817 	ldw	r2,-352(fp)
    38f8:	10800283 	ldbu	r2,10(r2)
    38fc:	11c03fcc 	andi	r7,r2,255
    3900:	e0bffb03 	ldbu	r2,-20(fp)
    3904:	e0fffc03 	ldbu	r3,-16(fp)
    3908:	e13ffd03 	ldbu	r4,-12(fp)
    390c:	e17ffe03 	ldbu	r5,-8(fp)
    3910:	e1bfff07 	ldb	r6,-4(fp)
    3914:	d9800415 	stw	r6,16(sp)
    3918:	d9400315 	stw	r5,12(sp)
    391c:	d9000215 	stw	r4,8(sp)
    3920:	d8c00115 	stw	r3,4(sp)
    3924:	d8800015 	stw	r2,0(sp)
    3928:	480d883a 	mov	r6,r9
    392c:	400b883a 	mov	r5,r8
    3930:	010000f4 	movhi	r4,3
    3934:	21251d04 	addi	r4,r4,-27532
    3938:	00022b40 	call	22b4 <move>
	}

	//TODO: make this look prettier?
	printBoard((unsigned char **)board, bestMove->row, bestMove->field,100,100);
    393c:	e0bfa817 	ldw	r2,-352(fp)
    3940:	10800203 	ldbu	r2,8(r2)
    3944:	10c03fcc 	andi	r3,r2,255
    3948:	e0bfa817 	ldw	r2,-352(fp)
    394c:	10800243 	ldbu	r2,9(r2)
    3950:	11003fcc 	andi	r4,r2,255
    3954:	00801904 	movi	r2,100
    3958:	d8800015 	stw	r2,0(sp)
    395c:	01c01904 	movi	r7,100
    3960:	200d883a 	mov	r6,r4
    3964:	180b883a 	mov	r5,r3
    3968:	010000f4 	movhi	r4,3
    396c:	21251d04 	addi	r4,r4,-27532
    3970:	00004bc0 	call	4bc <printBoard>
	#if DEBUG
		printf("S : done freeing\n");
	#endif
	*/

	return 1;
    3974:	00800044 	movi	r2,1
}
    3978:	e037883a 	mov	sp,fp
    397c:	dfc00117 	ldw	ra,4(sp)
    3980:	df000017 	ldw	fp,0(sp)
    3984:	dec00204 	addi	sp,sp,8
    3988:	f800283a 	ret

0000398c <algorithm>:

//Oude algoritme. Plan B als minimax aan het eind helemaal ontploft
unsigned char algorithm(unsigned char friendly, unsigned char friendlyKing, unsigned char enemy, unsigned char enemyKing, signed char direction){
    398c:	defff304 	addi	sp,sp,-52
    3990:	dfc00c15 	stw	ra,48(sp)
    3994:	df000b15 	stw	fp,44(sp)
    3998:	df000b04 	addi	fp,sp,44
    399c:	2011883a 	mov	r8,r4
    39a0:	3009883a 	mov	r4,r6
    39a4:	3807883a 	mov	r3,r7
    39a8:	e0800217 	ldw	r2,8(fp)
    39ac:	e23ffb05 	stb	r8,-20(fp)
    39b0:	e17ffc05 	stb	r5,-16(fp)
    39b4:	e13ffd05 	stb	r4,-12(fp)
    39b8:	e0fffe05 	stb	r3,-8(fp)
    39bc:	e0bfff05 	stb	r2,-4(fp)
	unsigned char captured = 0;
    39c0:	e03ff905 	stb	zero,-28(fp)
	unsigned char moved = 0;
    39c4:	e03ff945 	stb	zero,-27(fp)
	unsigned char couldNotCapture = 0;
    39c8:	e03ff985 	stb	zero,-26(fp)
	unsigned char couldNotMove = 0;
    39cc:	e03ff9c5 	stb	zero,-25(fp)

	while(couldNotMove == 0){
    39d0:	00005806 	br	3b34 <algorithm+0x1a8>
		for(unsigned char row = 0; row < 10; row++){
    39d4:	e03ffa05 	stb	zero,-24(fp)
    39d8:	00004106 	br	3ae0 <algorithm+0x154>
		//	printf("friest for\n");
			for(unsigned char field = 0; field < 10; field++){
    39dc:	e03ffa45 	stb	zero,-23(fp)
    39e0:	00003906 	br	3ac8 <algorithm+0x13c>
			//	printf("friendly check\n");
				// piece check if a piece can capture
				if(board[row][field] == friendly){
    39e4:	e13ffa03 	ldbu	r4,-24(fp)
    39e8:	e0fffa43 	ldbu	r3,-23(fp)
    39ec:	008000f4 	movhi	r2,3
    39f0:	10a51d04 	addi	r2,r2,-27532
    39f4:	210002a4 	muli	r4,r4,10
    39f8:	1105883a 	add	r2,r2,r4
    39fc:	10c5883a 	add	r2,r2,r3
    3a00:	10800003 	ldbu	r2,0(r2)
    3a04:	10c03fcc 	andi	r3,r2,255
    3a08:	e0bffb03 	ldbu	r2,-20(fp)
    3a0c:	18802b1e 	bne	r3,r2,3abc <algorithm+0x130>
				//	printf("friendly\n");
					if(couldNotCapture == 0){
    3a10:	e0bff983 	ldbu	r2,-26(fp)
    3a14:	10000e1e 	bne	r2,zero,3a50 <algorithm+0xc4>
						captured = manCapture((unsigned char **)board, row, field, friendly, friendlyKing, enemy, enemyKing);
    3a18:	e17ffa03 	ldbu	r5,-24(fp)
    3a1c:	e1bffa43 	ldbu	r6,-23(fp)
    3a20:	e1fffb03 	ldbu	r7,-20(fp)
    3a24:	e0bffc03 	ldbu	r2,-16(fp)
    3a28:	e0fffd03 	ldbu	r3,-12(fp)
    3a2c:	e13ffe03 	ldbu	r4,-8(fp)
    3a30:	d9000215 	stw	r4,8(sp)
    3a34:	d8c00115 	stw	r3,4(sp)
    3a38:	d8800015 	stw	r2,0(sp)
    3a3c:	010000f4 	movhi	r4,3
    3a40:	21251d04 	addi	r4,r4,-27532
    3a44:	00013700 	call	1370 <manCapture>
    3a48:	e0bff905 	stb	r2,-28(fp)
    3a4c:	00001006 	br	3a90 <algorithm+0x104>
					}else{
						moved = manMove((unsigned char **)board, row, field, friendly, friendlyKing, enemy, enemyKing, direction);
    3a50:	e23ffa03 	ldbu	r8,-24(fp)
    3a54:	e1bffa43 	ldbu	r6,-23(fp)
    3a58:	e1fffb03 	ldbu	r7,-20(fp)
    3a5c:	e0bffc03 	ldbu	r2,-16(fp)
    3a60:	e0fffd03 	ldbu	r3,-12(fp)
    3a64:	e13ffe03 	ldbu	r4,-8(fp)
    3a68:	e17fff07 	ldb	r5,-4(fp)
    3a6c:	d9400315 	stw	r5,12(sp)
    3a70:	d9000215 	stw	r4,8(sp)
    3a74:	d8c00115 	stw	r3,4(sp)
    3a78:	d8800015 	stw	r2,0(sp)
    3a7c:	400b883a 	mov	r5,r8
    3a80:	010000f4 	movhi	r4,3
    3a84:	21251d04 	addi	r4,r4,-27532
    3a88:	00016780 	call	1678 <manMove>
    3a8c:	e0bff945 	stb	r2,-27(fp)
					}

					if(moved == 1 || captured == 1){
    3a90:	e0bff943 	ldbu	r2,-27(fp)
    3a94:	10800060 	cmpeqi	r2,r2,1
    3a98:	1000031e 	bne	r2,zero,3aa8 <algorithm+0x11c>
    3a9c:	e0bff903 	ldbu	r2,-28(fp)
    3aa0:	10800058 	cmpnei	r2,r2,1
    3aa4:	1000051e 	bne	r2,zero,3abc <algorithm+0x130>
						#if DEBUG
							printf("moved or captured\n");
    3aa8:	010000b4 	movhi	r4,2
    3aac:	21149004 	addi	r4,r4,21056
    3ab0:	0005ca40 	call	5ca4 <puts>
						#endif
						return 1;
    3ab4:	00800044 	movi	r2,1
    3ab8:	00002106 	br	3b40 <algorithm+0x1b4>
	unsigned char couldNotMove = 0;

	while(couldNotMove == 0){
		for(unsigned char row = 0; row < 10; row++){
		//	printf("friest for\n");
			for(unsigned char field = 0; field < 10; field++){
    3abc:	e0bffa43 	ldbu	r2,-23(fp)
    3ac0:	10800044 	addi	r2,r2,1
    3ac4:	e0bffa45 	stb	r2,-23(fp)
    3ac8:	e0bffa43 	ldbu	r2,-23(fp)
    3acc:	108002b0 	cmpltui	r2,r2,10
    3ad0:	103fc41e 	bne	r2,zero,39e4 <__alt_data_end+0xfc0039e4>
	unsigned char moved = 0;
	unsigned char couldNotCapture = 0;
	unsigned char couldNotMove = 0;

	while(couldNotMove == 0){
		for(unsigned char row = 0; row < 10; row++){
    3ad4:	e0bffa03 	ldbu	r2,-24(fp)
    3ad8:	10800044 	addi	r2,r2,1
    3adc:	e0bffa05 	stb	r2,-24(fp)
    3ae0:	e0bffa03 	ldbu	r2,-24(fp)
    3ae4:	108002b0 	cmpltui	r2,r2,10
    3ae8:	103fbc1e 	bne	r2,zero,39dc <__alt_data_end+0xfc0039dc>
						return 1;
					}
				}
			}
		}
		if(couldNotCapture == 1 && moved == 0){
    3aec:	e0bff983 	ldbu	r2,-26(fp)
    3af0:	10800058 	cmpnei	r2,r2,1
    3af4:	1000081e 	bne	r2,zero,3b18 <algorithm+0x18c>
    3af8:	e0bff943 	ldbu	r2,-27(fp)
    3afc:	1000061e 	bne	r2,zero,3b18 <algorithm+0x18c>
			couldNotMove = 1;
    3b00:	00800044 	movi	r2,1
    3b04:	e0bff9c5 	stb	r2,-25(fp)
			#if DEBUG
				printf("could not move\n");
    3b08:	010000b4 	movhi	r4,2
    3b0c:	21149504 	addi	r4,r4,21076
    3b10:	0005ca40 	call	5ca4 <puts>
    3b14:	00000706 	br	3b34 <algorithm+0x1a8>
			#endif
		}else if(captured == 0){
    3b18:	e0bff903 	ldbu	r2,-28(fp)
    3b1c:	1000051e 	bne	r2,zero,3b34 <algorithm+0x1a8>
			couldNotCapture = 1;
    3b20:	00800044 	movi	r2,1
    3b24:	e0bff985 	stb	r2,-26(fp)
			#if DEBUG
				printf("could not capture\n");
    3b28:	010000b4 	movhi	r4,2
    3b2c:	21149904 	addi	r4,r4,21092
    3b30:	0005ca40 	call	5ca4 <puts>
	unsigned char captured = 0;
	unsigned char moved = 0;
	unsigned char couldNotCapture = 0;
	unsigned char couldNotMove = 0;

	while(couldNotMove == 0){
    3b34:	e0bff9c3 	ldbu	r2,-25(fp)
    3b38:	103fa626 	beq	r2,zero,39d4 <__alt_data_end+0xfc0039d4>
			#if DEBUG
				printf("could not capture\n");
			#endif
		}
	}
	return 0;
    3b3c:	0005883a 	mov	r2,zero
}
    3b40:	e037883a 	mov	sp,fp
    3b44:	dfc00117 	ldw	ra,4(sp)
    3b48:	df000017 	ldw	fp,0(sp)
    3b4c:	dec00204 	addi	sp,sp,8
    3b50:	f800283a 	ret

00003b54 <playerInput>:

unsigned char playerInput()
{
    3b54:	deffd704 	addi	sp,sp,-164
    3b58:	dfc02815 	stw	ra,160(sp)
    3b5c:	df002715 	stw	fp,156(sp)
    3b60:	df002704 	addi	fp,sp,156
	int stuffToDo = 0;
    3b64:	e03fde15 	stw	zero,-136(fp)

	//Check if we can capture, capture and check if we can still make moves all in one loop :)
	for(int row = 0; row < 10; row++)
    3b68:	e03fdf15 	stw	zero,-132(fp)
    3b6c:	00004006 	br	3c70 <playerInput+0x11c>
	{
		for(int field = 0; field < 10; field++)
    3b70:	e03fe015 	stw	zero,-128(fp)
    3b74:	00003806 	br	3c58 <playerInput+0x104>
		{
			if(board[row][field] == FRIENDLY)
    3b78:	008000f4 	movhi	r2,3
    3b7c:	10a51d04 	addi	r2,r2,-27532
    3b80:	e0ffdf17 	ldw	r3,-132(fp)
    3b84:	18c002a4 	muli	r3,r3,10
    3b88:	10c7883a 	add	r3,r2,r3
    3b8c:	e0bfe017 	ldw	r2,-128(fp)
    3b90:	1885883a 	add	r2,r3,r2
    3b94:	10800003 	ldbu	r2,0(r2)
    3b98:	10803fcc 	andi	r2,r2,255
    3b9c:	10800098 	cmpnei	r2,r2,2
    3ba0:	1000161e 	bne	r2,zero,3bfc <playerInput+0xa8>
			{
				stuffToDo = 1;
    3ba4:	00800044 	movi	r2,1
    3ba8:	e0bfde15 	stw	r2,-136(fp)
				if(manCapture((unsigned char **)board, row, field, FRIENDLY, FRIENDLYKING, ENEMY, ENEMYKING)) return 1;
    3bac:	e0bfdf17 	ldw	r2,-132(fp)
    3bb0:	10c03fcc 	andi	r3,r2,255
    3bb4:	e0bfe017 	ldw	r2,-128(fp)
    3bb8:	11003fcc 	andi	r4,r2,255
    3bbc:	00800144 	movi	r2,5
    3bc0:	d8800215 	stw	r2,8(sp)
    3bc4:	00800104 	movi	r2,4
    3bc8:	d8800115 	stw	r2,4(sp)
    3bcc:	008000c4 	movi	r2,3
    3bd0:	d8800015 	stw	r2,0(sp)
    3bd4:	01c00084 	movi	r7,2
    3bd8:	200d883a 	mov	r6,r4
    3bdc:	180b883a 	mov	r5,r3
    3be0:	010000f4 	movhi	r4,3
    3be4:	21251d04 	addi	r4,r4,-27532
    3be8:	00013700 	call	1370 <manCapture>
    3bec:	10803fcc 	andi	r2,r2,255
    3bf0:	10001626 	beq	r2,zero,3c4c <playerInput+0xf8>
    3bf4:	00800044 	movi	r2,1
    3bf8:	0000fa06 	br	3fe4 <playerInput+0x490>
			}
			else if(board[row][field] == FRIENDLYKING)
    3bfc:	008000f4 	movhi	r2,3
    3c00:	10a51d04 	addi	r2,r2,-27532
    3c04:	e0ffdf17 	ldw	r3,-132(fp)
    3c08:	18c002a4 	muli	r3,r3,10
    3c0c:	10c7883a 	add	r3,r2,r3
    3c10:	e0bfe017 	ldw	r2,-128(fp)
    3c14:	1885883a 	add	r2,r3,r2
    3c18:	10800003 	ldbu	r2,0(r2)
    3c1c:	10803fcc 	andi	r2,r2,255
    3c20:	108000d8 	cmpnei	r2,r2,3
    3c24:	1000091e 	bne	r2,zero,3c4c <playerInput+0xf8>
			{
				stuffToDo = 1;
    3c28:	00800044 	movi	r2,1
    3c2c:	e0bfde15 	stw	r2,-136(fp)
				if(capture(row, field, 1)) return 1;
    3c30:	01800044 	movi	r6,1
    3c34:	e17fe017 	ldw	r5,-128(fp)
    3c38:	e13fdf17 	ldw	r4,-132(fp)
    3c3c:	0001bb00 	call	1bb0 <capture>
    3c40:	10000226 	beq	r2,zero,3c4c <playerInput+0xf8>
    3c44:	00800044 	movi	r2,1
    3c48:	0000e606 	br	3fe4 <playerInput+0x490>
	int stuffToDo = 0;

	//Check if we can capture, capture and check if we can still make moves all in one loop :)
	for(int row = 0; row < 10; row++)
	{
		for(int field = 0; field < 10; field++)
    3c4c:	e0bfe017 	ldw	r2,-128(fp)
    3c50:	10800044 	addi	r2,r2,1
    3c54:	e0bfe015 	stw	r2,-128(fp)
    3c58:	e0bfe017 	ldw	r2,-128(fp)
    3c5c:	10800290 	cmplti	r2,r2,10
    3c60:	103fc51e 	bne	r2,zero,3b78 <__alt_data_end+0xfc003b78>
unsigned char playerInput()
{
	int stuffToDo = 0;

	//Check if we can capture, capture and check if we can still make moves all in one loop :)
	for(int row = 0; row < 10; row++)
    3c64:	e0bfdf17 	ldw	r2,-132(fp)
    3c68:	10800044 	addi	r2,r2,1
    3c6c:	e0bfdf15 	stw	r2,-132(fp)
    3c70:	e0bfdf17 	ldw	r2,-132(fp)
    3c74:	10800290 	cmplti	r2,r2,10
    3c78:	103fbd1e 	bne	r2,zero,3b70 <__alt_data_end+0xfc003b70>
				if(capture(row, field, 1)) return 1;
			}
		}
	}

	createKing((unsigned char **)board);
    3c7c:	010000f4 	movhi	r4,3
    3c80:	21251d04 	addi	r4,r4,-27532
    3c84:	00025740 	call	2574 <createKing>

	//If there are no friendly units on the board, return 0, which will end the game.
	if(!stuffToDo) return 0;
    3c88:	e0bfde17 	ldw	r2,-136(fp)
    3c8c:	1000021e 	bne	r2,zero,3c98 <playerInput+0x144>
    3c90:	0005883a 	mov	r2,zero
    3c94:	0000d306 	br	3fe4 <playerInput+0x490>

	int pRow = -1;
    3c98:	00bfffc4 	movi	r2,-1
    3c9c:	e0bfe115 	stw	r2,-124(fp)
	int pField = -1;
    3ca0:	00bfffc4 	movi	r2,-1
    3ca4:	e0bfe215 	stw	r2,-120(fp)

	printf("Row to select: ");
    3ca8:	010000b4 	movhi	r4,2
    3cac:	21149e04 	addi	r4,r4,21112
    3cb0:	0005b880 	call	5b88 <printf>

	char *p, s[100];
    	while (fgets(s, sizeof(s), stdin)) {
    3cb4:	00001406 	br	3d08 <playerInput+0x1b4>
    	    pRow = strtol(s, &p, 10);
    3cb8:	e0ffe504 	addi	r3,fp,-108
    3cbc:	e0bfe604 	addi	r2,fp,-104
    3cc0:	01800284 	movi	r6,10
    3cc4:	180b883a 	mov	r5,r3
    3cc8:	1009883a 	mov	r4,r2
    3ccc:	00068f00 	call	68f0 <strtol>
    3cd0:	e0bfe115 	stw	r2,-124(fp)
    	    if (p == s || *p != '\n') {
    3cd4:	e0ffe517 	ldw	r3,-108(fp)
    3cd8:	e0bfe604 	addi	r2,fp,-104
    3cdc:	18800726 	beq	r3,r2,3cfc <playerInput+0x1a8>
    3ce0:	e0bfe517 	ldw	r2,-108(fp)
    3ce4:	10800003 	ldbu	r2,0(r2)
    3ce8:	10803fcc 	andi	r2,r2,255
    3cec:	1080201c 	xori	r2,r2,128
    3cf0:	10bfe004 	addi	r2,r2,-128
    3cf4:	108002a0 	cmpeqi	r2,r2,10
    3cf8:	10000b1e 	bne	r2,zero,3d28 <playerInput+0x1d4>
    	        printf("Please enter a number: ");
    3cfc:	010000b4 	movhi	r4,2
    3d00:	2114a204 	addi	r4,r4,21128
    3d04:	0005b880 	call	5b88 <printf>
	int pField = -1;

	printf("Row to select: ");

	char *p, s[100];
    	while (fgets(s, sizeof(s), stdin)) {
    3d08:	d0a00117 	ldw	r2,-32764(gp)
    3d0c:	10c00117 	ldw	r3,4(r2)
    3d10:	e0bfe604 	addi	r2,fp,-104
    3d14:	180d883a 	mov	r6,r3
    3d18:	01401904 	movi	r5,100
    3d1c:	1009883a 	mov	r4,r2
    3d20:	0004a8c0 	call	4a8c <fgets>
    3d24:	103fe41e 	bne	r2,zero,3cb8 <__alt_data_end+0xfc003cb8>
    	    if (p == s || *p != '\n') {
    	        printf("Please enter a number: ");
    	    } else break;
    	}

    	if(pRow < 0 || pRow > 9){
    3d28:	e0bfe117 	ldw	r2,-124(fp)
    3d2c:	10000316 	blt	r2,zero,3d3c <playerInput+0x1e8>
    3d30:	e0bfe117 	ldw	r2,-124(fp)
    3d34:	10800290 	cmplti	r2,r2,10
    3d38:	1000051e 	bne	r2,zero,3d50 <playerInput+0x1fc>

    		printf("Invalid number, try again\n");
    3d3c:	010000b4 	movhi	r4,2
    3d40:	2114a804 	addi	r4,r4,21152
    3d44:	0005ca40 	call	5ca4 <puts>
    		return playerInput();
    3d48:	0003b540 	call	3b54 <playerInput>
    3d4c:	0000a506 	br	3fe4 <playerInput+0x490>
    	}

	printf("Field to select: ");
    3d50:	010000b4 	movhi	r4,2
    3d54:	2114af04 	addi	r4,r4,21180
    3d58:	0005b880 	call	5b88 <printf>

    	while (fgets(s, sizeof(s), stdin)) {
    3d5c:	00001406 	br	3db0 <playerInput+0x25c>
    	    pField = strtol(s, &p, 10);
    3d60:	e0ffe504 	addi	r3,fp,-108
    3d64:	e0bfe604 	addi	r2,fp,-104
    3d68:	01800284 	movi	r6,10
    3d6c:	180b883a 	mov	r5,r3
    3d70:	1009883a 	mov	r4,r2
    3d74:	00068f00 	call	68f0 <strtol>
    3d78:	e0bfe215 	stw	r2,-120(fp)
    	    if (p == s || *p != '\n') {
    3d7c:	e0ffe517 	ldw	r3,-108(fp)
    3d80:	e0bfe604 	addi	r2,fp,-104
    3d84:	18800726 	beq	r3,r2,3da4 <playerInput+0x250>
    3d88:	e0bfe517 	ldw	r2,-108(fp)
    3d8c:	10800003 	ldbu	r2,0(r2)
    3d90:	10803fcc 	andi	r2,r2,255
    3d94:	1080201c 	xori	r2,r2,128
    3d98:	10bfe004 	addi	r2,r2,-128
    3d9c:	108002a0 	cmpeqi	r2,r2,10
    3da0:	10000b1e 	bne	r2,zero,3dd0 <playerInput+0x27c>
    	        printf("Please enter a number: ");
    3da4:	010000b4 	movhi	r4,2
    3da8:	2114a204 	addi	r4,r4,21128
    3dac:	0005b880 	call	5b88 <printf>
    		return playerInput();
    	}

	printf("Field to select: ");

    	while (fgets(s, sizeof(s), stdin)) {
    3db0:	d0a00117 	ldw	r2,-32764(gp)
    3db4:	10c00117 	ldw	r3,4(r2)
    3db8:	e0bfe604 	addi	r2,fp,-104
    3dbc:	180d883a 	mov	r6,r3
    3dc0:	01401904 	movi	r5,100
    3dc4:	1009883a 	mov	r4,r2
    3dc8:	0004a8c0 	call	4a8c <fgets>
    3dcc:	103fe41e 	bne	r2,zero,3d60 <__alt_data_end+0xfc003d60>
    	    if (p == s || *p != '\n') {
    	        printf("Please enter a number: ");
    	    } else break;
    	}

    	if(pField < 0 || pField > 9){
    3dd0:	e0bfe217 	ldw	r2,-120(fp)
    3dd4:	10000316 	blt	r2,zero,3de4 <playerInput+0x290>
    3dd8:	e0bfe217 	ldw	r2,-120(fp)
    3ddc:	10800290 	cmplti	r2,r2,10
    3de0:	1000051e 	bne	r2,zero,3df8 <playerInput+0x2a4>

    		printf("Invalid number, try again\n");
    3de4:	010000b4 	movhi	r4,2
    3de8:	2114a804 	addi	r4,r4,21152
    3dec:	0005ca40 	call	5ca4 <puts>
    		return playerInput();
    3df0:	0003b540 	call	3b54 <playerInput>
    3df4:	00007b06 	br	3fe4 <playerInput+0x490>
    	}

	int stone = board[pRow][pField];
    3df8:	008000f4 	movhi	r2,3
    3dfc:	10a51d04 	addi	r2,r2,-27532
    3e00:	e0ffe117 	ldw	r3,-124(fp)
    3e04:	18c002a4 	muli	r3,r3,10
    3e08:	10c7883a 	add	r3,r2,r3
    3e0c:	e0bfe217 	ldw	r2,-120(fp)
    3e10:	1885883a 	add	r2,r3,r2
    3e14:	10800003 	ldbu	r2,0(r2)
    3e18:	10803fcc 	andi	r2,r2,255
    3e1c:	e0bfe315 	stw	r2,-116(fp)

	if(stone == FRIENDLY || stone == FRIENDLYKING){
    3e20:	e0bfe317 	ldw	r2,-116(fp)
    3e24:	108000a0 	cmpeqi	r2,r2,2
    3e28:	1000031e 	bne	r2,zero,3e38 <playerInput+0x2e4>
    3e2c:	e0bfe317 	ldw	r2,-116(fp)
    3e30:	108000d8 	cmpnei	r2,r2,3
    3e34:	1000671e 	bne	r2,zero,3fd4 <playerInput+0x480>

		int isKing;
		if(stone == FRIENDLYKING) isKing = 1;
    3e38:	e0bfe317 	ldw	r2,-116(fp)
    3e3c:	108000d8 	cmpnei	r2,r2,3
    3e40:	1000031e 	bne	r2,zero,3e50 <playerInput+0x2fc>
    3e44:	00800044 	movi	r2,1
    3e48:	e0bfe415 	stw	r2,-112(fp)
    3e4c:	00000106 	br	3e54 <playerInput+0x300>
		else isKing = 0;
    3e50:	e03fe415 	stw	zero,-112(fp)

		printf("\n1   2\n");
    3e54:	010000b4 	movhi	r4,2
    3e58:	2114b404 	addi	r4,r4,21200
    3e5c:	0005ca40 	call	5ca4 <puts>
		printf(" \\ /\n");
    3e60:	010000b4 	movhi	r4,2
    3e64:	2114b604 	addi	r4,r4,21208
    3e68:	0005ca40 	call	5ca4 <puts>
		printf("  x\n");
    3e6c:	010000b4 	movhi	r4,2
    3e70:	2114b804 	addi	r4,r4,21216
    3e74:	0005ca40 	call	5ca4 <puts>
		printf(" / \\ \n");
    3e78:	010000b4 	movhi	r4,2
    3e7c:	2114b904 	addi	r4,r4,21220
    3e80:	0005ca40 	call	5ca4 <puts>
		printf("3   4\n\n");
    3e84:	010000b4 	movhi	r4,2
    3e88:	2114bb04 	addi	r4,r4,21228
    3e8c:	0005ca40 	call	5ca4 <puts>

		printf("Select a direction: ");
    3e90:	010000b4 	movhi	r4,2
    3e94:	2114bd04 	addi	r4,r4,21236
    3e98:	0005b880 	call	5b88 <printf>
		int pDir = -1;
    3e9c:	00bfffc4 	movi	r2,-1
    3ea0:	e0bfff15 	stw	r2,-4(fp)
		scanf("%i", &pDir);
    3ea4:	e0bfff04 	addi	r2,fp,-4
    3ea8:	100b883a 	mov	r5,r2
    3eac:	010000b4 	movhi	r4,2
    3eb0:	2114c304 	addi	r4,r4,21260
    3eb4:	00064780 	call	6478 <scanf>
		printf("\n");
    3eb8:	01000284 	movi	r4,10
    3ebc:	0005bcc0 	call	5bcc <putchar>

		printf("\npRow: %d\npField: %d\npDir: %d\n\n",pRow,pField,pDir);
    3ec0:	e0bfff17 	ldw	r2,-4(fp)
    3ec4:	100f883a 	mov	r7,r2
    3ec8:	e1bfe217 	ldw	r6,-120(fp)
    3ecc:	e17fe117 	ldw	r5,-124(fp)
    3ed0:	010000b4 	movhi	r4,2
    3ed4:	2114c404 	addi	r4,r4,21264
    3ed8:	0005b880 	call	5b88 <printf>

		if(checkIfCanMove((unsigned char **)board,pRow,pField,pDir, FRIENDLY, FRIENDLYKING, ENEMY, ENEMYKING, FRIENDLYDIRECTION)){
    3edc:	e0ffff17 	ldw	r3,-4(fp)
    3ee0:	00bfffc4 	movi	r2,-1
    3ee4:	d8800415 	stw	r2,16(sp)
    3ee8:	00800144 	movi	r2,5
    3eec:	d8800315 	stw	r2,12(sp)
    3ef0:	00800104 	movi	r2,4
    3ef4:	d8800215 	stw	r2,8(sp)
    3ef8:	008000c4 	movi	r2,3
    3efc:	d8800115 	stw	r2,4(sp)
    3f00:	00800084 	movi	r2,2
    3f04:	d8800015 	stw	r2,0(sp)
    3f08:	180f883a 	mov	r7,r3
    3f0c:	e1bfe217 	ldw	r6,-120(fp)
    3f10:	e17fe117 	ldw	r5,-124(fp)
    3f14:	010000f4 	movhi	r4,3
    3f18:	21251d04 	addi	r4,r4,-27532
    3f1c:	00018280 	call	1828 <checkIfCanMove>
    3f20:	10002726 	beq	r2,zero,3fc0 <playerInput+0x46c>
			move((unsigned char **)board,pRow,pField,pDir, FRIENDLY, FRIENDLYKING, ENEMY, ENEMYKING, FRIENDLYDIRECTION);
    3f24:	e0bfe117 	ldw	r2,-124(fp)
    3f28:	10c03fcc 	andi	r3,r2,255
    3f2c:	e0bfe217 	ldw	r2,-120(fp)
    3f30:	11003fcc 	andi	r4,r2,255
    3f34:	e0bfff17 	ldw	r2,-4(fp)
    3f38:	11403fcc 	andi	r5,r2,255
    3f3c:	00bfffc4 	movi	r2,-1
    3f40:	d8800415 	stw	r2,16(sp)
    3f44:	00800144 	movi	r2,5
    3f48:	d8800315 	stw	r2,12(sp)
    3f4c:	00800104 	movi	r2,4
    3f50:	d8800215 	stw	r2,8(sp)
    3f54:	008000c4 	movi	r2,3
    3f58:	d8800115 	stw	r2,4(sp)
    3f5c:	00800084 	movi	r2,2
    3f60:	d8800015 	stw	r2,0(sp)
    3f64:	280f883a 	mov	r7,r5
    3f68:	200d883a 	mov	r6,r4
    3f6c:	180b883a 	mov	r5,r3
    3f70:	010000f4 	movhi	r4,3
    3f74:	21251d04 	addi	r4,r4,-27532
    3f78:	00022b40 	call	22b4 <move>
			createKing((unsigned char **)board);
    3f7c:	010000f4 	movhi	r4,3
    3f80:	21251d04 	addi	r4,r4,-27532
    3f84:	00025740 	call	2574 <createKing>
			printBoard((unsigned char **)board,pRow,pField,100,100);
    3f88:	e0bfe117 	ldw	r2,-124(fp)
    3f8c:	10c03fcc 	andi	r3,r2,255
    3f90:	e0bfe217 	ldw	r2,-120(fp)
    3f94:	11003fcc 	andi	r4,r2,255
    3f98:	00801904 	movi	r2,100
    3f9c:	d8800015 	stw	r2,0(sp)
    3fa0:	01c01904 	movi	r7,100
    3fa4:	200d883a 	mov	r6,r4
    3fa8:	180b883a 	mov	r5,r3
    3fac:	010000f4 	movhi	r4,3
    3fb0:	21251d04 	addi	r4,r4,-27532
    3fb4:	00004bc0 	call	4bc <printBoard>
			return 1;
    3fb8:	00800044 	movi	r2,1
    3fbc:	00000906 	br	3fe4 <playerInput+0x490>
		}else{
			printf("Can't move to that field! Try again.\n");
    3fc0:	010000b4 	movhi	r4,2
    3fc4:	2114cc04 	addi	r4,r4,21296
    3fc8:	0005ca40 	call	5ca4 <puts>
			return playerInput();
    3fcc:	0003b540 	call	3b54 <playerInput>
    3fd0:	00000406 	br	3fe4 <playerInput+0x490>
		}
	}else{
		printf("Wrong piece selected, try again\n");
    3fd4:	010000b4 	movhi	r4,2
    3fd8:	2114d604 	addi	r4,r4,21336
    3fdc:	0005ca40 	call	5ca4 <puts>
		return playerInput();
    3fe0:	0003b540 	call	3b54 <playerInput>
	}
}
    3fe4:	e037883a 	mov	sp,fp
    3fe8:	dfc00117 	ldw	ra,4(sp)
    3fec:	df000017 	ldw	fp,0(sp)
    3ff0:	dec00204 	addi	sp,sp,8
    3ff4:	f800283a 	ret

00003ff8 <play>:

void play(){
    3ff8:	defffa04 	addi	sp,sp,-24
    3ffc:	dfc00515 	stw	ra,20(sp)
    4000:	df000415 	stw	fp,16(sp)
    4004:	df000404 	addi	fp,sp,16
	unsigned char friendlyMoved = 1;
    4008:	00800044 	movi	r2,1
    400c:	e0bfff05 	stb	r2,-4(fp)
	unsigned char enemyMoved = 1;
    4010:	00800044 	movi	r2,1
    4014:	e0bfff45 	stb	r2,-3(fp)
	unsigned char turn = 0;
    4018:	e03fff85 	stb	zero,-2(fp)
	unsigned char turnCounter = 0;
    401c:	e03fffc5 	stb	zero,-1(fp)

	while(friendlyMoved == 1 && enemyMoved == 1){
    4020:	00001e06 	br	409c <play+0xa4>
		if(turn == 0){
    4024:	e0bfff83 	ldbu	r2,-2(fp)
    4028:	1000081e 	bne	r2,zero,404c <play+0x54>
			printf("FRIENDLY TURN\n");
    402c:	010000b4 	movhi	r4,2
    4030:	2114de04 	addi	r4,r4,21368
    4034:	0005ca40 	call	5ca4 <puts>
			if(PLAYER_INPUT){
				friendlyMoved = playerInput();
    4038:	0003b540 	call	3b54 <playerInput>
    403c:	e0bfff05 	stb	r2,-4(fp)
				//friendlyMoved = bfAlgorithm(FRIENDLY, FRIENDLYKING, ENEMY, ENEMYKING, FRIENDLYDIRECTION);
				friendlyMoved = minimaxAlgorithm((unsigned char **)board,FRIENDLY, FRIENDLYKING, ENEMY, ENEMYKING, FRIENDLYDIRECTION,2);
				//friendlyMoved = 1;
				//friendlyMoved = algorithm(FRIENDLY, FRIENDLYKING, ENEMY, ENEMYKING, FRIENDLYDIRECTION);
			}
			turn = 1;
    4040:	00800044 	movi	r2,1
    4044:	e0bfff85 	stb	r2,-2(fp)
    4048:	00001106 	br	4090 <play+0x98>
		}else{
			printf("ENEMY TURN\n");
    404c:	010000b4 	movhi	r4,2
    4050:	2114e204 	addi	r4,r4,21384
    4054:	0005ca40 	call	5ca4 <puts>
			//enemyMoved = bfAlgorithm(ENEMY, ENEMYKING, FRIENDLY, FRIENDLYKING, ENEMYDIRECTION);
			enemyMoved = minimaxAlgorithm((unsigned char **)board,ENEMY, ENEMYKING, FRIENDLY, FRIENDLYKING, ENEMYDIRECTION,2);
    4058:	00800084 	movi	r2,2
    405c:	d8800215 	stw	r2,8(sp)
    4060:	00800044 	movi	r2,1
    4064:	d8800115 	stw	r2,4(sp)
    4068:	008000c4 	movi	r2,3
    406c:	d8800015 	stw	r2,0(sp)
    4070:	01c00084 	movi	r7,2
    4074:	01800144 	movi	r6,5
    4078:	01400104 	movi	r5,4
    407c:	010000f4 	movhi	r4,3
    4080:	21251d04 	addi	r4,r4,-27532
    4084:	0002ea80 	call	2ea8 <minimaxAlgorithm>
    4088:	e0bfff45 	stb	r2,-3(fp)
			//enemyMoved = 1;
			//enemyMoved = algorithm(ENEMY, ENEMYKING, FRIENDLY, FRIENDLYKING, ENEMYDIRECTION);
			turn = 0;
    408c:	e03fff85 	stb	zero,-2(fp)
		}
		turnCounter++;
    4090:	e0bfffc3 	ldbu	r2,-1(fp)
    4094:	10800044 	addi	r2,r2,1
    4098:	e0bfffc5 	stb	r2,-1(fp)
	unsigned char friendlyMoved = 1;
	unsigned char enemyMoved = 1;
	unsigned char turn = 0;
	unsigned char turnCounter = 0;

	while(friendlyMoved == 1 && enemyMoved == 1){
    409c:	e0bfff03 	ldbu	r2,-4(fp)
    40a0:	10800058 	cmpnei	r2,r2,1
    40a4:	1000031e 	bne	r2,zero,40b4 <play+0xbc>
    40a8:	e0bfff43 	ldbu	r2,-3(fp)
    40ac:	10800060 	cmpeqi	r2,r2,1
    40b0:	103fdc1e 	bne	r2,zero,4024 <__alt_data_end+0xfc004024>
			turn = 0;
		}
		turnCounter++;
	}

	if(friendlyMoved == 0){
    40b4:	e0bfff03 	ldbu	r2,-4(fp)
    40b8:	1000041e 	bne	r2,zero,40cc <play+0xd4>
		printf("YOU LOST\n");
    40bc:	010000b4 	movhi	r4,2
    40c0:	2114e504 	addi	r4,r4,21396
    40c4:	0005ca40 	call	5ca4 <puts>
    40c8:	00000306 	br	40d8 <play+0xe0>
	}else{
		printf("YOU WON\n");
    40cc:	010000b4 	movhi	r4,2
    40d0:	2114e804 	addi	r4,r4,21408
    40d4:	0005ca40 	call	5ca4 <puts>
	}
	turnCounter--;
    40d8:	e0bfffc3 	ldbu	r2,-1(fp)
    40dc:	10bfffc4 	addi	r2,r2,-1
    40e0:	e0bfffc5 	stb	r2,-1(fp)
	printf("the game lasted for %i turns\n",turnCounter);
    40e4:	e0bfffc3 	ldbu	r2,-1(fp)
    40e8:	100b883a 	mov	r5,r2
    40ec:	010000b4 	movhi	r4,2
    40f0:	2114ea04 	addi	r4,r4,21416
    40f4:	0005b880 	call	5b88 <printf>
}
    40f8:	0001883a 	nop
    40fc:	e037883a 	mov	sp,fp
    4100:	dfc00117 	ldw	ra,4(sp)
    4104:	df000017 	ldw	fp,0(sp)
    4108:	dec00204 	addi	sp,sp,8
    410c:	f800283a 	ret

00004110 <createBoard>:

void createBoard(){
    4110:	defffe04 	addi	sp,sp,-8
    4114:	df000115 	stw	fp,4(sp)
    4118:	df000104 	addi	fp,sp,4
	unsigned char x = 1;
    411c:	00800044 	movi	r2,1
    4120:	e0bfff05 	stb	r2,-4(fp)
	unsigned char y = 0;
    4124:	e03fff45 	stb	zero,-3(fp)
	unsigned char even = 1;
    4128:	00800044 	movi	r2,1
    412c:	e0bfff85 	stb	r2,-2(fp)

	while(y < 10){
    4130:	00003506 	br	4208 <createBoard+0xf8>
		board[y][x] = BLACK;
    4134:	e13fff43 	ldbu	r4,-3(fp)
    4138:	e0ffff03 	ldbu	r3,-4(fp)
    413c:	008000f4 	movhi	r2,3
    4140:	10a51d04 	addi	r2,r2,-27532
    4144:	210002a4 	muli	r4,r4,10
    4148:	1105883a 	add	r2,r2,r4
    414c:	10c5883a 	add	r2,r2,r3
    4150:	00c00044 	movi	r3,1
    4154:	10c00005 	stb	r3,0(r2)
		if(y < 4){
    4158:	e0bfff43 	ldbu	r2,-3(fp)
    415c:	10800128 	cmpgeui	r2,r2,4
    4160:	1000091e 	bne	r2,zero,4188 <createBoard+0x78>
			board[y][x] = ENEMY;
    4164:	e13fff43 	ldbu	r4,-3(fp)
    4168:	e0ffff03 	ldbu	r3,-4(fp)
    416c:	008000f4 	movhi	r2,3
    4170:	10a51d04 	addi	r2,r2,-27532
    4174:	210002a4 	muli	r4,r4,10
    4178:	1105883a 	add	r2,r2,r4
    417c:	10c5883a 	add	r2,r2,r3
    4180:	00c00104 	movi	r3,4
    4184:	10c00005 	stb	r3,0(r2)

		}
		if(y > 5){
    4188:	e0bfff43 	ldbu	r2,-3(fp)
    418c:	108001b0 	cmpltui	r2,r2,6
    4190:	1000091e 	bne	r2,zero,41b8 <createBoard+0xa8>
			board[y][x] = FRIENDLY;
    4194:	e13fff43 	ldbu	r4,-3(fp)
    4198:	e0ffff03 	ldbu	r3,-4(fp)
    419c:	008000f4 	movhi	r2,3
    41a0:	10a51d04 	addi	r2,r2,-27532
    41a4:	210002a4 	muli	r4,r4,10
    41a8:	1105883a 	add	r2,r2,r4
    41ac:	10c5883a 	add	r2,r2,r3
    41b0:	00c00084 	movi	r3,2
    41b4:	10c00005 	stb	r3,0(r2)
		}

		if(x + 2 < 10 ){
    41b8:	e0bfff03 	ldbu	r2,-4(fp)
    41bc:	10800084 	addi	r2,r2,2
    41c0:	10800288 	cmpgei	r2,r2,10
    41c4:	1000041e 	bne	r2,zero,41d8 <createBoard+0xc8>
			x = x + 2;
    41c8:	e0bfff03 	ldbu	r2,-4(fp)
    41cc:	10800084 	addi	r2,r2,2
    41d0:	e0bfff05 	stb	r2,-4(fp)
    41d4:	00000c06 	br	4208 <createBoard+0xf8>
		}else{
			y++;
    41d8:	e0bfff43 	ldbu	r2,-3(fp)
    41dc:	10800044 	addi	r2,r2,1
    41e0:	e0bfff45 	stb	r2,-3(fp)
			x = 0;
    41e4:	e03fff05 	stb	zero,-4(fp)
			even = !even;
    41e8:	e0bfff83 	ldbu	r2,-2(fp)
    41ec:	1005003a 	cmpeq	r2,r2,zero
    41f0:	e0bfff85 	stb	r2,-2(fp)
			if(even > 0){
    41f4:	e0bfff83 	ldbu	r2,-2(fp)
    41f8:	10000326 	beq	r2,zero,4208 <createBoard+0xf8>
				x++;
    41fc:	e0bfff03 	ldbu	r2,-4(fp)
    4200:	10800044 	addi	r2,r2,1
    4204:	e0bfff05 	stb	r2,-4(fp)
void createBoard(){
	unsigned char x = 1;
	unsigned char y = 0;
	unsigned char even = 1;

	while(y < 10){
