
DikkeKoek.elf:     file format elf32-littlenios2
DikkeKoek.elf
architecture: nios2:r1, flags 0x00000112:
EXEC_P, HAS_SYMS, D_PAGED
start address 0x00000244

Program Header:
    LOAD off    0x00001000 vaddr 0x00000000 paddr 0x00000000 align 2**12
         filesz 0x00000020 memsz 0x00000020 flags r-x
    LOAD off    0x00001020 vaddr 0x00000020 paddr 0x00000020 align 2**12
         filesz 0x00024fbc memsz 0x00024fbc flags r-x
    LOAD off    0x00025fdc vaddr 0x00024fdc paddr 0x00026b58 align 2**12
         filesz 0x00001b7c memsz 0x00001b7c flags rw-
    LOAD off    0x000286d4 vaddr 0x000286d4 paddr 0x000286d4 align 2**12
         filesz 0x00000000 memsz 0x0000544c flags rw-

Sections:
Idx Name          Size      VMA       LMA       File off  Algn
  0 .entry        00000020  00000000  00000000  00001000  2**5
                  CONTENTS, ALLOC, LOAD, READONLY, CODE
  1 .exceptions   00000224  00000020  00000020  00001020  2**2
                  CONTENTS, ALLOC, LOAD, READONLY, CODE
  2 .text         00024244  00000244  00000244  00001244  2**2
                  CONTENTS, ALLOC, LOAD, READONLY, CODE
  3 .rodata       00000b54  00024488  00024488  00025488  2**2
                  CONTENTS, ALLOC, LOAD, READONLY, DATA
  4 .rwdata       00001b7c  00024fdc  00026b58  00025fdc  2**2
                  CONTENTS, ALLOC, LOAD, DATA, SMALL_DATA
  5 .bss          0000544c  000286d4  000286d4  000286d4  2**2
                  ALLOC, SMALL_DATA
  6 .SDRAM        00000000  0002db20  0002db20  00027b58  2**0
                  CONTENTS
  7 .comment      00000023  00000000  00000000  00027b58  2**0
                  CONTENTS, READONLY
  8 .debug_aranges 000014c0  00000000  00000000  00027b80  2**3
                  CONTENTS, READONLY, DEBUGGING
  9 .debug_info   0003f15d  00000000  00000000  00029040  2**0
                  CONTENTS, READONLY, DEBUGGING
 10 .debug_abbrev 0000e850  00000000  00000000  0006819d  2**0
                  CONTENTS, READONLY, DEBUGGING
 11 .debug_line   00013c88  00000000  00000000  000769ed  2**0
                  CONTENTS, READONLY, DEBUGGING
 12 .debug_frame  00003f2c  00000000  00000000  0008a678  2**2
                  CONTENTS, READONLY, DEBUGGING
 13 .debug_str    00005ae0  00000000  00000000  0008e5a4  2**0
                  CONTENTS, READONLY, DEBUGGING
 14 .debug_loc    00024fff  00000000  00000000  00094084  2**0
                  CONTENTS, READONLY, DEBUGGING
 15 .debug_alt_sim_info 00000020  00000000  00000000  000b9084  2**2
                  CONTENTS, READONLY, DEBUGGING
 16 .debug_ranges 00002158  00000000  00000000  000b90a8  2**3
                  CONTENTS, READONLY, DEBUGGING
 17 .thread_model 00000006  00000000  00000000  000c07ce  2**0
                  CONTENTS, READONLY
 18 .cpu          00000005  00000000  00000000  000c07d4  2**0
                  CONTENTS, READONLY
 19 .qsys         00000001  00000000  00000000  000c07d9  2**0
                  CONTENTS, READONLY
 20 .simulation_enabled 00000001  00000000  00000000  000c07da  2**0
                  CONTENTS, READONLY
 21 .stderr_dev   00000009  00000000  00000000  000c07db  2**0
                  CONTENTS, READONLY
 22 .stdin_dev    00000009  00000000  00000000  000c07e4  2**0
                  CONTENTS, READONLY
 23 .stdout_dev   00000009  00000000  00000000  000c07ed  2**0
                  CONTENTS, READONLY
 24 .sopc_system_name 0000000b  00000000  00000000  000c07f6  2**0
                  CONTENTS, READONLY
 25 .quartus_project_dir 00000032  00000000  00000000  000c0801  2**0
                  CONTENTS, READONLY
 26 .jdi          00008b87  00000000  00000000  000c0833  2**0
                  CONTENTS, READONLY
 27 .sopcinfo     000a4078  00000000  00000000  000c93ba  2**0
                  CONTENTS, READONLY
SYMBOL TABLE:
00000000 l    d  .entry	00000000 .entry
00000020 l    d  .exceptions	00000000 .exceptions
00000244 l    d  .text	00000000 .text
00024488 l    d  .rodata	00000000 .rodata
00024fdc l    d  .rwdata	00000000 .rwdata
000286d4 l    d  .bss	00000000 .bss
0002db20 l    d  .SDRAM	00000000 .SDRAM
00000000 l    d  .comment	00000000 .comment
00000000 l    d  .debug_aranges	00000000 .debug_aranges
00000000 l    d  .debug_info	00000000 .debug_info
00000000 l    d  .debug_abbrev	00000000 .debug_abbrev
00000000 l    d  .debug_line	00000000 .debug_line
00000000 l    d  .debug_frame	00000000 .debug_frame
00000000 l    d  .debug_str	00000000 .debug_str
00000000 l    d  .debug_loc	00000000 .debug_loc
00000000 l    d  .debug_alt_sim_info	00000000 .debug_alt_sim_info
00000000 l    d  .debug_ranges	00000000 .debug_ranges
00000000 l    df *ABS*	00000000 ../DikkeKoek_bsp//obj/HAL/src/crt0.o
0000027c l       .text	00000000 alt_after_alt_main
00000000 l    df *ABS*	00000000 alt_irq_handler.c
00000000 l    df *ABS*	00000000 alt_instruction_exception_entry.c
00000000 l    df *ABS*	00000000 algo_ucos.c
00000000 l    df *ABS*	00000000 vector.c
00000000 l    df *ABS*	00000000 fgets.c
00000000 l    df *ABS*	00000000 findfp.c
000045f4 l     F .text	00000008 __fp_unlock
00004608 l     F .text	0000019c __sinit.part.1
000047a4 l     F .text	00000008 __fp_lock
00000000 l    df *ABS*	00000000 fwalk.c
00000000 l    df *ABS*	00000000 impure.c
00024fdc l     O .rwdata	00000424 impure_data
00000000 l    df *ABS*	00000000 malloc.c
00000000 l    df *ABS*	00000000 mallocr.c
00000000 l    df *ABS*	00000000 memchr.c
00000000 l    df *ABS*	00000000 memcpy.c
00000000 l    df *ABS*	00000000 memset.c
00000000 l    df *ABS*	00000000 printf.c
00000000 l    df *ABS*	00000000 putchar.c
00000000 l    df *ABS*	00000000 puts.c
00000000 l    df *ABS*	00000000 realloc.c
00000000 l    df *ABS*	00000000 mallocr.c
00000000 l    df *ABS*	00000000 refill.c
00005d80 l     F .text	0000001c lflush
00000000 l    df *ABS*	00000000 sbrkr.c
00000000 l    df *ABS*	00000000 scanf.c
00000000 l    df *ABS*	00000000 stdio.c
00000000 l    df *ABS*	00000000 strlen.c
00000000 l    df *ABS*	00000000 strtol.c
00000000 l    df *ABS*	00000000 vfprintf.c
000247be l     O .rodata	00000010 zeroes.4404
0000866c l     F .text	000000bc __sbprintf
000247ce l     O .rodata	00000010 blanks.4403
00000000 l    df *ABS*	00000000 vfscanf.c
000247e6 l     O .rodata	00000022 basefix.4359
00000000 l    df *ABS*	00000000 writer.c
00000000 l    df *ABS*	00000000 wsetup.c
00000000 l    df *ABS*	00000000 closer.c
00000000 l    df *ABS*	00000000 ctype_.c
00024909 l     O .rodata	00000180 _ctype_b
00000000 l    df *ABS*	00000000 dtoa.c
0000a1bc l     F .text	00000200 quorem
00000000 l    df *ABS*	00000000 fclose.c
00000000 l    df *ABS*	00000000 fflush.c
00000000 l    df *ABS*	00000000 fread.c
00000000 l    df *ABS*	00000000 mallocr.c
00000000 l    df *ABS*	00000000 fvwrite.c
00000000 l    df *ABS*	00000000 int_errno.c
00000000 l    df *ABS*	00000000 iswspace.c
00000000 l    df *ABS*	00000000 locale.c
00025828 l     O .rwdata	00000020 lc_ctype_charset
00025808 l     O .rwdata	00000020 lc_message_charset
00025848 l     O .rwdata	00000038 lconv
00000000 l    df *ABS*	00000000 lseekr.c
00000000 l    df *ABS*	00000000 makebuf.c
00000000 l    df *ABS*	00000000 mbrtowc.c
00000000 l    df *ABS*	00000000 mbtowc_r.c
00000000 l    df *ABS*	00000000 memmove.c
00000000 l    df *ABS*	00000000 mprec.c
00024aa8 l     O .rodata	0000000c p05.2768
00000000 l    df *ABS*	00000000 putc.c
00000000 l    df *ABS*	00000000 readr.c
00000000 l    df *ABS*	00000000 s_fpclassify.c
00000000 l    df *ABS*	00000000 sccl.c
00000000 l    df *ABS*	00000000 sf_nan.c
00000000 l    df *ABS*	00000000 sprintf.c
00000000 l    df *ABS*	00000000 strcmp.c
00000000 l    df *ABS*	00000000 strtod.c
0000e498 l     F .text	00000064 sulp
00024bf0 l     O .rodata	00000014 fpi.2737
00024c04 l     O .rodata	00000028 tinytens
00024bdc l     O .rodata	00000014 fpinan.2773
00000000 l    df *ABS*	00000000 strtoll_r.c
00000000 l    df *ABS*	00000000 strtoul.c
00000000 l    df *ABS*	00000000 strtoull_r.c
00000000 l    df *ABS*	00000000 vfprintf.c
00024c2c l     O .rodata	00000010 zeroes.4389
00024c3c l     O .rodata	00000010 blanks.4388
00000000 l    df *ABS*	00000000 ungetc.c
00000000 l    df *ABS*	00000000 vfprintf.c
00012884 l     F .text	000000fc __sprint_r.part.0
00024c5c l     O .rodata	00000010 blanks.4348
00024c4c l     O .rodata	00000010 zeroes.4349
00013e10 l     F .text	000000bc __sbprintf
00000000 l    df *ABS*	00000000 wbuf.c
00000000 l    df *ABS*	00000000 mallocr.c
00000000 l    df *ABS*	00000000 fputwc.c
00000000 l    df *ABS*	00000000 fstatr.c
00000000 l    df *ABS*	00000000 gdtoa-gethex.c
0001434c l     F .text	00000100 rshift
00000000 l    df *ABS*	00000000 gdtoa-hexnan.c
00000000 l    df *ABS*	00000000 isattyr.c
00000000 l    df *ABS*	00000000 strncmp.c
00000000 l    df *ABS*	00000000 vfprintf.c
00024d7c l     O .rodata	00000010 blanks.4332
00024d6c l     O .rodata	00000010 zeroes.4333
00000000 l    df *ABS*	00000000 wcrtomb.c
00000000 l    df *ABS*	00000000 wctomb_r.c
00000000 l    df *ABS*	00000000 libgcc2.c
00000000 l    df *ABS*	00000000 libgcc2.c
00000000 l    df *ABS*	00000000 libgcc2.c
00000000 l    df *ABS*	00000000 lib2-divmod.c
00000000 l    df *ABS*	00000000 eqsf2.c
00000000 l    df *ABS*	00000000 gesf2.c
00000000 l    df *ABS*	00000000 lesf2.c
00000000 l    df *ABS*	00000000 adddf3.c
00000000 l    df *ABS*	00000000 divdf3.c
00000000 l    df *ABS*	00000000 eqdf2.c
00000000 l    df *ABS*	00000000 gedf2.c
00000000 l    df *ABS*	00000000 ledf2.c
00000000 l    df *ABS*	00000000 muldf3.c
00000000 l    df *ABS*	00000000 subdf3.c
00000000 l    df *ABS*	00000000 fixdfsi.c
00000000 l    df *ABS*	00000000 floatsidf.c
00000000 l    df *ABS*	00000000 floatunsidf.c
00000000 l    df *ABS*	00000000 truncdfsf2.c
00000000 l    df *ABS*	00000000 libgcc2.c
00000000 l    df *ABS*	00000000 libgcc2.c
00000000 l    df *ABS*	00000000 alt_close.c
00019cd4 l     F .text	0000003c alt_get_errno
00000000 l    df *ABS*	00000000 alt_dev.c
00019de0 l     F .text	0000002c alt_dev_null_write
00000000 l    df *ABS*	00000000 alt_errno.c
00000000 l    df *ABS*	00000000 alt_fstat.c
00019e0c l     F .text	0000003c alt_get_errno
00000000 l    df *ABS*	00000000 alt_isatty.c
00019ef8 l     F .text	0000003c alt_get_errno
00000000 l    df *ABS*	00000000 alt_load.c
00019fd8 l     F .text	00000068 alt_load_section
00000000 l    df *ABS*	00000000 alt_lseek.c
0001a0c4 l     F .text	0000003c alt_get_errno
00000000 l    df *ABS*	00000000 alt_main.c
00000000 l    df *ABS*	00000000 alt_read.c
0001a290 l     F .text	0000003c alt_get_errno
00000000 l    df *ABS*	00000000 alt_release_fd.c
00000000 l    df *ABS*	00000000 alt_sbrk.c
00026acc l     O .rwdata	00000004 heap_end
00000000 l    df *ABS*	00000000 alt_write.c
0001a4dc l     F .text	0000003c alt_get_errno
00000000 l    df *ABS*	00000000 alt_env_lock.c
00026ad0 l     O .rwdata	00000004 lockid
00028700 l     O .bss	00000004 locks
00000000 l    df *ABS*	00000000 alt_malloc_lock.c
00026ad4 l     O .rwdata	00000004 lockid
00028708 l     O .bss	00000004 locks
00000000 l    df *ABS*	00000000 os_core.c
0001bf0c l     F .text	00000048 OS_InitMisc
0001bf54 l     F .text	0000006c OS_InitRdyList
0001c0c0 l     F .text	000000e4 OS_InitTCBList
0001be2c l     F .text	000000e0 OS_InitEventList
0001bfc0 l     F .text	00000080 OS_InitTaskIdle
0001c040 l     F .text	00000080 OS_InitTaskStat
0001c330 l     F .text	00000074 OS_SchedNew
00000000 l    df *ABS*	00000000 os_dbg.c
00000000 l    df *ABS*	00000000 os_flag.c
0001e050 l     F .text	000000f4 OS_FlagTaskRdy
0001de10 l     F .text	00000160 OS_FlagBlock
00000000 l    df *ABS*	00000000 os_mem.c
00000000 l    df *ABS*	00000000 os_q.c
00000000 l    df *ABS*	00000000 os_sem.c
00000000 l    df *ABS*	00000000 os_task.c
00000000 l    df *ABS*	00000000 os_time.c
00000000 l    df *ABS*	00000000 alt_sys_init.c
00022100 l     F .text	00000034 alt_dev_reg
00025a28 l     O .rwdata	0000106c JTAG_UART
00000000 l    df *ABS*	00000000 altera_avalon_jtag_uart_fd.c
00000000 l    df *ABS*	00000000 altera_avalon_jtag_uart_init.c
00022460 l     F .text	000002a4 altera_avalon_jtag_uart_irq
00022704 l     F .text	00000104 altera_avalon_jtag_uart_timeout
00000000 l    df *ABS*	00000000 altera_avalon_jtag_uart_ioctl.c
00000000 l    df *ABS*	00000000 altera_avalon_jtag_uart_read.c
00000000 l    df *ABS*	00000000 altera_avalon_jtag_uart_write.c
00000000 l    df *ABS*	00000000 alt_alarm_start.c
00000000 l    df *ABS*	00000000 alt_dcache_flush_all.c
00000000 l    df *ABS*	00000000 alt_dev_llist_insert.c
0002302c l     F .text	0000003c alt_get_errno
00000000 l    df *ABS*	00000000 alt_do_ctors.c
00000000 l    df *ABS*	00000000 alt_do_dtors.c
00000000 l    df *ABS*	00000000 alt_icache_flush_all.c
00000000 l    df *ABS*	00000000 alt_iic.c
00000000 l    df *ABS*	00000000 alt_iic_isr_register.c
00000000 l    df *ABS*	00000000 alt_io_redirect.c
000234a0 l     F .text	000000c4 alt_open_fd
00000000 l    df *ABS*	00000000 alt_irq_vars.c
00000000 l    df *ABS*	00000000 alt_open.c
000235e0 l     F .text	0000003c alt_get_errno
0002361c l     F .text	000000c4 alt_file_locked
00000000 l    df *ABS*	00000000 alt_tick.c
00000000 l    df *ABS*	00000000 altera_nios2_gen2_irq.c
00000000 l    df *ABS*	00000000 os_cpu_a.o
00000040 l       *ABS*	00000000 OSCtxSw_SWITCH_PC
00000000 l    df *ABS*	00000000 os_cpu_c.c
00000014 l       *ABS*	00000000 OSTCBNext_OFFSET
00000032 l       *ABS*	00000000 OSTCBPrio_OFFSET
00000000 l       *ABS*	00000000 OSTCBStkPtr_OFFSET
00000000 l    df *ABS*	00000000 alt_find_dev.c
00000000 l    df *ABS*	00000000 alt_find_file.c
00000000 l    df *ABS*	00000000 alt_get_fd.c
00000000 l    df *ABS*	00000000 alt_icache_flush.c
00000000 l    df *ABS*	00000000 atexit.c
00000000 l    df *ABS*	00000000 exit.c
00000000 l    df *ABS*	00000000 memcmp.c
00000000 l    df *ABS*	00000000 __atexit.c
00000000 l    df *ABS*	00000000 __call_atexit.c
00000000 l    df *ABS*	00000000 alt_exit.c
0002876c g     O .bss	00000004 alt_instruction_exception_handler
00005718 g     F .text	00000018 putchar
0000de6c g     F .text	00000074 _mprec_log10
00026b22 g     O .rwdata	00000002 OSTaskNameSize
0000df58 g     F .text	0000008c __any_on
00014ed8 g     F .text	00000054 _isatty_r
00024ab4 g     O .rodata	00000028 __mprec_tinytens
0001a1d4 g     F .text	000000bc alt_main
00005730 g     F .text	000000c0 _puts_r
0002da20 g     O .bss	00000100 alt_irq
0000ca4c g     F .text	00000060 _lseek_r
0001e870 g     F .text	000000cc OS_MemInit
00000c68 g     F .text	000001f8 stripCaptureVector
00026b58 g       *ABS*	00000000 __flash_rwdata_start
000220a0 g     F .text	00000060 OSTimeSet
00018658 g     F .text	00000088 .hidden __eqdf2
00003674 g     F .text	000004a4 playerInput
0001ab80 g     F .text	00000610 OSEventPendMulti
0002db20 g       *ABS*	00000000 __alt_heap_start
00023c28 g     F .text	00000024 OSTaskCreateHook
000056d4 g     F .text	0000003c printf
00026afa g     O .rwdata	00000002 OSMboxEn
0001b1e8 g     F .text	0000004c OSIntEnter
00016408 g     F .text	0000009c _wcrtomb_r
00006108 g     F .text	0000005c __sseek
00004944 g     F .text	00000010 __sinit
00013ecc g     F .text	00000140 __swbuf_r
00004020 g     F .text	00000058 vectorGet
00026b0a g     O .rwdata	00000002 OSQEn
0000c970 g     F .text	0000007c _setlocale_r
000047ac g     F .text	00000068 __sfmoreglue
00001fd8 g     F .text	000000d4 createKing
0001286c g     F .text	00000018 ungetc
0001a854 g     F .text	000000cc __malloc_unlock
00023c90 g     F .text	00000020 OSTaskStatHook
00028710 g     O .bss	00000001 OSLockNesting
0000e4fc g     F .text	000015f8 _strtod_r
00026b48 g     O .rwdata	00000002 OSDataSize
00028711 g     O .bss	00000001 OSRunning
0000ce8c g     F .text	0000015c memmove
00023cd0 g     F .text	00000020 OSInitHookBegin
00026b40 g     O .rwdata	00000002 OSTmrSize
0000492c g     F .text	00000018 _cleanup
0000cfe8 g     F .text	000000a8 _Balloc
000041e8 g     F .text	00000058 printLocation
00028714 g     O .bss	00000004 OSIdleCtr
000186e0 g     F .text	000000dc .hidden __gtdf2
000239d8 g     F .text	00000024 altera_nios2_gen2_irq_init
00023aa8 g       .text	00000000 OSStartTsk
0001c670 g     F .text	000002d4 OS_TCBInit
00000000 g     F .entry	0000001c __reset
00026b46 g     O .rwdata	00000002 OSTmrWheelTblSize
00000020 g       *ABS*	00000000 __flash_exceptions_start
00026ae6 g     O .rwdata	00000002 OSEventSize
00028718 g     O .bss	00000001 OSPrioHighRdy
000142f0 g     F .text	0000005c _fstat_r
00023c4c g     F .text	00000024 OSTaskDelHook
000286e0 g     O .bss	00000004 errno
00009f4c g     F .text	0000001c __svfscanf
00006084 g     F .text	00000008 __seofread
00023a88 g       .text	00000000 OSStartHighRdy
00020b3c g     F .text	000001e4 OSTaskCreateExt
000151cc g     F .text	0000123c ___svfiprintf_internal_r
0001d958 g     F .text	00000060 OSFlagPendGetFlagsRdy
00026b26 g     O .rwdata	00000002 OSTaskStatStkSize
0001cad4 g     F .text	00000308 OSFlagAccept
0001eea8 g     F .text	000000b8 OSQFlush
0001e93c g     F .text	00000140 OSQAccept
000286f8 g     O .bss	00000004 alt_argv
0002ea94 g       *ABS*	00000000 _gp
00020990 g     F .text	000001ac OSTaskCreate
000204a0 g     F .text	000004f0 OSTaskChangePrio
0002870c g     O .bss	00000004 alt_heapsem
0001c944 g     F .text	00000190 OSDebugInit
00020d20 g     F .text	00000344 OSTaskDel
000045d8 g     F .text	0000001c fgets
000258a8 g     O .rwdata	00000180 alt_fd_list
0002a7fc g     O .bss	00000370 OSFlagTbl
00005710 g     F .text	00000008 _putchar_r
0000104c g     F .text	000001d4 generateCaptureList
0001bc0c g     F .text	000000b8 OS_EventTaskRemove
00023d54 g     F .text	00000090 alt_find_dev
00005434 g     F .text	00000148 memcpy
00014c7c g     F .text	0000025c __hexnan
00026b10 g     O .rwdata	00000002 OSRdyTblSize
00028798 g     O .bss	00000064 board
000045fc g     F .text	0000000c _cleanup_r
00019944 g     F .text	000000dc .hidden __floatsidf
00023564 g     F .text	0000007c alt_io_redirect
000187bc g     F .text	000000f4 .hidden __ltdf2
00024488 g       *ABS*	00000000 __DTOR_END__
000057f0 g     F .text	00000014 puts
00024058 g     F .text	0000009c alt_exception_cause_generated_bad_addr
0001a920 g     F .text	00000120 OSEventNameGet
00026af4 g     O .rwdata	00000002 OSFlagMax
0000cd14 g     F .text	000000d8 mbrtowc
0000e1ac g     F .text	00000074 __fpclassifyd
00009f68 g     F .text	0000004c _vfscanf_r
0000ddc8 g     F .text	000000a4 __ratio
0001b234 g     F .text	000000f8 OSIntExit
00013df4 g     F .text	0000001c __vfiprintf_internal
00026b2e g     O .rwdata	00000002 OSTCBSize
00000bc8 g     F .text	000000a0 deleteMoveVector
00028719 g     O .bss	00000001 OSPrioCur
00022960 g     F .text	000002bc altera_avalon_jtag_uart_read
00004b1c g     F .text	00000014 malloc
000056a4 g     F .text	00000030 _printf_r
0001720c g     F .text	00000064 .hidden __udivsi3
00019f34 g     F .text	000000a4 isatty
00026b14 g     O .rwdata	00000002 OSStkWidth
0000c940 g     F .text	00000030 iswspace
00024b04 g     O .rodata	000000c8 __mprec_tens
00026b08 g     O .rwdata	00000002 OSPtrSize
0000c9ec g     F .text	0000000c __locale_charset
000173fc g     F .text	000000c8 .hidden __lesf2
00026ae8 g     O .rwdata	00000002 OSEventTblSize
000165f0 g     F .text	00000074 .hidden __fixunsdfsi
000239fc g       .text	00000000 OSCtxSw
00023fc8 g     F .text	00000090 alt_icache_flush
000286dc g     O .bss	00000004 __malloc_top_pad
0002871c g     O .bss	00000004 OSTCBList
000286f0 g     O .bss	00000004 alt_fd_list_lock
00010138 g     F .text	0000001c strtoul
00026aa8 g     O .rwdata	00000004 __mb_cur_max
0000ca1c g     F .text	0000000c _localeconv_r
00010154 g     F .text	000002d8 _strtoull_r
0000d3f4 g     F .text	0000003c __i2b
0000c484 g     F .text	000004bc __sfvwrite_r
0002ab6c g     O .bss	00000c30 OSMemTbl
00028720 g     O .bss	00000001 OSTickStepState
00005f70 g     F .text	00000054 _sbrk_r
00026b0c g     O .rwdata	00000002 OSQMax
0002b79c g     O .bss	00000800 OSTaskStatStk
0001e4ac g     F .text	000000f0 OSMemNameGet
00026aec g     O .rwdata	00000002 OSFlagEn
0000e14c g     F .text	00000060 _read_r
00026b32 g     O .rwdata	00000002 OSTimeTickHookEn
0001f358 g     F .text	00000168 OSQPost
0001e144 g     F .text	000000a4 OS_FlagUnlink
00026ac4 g     O .rwdata	00000004 alt_max_fd
0001c1f8 g     F .text	00000068 OS_MemCopy
0001c260 g     F .text	000000d0 OS_Sched
0000ba44 g     F .text	000000f0 _fclose_r
0001e3bc g     F .text	000000f0 OSMemGet
0002134c g     F .text	000001b4 OSTaskNameSet
0000bdc0 g     F .text	00000030 fflush
000286d8 g     O .bss	00000004 __malloc_max_sbrked_mem
00028724 g     O .bss	00000004 OSCtxSwCtr
00023cb0 g     F .text	00000020 OSTimeTickHook
00026af6 g     O .rwdata	00000002 OSFlagNameSize
0000434c g     F .text	00000148 printVector
0001bcc4 g     F .text	00000100 OS_EventTaskRemoveMulti
000174c4 g     F .text	000008ac .hidden __adddf3
000172c8 g     F .text	00000078 .hidden __nesf2
0001babc g     F .text	00000150 OS_EventTaskWaitMulti
0000db70 g     F .text	0000010c __b2d
00026b0e g     O .rwdata	00000002 OSQSize
00016bdc g     F .text	00000538 .hidden __umoddi3
0001a100 g     F .text	000000d4 lseek
0001fe08 g     F .text	0000020c OSSemPend
00026a94 g     O .rwdata	00000004 _global_impure_ptr
0000581c g     F .text	00000564 _realloc_r
00026af8 g     O .rwdata	00000002 OSLowestPrio
0002db20 g       *ABS*	00000000 __bss_end
000233b0 g     F .text	000000f0 alt_iic_isr_register
00023d30 g     F .text	00000024 OSTCBInitHook
00026b3e g     O .rwdata	00000002 OSTmrCfgTicksPerSec
000238d0 g     F .text	00000108 alt_tick
00024c6c g     O .rodata	00000100 __hexdig
00016664 g     F .text	00000578 .hidden __udivdi3
0001424c g     F .text	00000024 _fputwc_r
00026ae0 g     O .rwdata	00000002 OSEventEn
00024adc g     O .rodata	00000028 __mprec_bigtens
0000d1d8 g     F .text	00000104 __s2b
00026b3a g     O .rwdata	00000002 OSTmrCfgNameSize
00019a20 g     F .text	000000a8 .hidden __floatunsidf
0000d8b0 g     F .text	00000060 __mcmp
00004964 g     F .text	00000018 __fp_lock_all
00023364 g     F .text	0000004c alt_ic_irq_enabled
0001df70 g     F .text	000000e0 OS_FlagInit
00023834 g     F .text	0000009c alt_alarm_stop
0000643c g     F .text	0000001c strtol
00026b1c g     O .rwdata	00000002 OSTaskIdleStkSize
00000340 g     F .text	0000017c printCountPieces
00028760 g     O .bss	00000004 alt_irq_active
0001fa40 g     F .text	000000b0 OSSemAccept
0001e6b0 g     F .text	000000d8 OSMemPut
0001e1e8 g     F .text	000001d4 OSMemCreate
00028728 g     O .bss	00000004 OSIdleCtrMax
000000fc g     F .exceptions	000000d4 alt_irq_handler
00025880 g     O .rwdata	00000028 alt_dev_null
00026b30 g     O .rwdata	00000002 OSTicksPerSec
000239fc g       .text	00000000 OSIntCtxSw
0002300c g     F .text	00000020 alt_dcache_flush_all
0000d2dc g     F .text	00000068 __hi0bits
000198c4 g     F .text	00000080 .hidden __fixdfsi
0000faf4 g     F .text	00000018 strtod
0002872c g     O .bss	00000004 OSTCBFreeList
00026b58 g       *ABS*	00000000 __ram_rwdata_end
00020014 g     F .text	0000016c OSSemPendAbort
00026abc g     O .rwdata	00000008 alt_dev_list
0001a518 g     F .text	000000f8 write
0000dfe4 g     F .text	000000a0 _putc_r
00026b34 g     O .rwdata	00000002 OSVersionNbr
00017340 g     F .text	000000bc .hidden __gtsf2
00024fdc g       *ABS*	00000000 __ram_rodata_end
00019e48 g     F .text	000000b0 fstat
00000000 g       *ABS*	00000000 __alt_mem_SDRAM
000187bc g     F .text	000000f4 .hidden __ledf2
00004240 g     F .text	0000010c printCapture
00004078 g     F .text	00000134 vectorDelete
00026adc g     O .rwdata	00000004 OSEndiannessTest
0000d628 g     F .text	00000140 __pow5mult
00012998 g     F .text	0000145c ___vfiprintf_internal_r
000286ec g     O .bss	00000004 __nlocale_changed
00017270 g     F .text	00000058 .hidden __umodsi3
00006000 g     F .text	00000030 _scanf_r
00026aee g     O .rwdata	00000002 OSFlagGrpSize
0002db20 g       *ABS*	00000000 end
00000e60 g     F .text	00000070 initMoveList
00003d74 g     F .text	000000b8 createEmptyBoard
00022318 g     F .text	00000148 altera_avalon_jtag_uart_init
0001c4c8 g     F .text	000000dc OS_TaskStat
00000f40 g     F .text	000000c0 copyMoveList
000001d0 g     F .exceptions	00000074 alt_instruction_exception_entry
00024488 g       *ABS*	00000000 __CTOR_LIST__
04000000 g       *ABS*	00000000 __alt_stack_pointer
00001e08 g     F .text	000001d0 move
00019c70 g     F .text	00000064 .hidden __clzsi2
00022c1c g     F .text	000002c4 altera_avalon_jtag_uart_write
00004954 g     F .text	00000004 __sfp_lock_acquire
00005350 g     F .text	000000e4 memchr
0001c1a4 g     F .text	00000054 OS_MemClr
00006458 g     F .text	000021f8 ___vfprintf_internal_r
00023acc g     F .text	0000015c OSTaskStkInit
0000e2f8 g     F .text	00000058 _sprintf_r
0000c174 g     F .text	00000310 _free_r
0000c9f8 g     F .text	00000010 __locale_mb_cur_max
0001b814 g     F .text	00000198 OS_EventTaskRdy
000242d4 g     F .text	00000180 __call_exitprocs
00028730 g     O .bss	00000001 OSCPUUsage
000286e8 g     O .bss	00000004 __mlocale_changed
00026a9c g     O .rwdata	00000004 __malloc_sbrk_base
00000244 g     F .text	0000003c _start
00028764 g     O .bss	00000004 _alt_tick_rate
0001ef60 g     F .text	0000028c OSQPend
0000fc0c g     F .text	000002e0 _strtoll_r
00001220 g     F .text	00000274 manCapture
00021c0c g     F .text	00000104 OSTimeDly
0000d768 g     F .text	00000148 __lshift
00028768 g     O .bss	00000004 _alt_nticks
00003b18 g     F .text	00000144 play
0001a2cc g     F .text	000000fc read
0002216c g     F .text	00000048 alt_sys_init
00014ffc g     F .text	000001d0 __ssprint_r
000241bc g     F .text	00000118 __register_exitproc
00028731 g     O .bss	00000001 OSTaskCtr
00014f2c g     F .text	000000d0 strncmp
00021d10 g     F .text	00000160 OSTimeDlyHMSM
0000d430 g     F .text	000001f8 __multiply
00022808 g     F .text	00000068 altera_avalon_jtag_uart_close
00024fdc g       *ABS*	00000000 __ram_rwdata_start
00024488 g       *ABS*	00000000 __ram_rodata_start
00028770 g     O .bss	00000028 __malloc_current_mallinfo
00026ae2 g     O .rwdata	00000002 OSEventMax
000172c8 g     F .text	00000078 .hidden __eqsf2
0000dc7c g     F .text	0000014c __d2b
00020180 g     F .text	00000110 OSSemPost
0001b3b8 g     F .text	000000dc OSSchedUnlock
00005804 g     F .text	00000018 realloc
000221b4 g     F .text	00000060 altera_avalon_jtag_uart_read_fd
0000feec g     F .text	0000024c _strtoul_r
00023eec g     F .text	000000dc alt_get_fd
00028734 g     O .bss	00000004 OSMemFreeList
0001b504 g     F .text	000000b0 OSStatInit
0001dd4c g     F .text	000000c4 OSFlagQuery
00026b18 g     O .rwdata	00000002 OSTaskCreateExtEn
0000a168 g     F .text	00000054 _close_r
00024140 g     F .text	0000007c memcmp
0001b7f4 g     F .text	00000020 OS_Dummy
00022274 g     F .text	00000050 altera_avalon_jtag_uart_close_fd
0002db20 g       *ABS*	00000000 __alt_stack_base
000222c4 g     F .text	00000054 altera_avalon_jtag_uart_ioctl_fd
0000a014 g     F .text	00000154 __swsetup_r
0002bf9c g     O .bss	000001e0 OSQTbl
00017d70 g     F .text	000008e8 .hidden __divdf3
00004814 g     F .text	00000118 __sfp
0000dee0 g     F .text	00000078 __copybits
00003ea0 g     F .text	00000120 vectorAdd
00025400 g     O .rwdata	00000408 __malloc_av_
00004960 g     F .text	00000004 __sinit_lock_release
00028738 g     O .bss	00000004 OSTCBHighRdy
000188b0 g     F .text	00000718 .hidden __muldf3
00006030 g     F .text	00000054 __sread
0000c01c g     F .text	00000034 fread
0002873c g     O .bss	00000004 OSQFreeList
00023de4 g     F .text	00000108 alt_find_file
00023068 g     F .text	000000a4 alt_dev_llist_insert
0001a734 g     F .text	00000120 __malloc_lock
0001a42c g     F .text	000000b0 sbrk
0001042c g     F .text	000021d8 ___svfprintf_internal_r
0001aa40 g     F .text	00000140 OSEventNameSet
0000bd64 g     F .text	0000005c _fflush_r
00014024 g     F .text	000000c4 _calloc_r
00028740 g     O .bss	00000001 OSRdyGrp
000286d4 g       *ABS*	00000000 __bss_start
0000557c g     F .text	00000128 memset
000002d4 g     F .text	0000006c main
000286fc g     O .bss	00000004 alt_envp
000286d4 g     O .bss	00000004 __malloc_max_total_mem
00022214 g     F .text	00000060 altera_avalon_jtag_uart_write_fd
0001400c g     F .text	00000018 __swbuf
00024ea8 g     O .rodata	00000100 OSUnMapTbl
000173fc g     F .text	000000c8 .hidden __ltsf2
0000bdf0 g     F .text	0000022c _fread_r
00026b12 g     O .rwdata	00000002 OSSemEn
0001d9b8 g     F .text	00000394 OSFlagPost
00006164 g     F .text	00000008 __sclose
04000000 g       *ABS*	00000000 __alt_heap_limit
0000bb34 g     F .text	00000014 fclose
0001b9ac g     F .text	00000110 OS_EventTaskWait
00019ac8 g     F .text	000001a8 .hidden __truncdfsf2
00006204 g     F .text	00000238 _strtol_r
0001c5a4 g     F .text	000000cc OS_TaskStatStkChk
00021064 g     F .text	00000150 OSTaskDelReq
0000a3bc g     F .text	00001688 _dtoa_r
00004b44 g     F .text	0000080c _malloc_r
00016564 g     F .text	00000030 __ascii_wctomb
00026ac8 g     O .rwdata	00000004 alt_errno
0001b494 g     F .text	00000070 OSStart
00012604 g     F .text	000000d4 __submore
0001a6d4 g     F .text	00000060 __env_unlock
00004994 g     F .text	000000c4 _fwalk
00021500 g     F .text	000001d4 OSTaskResume
0001e788 g     F .text	000000e8 OSMemQuery
00026b24 g     O .rwdata	00000002 OSTaskStatEn
000041ac g     F .text	0000003c vectorFree
00004494 g     F .text	00000144 _fgets_r
0000ce30 g     F .text	0000005c _mbtowc_r
00026afe g     O .rwdata	00000002 OSMemMax
0001f4c0 g     F .text	00000170 OSQPostFront
0000e084 g     F .text	000000c8 putc
00017114 g     F .text	00000084 .hidden __divsi3
00028741 g     O .bss	00000003 OSRdyTbl
00026ad8 g     O .rwdata	00000002 OSDebugEn
0000c050 g     F .text	00000124 _malloc_trim_r
00024488 g       *ABS*	00000000 __CTOR_END__
00026af0 g     O .rwdata	00000002 OSFlagNodeSize
00026b38 g     O .rwdata	00000002 OSTmrCfgMax
0000e3bc g     F .text	000000dc strcmp
0001ea7c g     F .text	000001ac OSQCreate
000211b4 g     F .text	00000198 OSTaskNameGet
00024488 g       *ABS*	00000000 __flash_rodata_start
0001f630 g     F .text	0000020c OSQPostOpt
0001b5b4 g     F .text	00000220 OSTimeTick
00026b20 g     O .rwdata	00000002 OSTaskMax
00024488 g       *ABS*	00000000 __DTOR_LIST__
0001faf0 g     F .text	000000d8 OSSemCreate
00026b44 g     O .rwdata	00000002 OSTmrWheelSize
000004bc g     F .text	00000204 printBoard
00018658 g     F .text	00000088 .hidden __nedf2
00026b1a g     O .rwdata	00000002 OSTaskDelEn
00020290 g     F .text	00000110 OSSemQuery
0001ec28 g     F .text	00000280 OSQDel
0001f1ec g     F .text	0000016c OSQPendAbort
00022134 g     F .text	00000038 alt_irq_init
0001a3c8 g     F .text	00000064 alt_release_fd
0000e350 g     F .text	0000006c sprintf
00024d8c g     O .rodata	00000100 .hidden __clz_tab
000286e4 g     O .bss	00000004 _PathLocale
0000fb0c g     F .text	00000100 strtof
000240f4 g     F .text	00000014 atexit
00017340 g     F .text	000000bc .hidden __gesf2
00009fb4 g     F .text	00000060 _write_r
0001b32c g     F .text	0000008c OSSchedLock
0000ca28 g     F .text	00000018 setlocale
00005fc4 g     F .text	0000003c scanf
00000280 g     F .text	00000054 taskStartGame
0001cddc g     F .text	00000108 OSFlagCreate
0000e2f0 g     F .text	00000008 nanf
00026a98 g     O .rwdata	00000004 _impure_ptr
000286f4 g     O .bss	00000004 alt_argc
0000bb48 g     F .text	0000021c __sflush_r
0000cc68 g     F .text	000000ac _mbrtowc_r
0002316c g     F .text	00000060 _do_dtors
0000ca14 g     F .text	00000008 __locale_cjk_lang
00026aea g     O .rwdata	00000002 OSEventMultiEn
00005d9c g     F .text	000001d4 __srefill_r
0001cee4 g     F .text	00000248 OSFlagDel
00028744 g     O .bss	00000004 OSEventFreeList
00000020 g       .exceptions	00000000 alt_irq_entry
0000cdec g     F .text	00000044 __ascii_mbtowc
00003e78 g     F .text	00000028 vectorCount
0000db0c g     F .text	00000064 __ulp
0001d3a0 g     F .text	000005b8 OSFlagPend
00026b36 g     O .rwdata	00000002 OSTmrEn
0000497c g     F .text	00000018 __fp_unlock_all
00026ab4 g     O .rwdata	00000008 alt_fs_list
0001c3a4 g     F .text	00000074 OS_StrCopy
00000b0c g     F .text	000000bc deleteCaptureVector
00003fc0 g     F .text	00000060 vectorSet
0000181c g     F .text	000005ec capture
00026b00 g     O .rwdata	00000002 OSMemNameSize
00023cf0 g     F .text	00000020 OSInitHookEnd
00000020 g       *ABS*	00000000 __ram_exceptions_start
00026b2c g     O .rwdata	00000002 OSTCBPrioTblMax
0000ca40 g     F .text	0000000c localeconv
00001494 g     F .text	00000388 checkIfCanMove
00026b28 g     O .rwdata	00000002 OSTaskStatStkChkEn
00023200 g     F .text	00000050 alt_ic_isr_register
00026afc g     O .rwdata	00000002 OSMemEn
00003c5c g     F .text	00000118 createBoard
00026b06 g     O .rwdata	00000002 OSMutexEn
00026b58 g       *ABS*	00000000 _edata
0002db20 g       *ABS*	00000000 _end
00028748 g     O .bss	00000001 OSIntNesting
000140e8 g     F .text	00000164 __fputwc
00000244 g       *ABS*	00000000 __ram_exceptions_end
00009ee4 g     F .text	00000068 vfscanf
00022870 g     F .text	000000f0 altera_avalon_jtag_uart_ioctl
00021e70 g     F .text	000001d4 OSTimeDlyResume
00001000 g     F .text	0000004c countMoveList
0001d254 g     F .text	0000014c OSFlagNameSet
000216d4 g     F .text	000001c0 OSTaskStkChk
000232d8 g     F .text	0000008c alt_ic_irq_disable
00003e2c g     F .text	0000004c vectorInit
00026b02 g     O .rwdata	00000002 OSMemSize
0000608c g     F .text	0000007c __swrite
00026aa0 g     O .rwdata	00000004 __malloc_trim_threshold
0000ca08 g     F .text	0000000c __locale_msgcharset
0002874c g     O .bss	00000004 OSTCBCur
00024108 g     F .text	00000038 exit
00026b04 g     O .rwdata	00000002 OSMemTblSize
00004a58 g     F .text	000000c4 _fwalk_reent
0000d910 g     F .text	000001fc __mdiff
00017198 g     F .text	00000074 .hidden __modsi3
00026aa4 g     O .rwdata	00000004 __ctype_ptr__
04000000 g       *ABS*	00000000 __alt_data_end
00000020 g     F .exceptions	00000000 alt_exception
00004958 g     F .text	00000004 __sfp_lock_release
0001b190 g     F .text	00000058 OSInit
00021a78 g     F .text	00000124 OSTaskQuery
0001f998 g     F .text	000000a8 OS_QInit
0000e220 g     F .text	000000d0 __sccl
0001c418 g     F .text	00000054 OS_StrLen
0001e59c g     F .text	00000114 OSMemNameSet
00024808 g     O .rodata	00000101 _ctype_
00026b1e g     O .rwdata	00000002 OSTaskProfileEn
00028750 g     O .bss	00000004 OSTime
00026aac g     O .rwdata	00000004 __mbtowc
0002c17c g     O .bss	00000800 OSTaskIdleStk
00024454 g     F .text	00000034 _exit
00022ee0 g     F .text	0000012c alt_alarm_start
0001d12c g     F .text	00000128 OSFlagNameGet
00022044 g     F .text	0000005c OSTimeGet
000287fc g     O .bss	00002000 taskStartGame_stk
0000caac g     F .text	000001bc __smakebuf_r
0000616c g     F .text	00000098 strlen
00023c70 g     F .text	00000020 OSTaskSwHook
000236e0 g     F .text	00000154 open
0002c97c g     O .bss	00000b40 OSEventTbl
000186e0 g     F .text	000000dc .hidden __gedf2
0002d4bc g     O .bss	00000510 OSTCBTbl
0001444c g     F .text	00000830 __gethex
000203a0 g     F .text	00000100 OSSemSet
00026ab0 g     O .rwdata	00000004 __wctomb
00012980 g     F .text	00000018 __sprint_r
000231cc g     F .text	00000034 alt_icache_flush_all
00026b4c g     O .rwdata	00000004 alt_priority_mask
00002a24 g     F .text	00000c50 minimaxAlgorithm
0001fbc8 g     F .text	00000240 OSSemDel
00028754 g     O .bss	00000004 OSFlagFreeList
00023250 g     F .text	00000088 alt_ic_irq_enable
00026ae4 g     O .rwdata	00000002 OSEventNameSize
00008650 g     F .text	0000001c __vfprintf_internal
00028758 g     O .bss	00000001 OSStatRdy
0002d9cc g     O .bss	00000054 OSTCBPrioTbl
00016594 g     F .text	0000005c _wctomb_r
0001a610 g     F .text	000000c4 __env_lock
00026b2a g     O .rwdata	00000002 OSTaskSwHookEn
00018fc8 g     F .text	000008fc .hidden __subdf3
000020ac g     F .text	00000978 minimaxAlgorithmRecursive
00000ed0 g     F .text	00000070 addToMoveList
0000d344 g     F .text	000000b0 __lo0bits
00008728 g     F .text	000017bc __svfscanf_r
000006c0 g     F .text	0000044c kingCapture
00026b50 g     O .rwdata	00000008 alt_alarm_list
000126d8 g     F .text	00000194 _ungetc_r
00026af2 g     O .rwdata	00000002 OSFlagWidth
0002310c g     F .text	00000060 _do_ctors
000164a4 g     F .text	000000c0 wcrtomb
00019d10 g     F .text	000000d0 close
00028704 g     O .bss	00000004 alt_envsem
0002875c g     O .bss	00000004 OSIdleCtrRun
0001b7d4 g     F .text	00000020 OSVersion
00026b3c g     O .rwdata	00000002 OSTmrCfgWheelSize
0001a040 g     F .text	00000084 alt_load
00021b9c g     F .text	00000070 OS_TaskStkClr
00026b16 g     O .rwdata	00000002 OSTaskCreateEn
0001bdc4 g     F .text	00000068 OS_EventWaitListInit
00014270 g     F .text	00000080 fputwc
00023d10 g     F .text	00000020 OSTaskIdleHook
00004b30 g     F .text	00000014 free
0000495c g     F .text	00000004 __sinit_lock_acquire
0000d0b8 g     F .text	00000120 __multadd
00021894 g     F .text	000001e4 OSTaskSuspend
0000d090 g     F .text	00000028 _Bfree
0001c46c g     F .text	0000005c OS_TaskIdle
00026b42 g     O .rwdata	00000002 OSTmrTblSize
0001f83c g     F .text	0000015c OSQQuery



Disassembly of section .entry:

00000000 <__reset>:
   0:	00840014 	movui	r2,4096
   4:	1001483a 	initi	r2
   8:	10bff804 	addi	r2,r2,-32
   c:	00bffd16 	blt	zero,r2,4 <__alt_data_end+0xfc000004>
  10:	00400034 	movhi	at,0
  14:	08409114 	ori	at,at,580
  18:	0800683a 	jmp	at
  1c:	00000000 	call	0 <__reset>

Disassembly of section .exceptions:

00000020 <alt_exception>:
  20:	deffed04 	addi	sp,sp,-76
  24:	dfc00015 	stw	ra,0(sp)
  28:	d8400215 	stw	at,8(sp)
  2c:	d8800315 	stw	r2,12(sp)
  30:	d8c00415 	stw	r3,16(sp)
  34:	d9000515 	stw	r4,20(sp)
  38:	d9400615 	stw	r5,24(sp)
  3c:	d9800715 	stw	r6,28(sp)
  40:	d9c00815 	stw	r7,32(sp)
  44:	000b307a 	rdctl	r5,estatus
  48:	da000915 	stw	r8,36(sp)
  4c:	da400a15 	stw	r9,40(sp)
  50:	da800b15 	stw	r10,44(sp)
  54:	dac00c15 	stw	r11,48(sp)
  58:	db000d15 	stw	r12,52(sp)
  5c:	db400e15 	stw	r13,56(sp)
  60:	db800f15 	stw	r14,60(sp)
  64:	dbc01015 	stw	r15,64(sp)
  68:	d9401115 	stw	r5,68(sp)
  6c:	ebffff04 	addi	r15,ea,-4
  70:	dbc01215 	stw	r15,72(sp)
  74:	0009313a 	rdctl	r4,ipending
  78:	2880004c 	andi	r2,r5,1
  7c:	10000326 	beq	r2,zero,8c <OSCtxSw_SWITCH_PC+0x4c>
  80:	20000226 	beq	r4,zero,8c <OSCtxSw_SWITCH_PC+0x4c>
  84:	00000fc0 	call	fc <alt_irq_handler>
  88:	00000706 	br	a8 <OSCtxSw_SWITCH_PC+0x68>
  8c:	df401215 	stw	ea,72(sp)
  90:	e8bfff17 	ldw	r2,-4(ea)
  94:	e93fff04 	addi	r4,ea,-4
  98:	00001d00 	call	1d0 <alt_instruction_exception_entry>
  9c:	1000021e 	bne	r2,zero,a8 <OSCtxSw_SWITCH_PC+0x68>
  a0:	ebffff04 	addi	r15,ea,-4
  a4:	dbc01215 	stw	r15,72(sp)
  a8:	d9401117 	ldw	r5,68(sp)
  ac:	df401217 	ldw	ea,72(sp)
  b0:	dfc00017 	ldw	ra,0(sp)
  b4:	2801707a 	wrctl	estatus,r5
  b8:	d8400217 	ldw	at,8(sp)
  bc:	d8800317 	ldw	r2,12(sp)
  c0:	d8c00417 	ldw	r3,16(sp)
  c4:	d9000517 	ldw	r4,20(sp)
  c8:	d9400617 	ldw	r5,24(sp)
  cc:	d9800717 	ldw	r6,28(sp)
  d0:	d9c00817 	ldw	r7,32(sp)
  d4:	da000917 	ldw	r8,36(sp)
  d8:	da400a17 	ldw	r9,40(sp)
  dc:	da800b17 	ldw	r10,44(sp)
  e0:	dac00c17 	ldw	r11,48(sp)
  e4:	db000d17 	ldw	r12,52(sp)
  e8:	db400e17 	ldw	r13,56(sp)
  ec:	db800f17 	ldw	r14,60(sp)
  f0:	dbc01017 	ldw	r15,64(sp)
  f4:	dec01304 	addi	sp,sp,76
  f8:	ef80083a 	eret

000000fc <alt_irq_handler>:
  fc:	defff904 	addi	sp,sp,-28
 100:	dfc00615 	stw	ra,24(sp)
 104:	df000515 	stw	fp,20(sp)
 108:	df000504 	addi	fp,sp,20
 10c:	001b1e80 	call	1b1e8 <OSIntEnter>
 110:	0005313a 	rdctl	r2,ipending
 114:	e0bffe15 	stw	r2,-8(fp)
 118:	e0bffe17 	ldw	r2,-8(fp)
 11c:	e0bffb15 	stw	r2,-20(fp)
 120:	e03ffd15 	stw	zero,-12(fp)
 124:	00800044 	movi	r2,1
 128:	e0bffc15 	stw	r2,-16(fp)
 12c:	e0fffb17 	ldw	r3,-20(fp)
 130:	e0bffc17 	ldw	r2,-16(fp)
 134:	1884703a 	and	r2,r3,r2
 138:	10001426 	beq	r2,zero,18c <alt_irq_handler+0x90>
 13c:	008000f4 	movhi	r2,3
 140:	10b68804 	addi	r2,r2,-9696
 144:	e0fffd17 	ldw	r3,-12(fp)
 148:	180690fa 	slli	r3,r3,3
 14c:	10c5883a 	add	r2,r2,r3
 150:	10c00017 	ldw	r3,0(r2)
 154:	008000f4 	movhi	r2,3
 158:	10b68804 	addi	r2,r2,-9696
 15c:	e13ffd17 	ldw	r4,-12(fp)
 160:	200890fa 	slli	r4,r4,3
 164:	1105883a 	add	r2,r2,r4
 168:	10800104 	addi	r2,r2,4
 16c:	10800017 	ldw	r2,0(r2)
 170:	1009883a 	mov	r4,r2
 174:	183ee83a 	callr	r3
 178:	0001883a 	nop
 17c:	0005313a 	rdctl	r2,ipending
 180:	e0bfff15 	stw	r2,-4(fp)
 184:	e0bfff17 	ldw	r2,-4(fp)
 188:	00000706 	br	1a8 <alt_irq_handler+0xac>
 18c:	e0bffc17 	ldw	r2,-16(fp)
 190:	1085883a 	add	r2,r2,r2
 194:	e0bffc15 	stw	r2,-16(fp)
 198:	e0bffd17 	ldw	r2,-12(fp)
 19c:	10800044 	addi	r2,r2,1
 1a0:	e0bffd15 	stw	r2,-12(fp)
 1a4:	003fe106 	br	12c <__alt_data_end+0xfc00012c>
 1a8:	e0bffb15 	stw	r2,-20(fp)
 1ac:	e0bffb17 	ldw	r2,-20(fp)
 1b0:	103fdb1e 	bne	r2,zero,120 <__alt_data_end+0xfc000120>
 1b4:	001b2340 	call	1b234 <OSIntExit>
 1b8:	0001883a 	nop
 1bc:	e037883a 	mov	sp,fp
 1c0:	dfc00117 	ldw	ra,4(sp)
 1c4:	df000017 	ldw	fp,0(sp)
 1c8:	dec00204 	addi	sp,sp,8
 1cc:	f800283a 	ret

000001d0 <alt_instruction_exception_entry>:
 1d0:	defffb04 	addi	sp,sp,-20
 1d4:	dfc00415 	stw	ra,16(sp)
 1d8:	df000315 	stw	fp,12(sp)
 1dc:	df000304 	addi	fp,sp,12
 1e0:	e13fff15 	stw	r4,-4(fp)
 1e4:	000531fa 	rdctl	r2,exception
 1e8:	e0bffd15 	stw	r2,-12(fp)
 1ec:	e0bffd17 	ldw	r2,-12(fp)
 1f0:	10801f0c 	andi	r2,r2,124
 1f4:	1004d0ba 	srli	r2,r2,2
 1f8:	e0bffd15 	stw	r2,-12(fp)
 1fc:	0005333a 	rdctl	r2,badaddr
 200:	e0bffe15 	stw	r2,-8(fp)
 204:	d0a73617 	ldw	r2,-25384(gp)
 208:	10000726 	beq	r2,zero,228 <alt_instruction_exception_entry+0x58>
 20c:	d0a73617 	ldw	r2,-25384(gp)
 210:	e0fffd17 	ldw	r3,-12(fp)
 214:	e1bffe17 	ldw	r6,-8(fp)
 218:	e17fff17 	ldw	r5,-4(fp)
 21c:	1809883a 	mov	r4,r3
 220:	103ee83a 	callr	r2
 224:	00000206 	br	230 <alt_instruction_exception_entry+0x60>
 228:	003da03a 	break	0
 22c:	0005883a 	mov	r2,zero
 230:	e037883a 	mov	sp,fp
 234:	dfc00117 	ldw	ra,4(sp)
 238:	df000017 	ldw	fp,0(sp)
 23c:	dec00204 	addi	sp,sp,8
 240:	f800283a 	ret

Disassembly of section .text:

00000244 <_start>:
     244:	06c10034 	movhi	sp,1024
     248:	dec00014 	ori	sp,sp,0
     24c:	068000b4 	movhi	gp,2
     250:	d6baa514 	ori	gp,gp,60052
     254:	008000b4 	movhi	r2,2
     258:	10a1b514 	ori	r2,r2,34516
     25c:	00c000b4 	movhi	r3,2
     260:	18f6c814 	ori	r3,r3,56096
     264:	10c00326 	beq	r2,r3,274 <_start+0x30>
     268:	10000015 	stw	zero,0(r2)
     26c:	10800104 	addi	r2,r2,4
     270:	10fffd36 	bltu	r2,r3,268 <__alt_data_end+0xfc000268>
     274:	001a0400 	call	1a040 <alt_load>
     278:	001a1d40 	call	1a1d4 <alt_main>

0000027c <alt_after_alt_main>:
     27c:	003fff06 	br	27c <__alt_data_end+0xfc00027c>

00000280 <taskStartGame>:

//the main board
unsigned char board [10][10];

void taskStartGame(void* pdata)
{
     280:	defffc04 	addi	sp,sp,-16
     284:	dfc00315 	stw	ra,12(sp)
     288:	df000215 	stw	fp,8(sp)
     28c:	df000204 	addi	fp,sp,8
     290:	e13fff15 	stw	r4,-4(fp)
	createBoard();
     294:	0003c5c0 	call	3c5c <createBoard>
	printBoard((unsigned char **)board,100,100,100,100);
     298:	00801904 	movi	r2,100
     29c:	d8800015 	stw	r2,0(sp)
     2a0:	01c01904 	movi	r7,100
     2a4:	01801904 	movi	r6,100
     2a8:	01401904 	movi	r5,100
     2ac:	010000f4 	movhi	r4,3
     2b0:	2121e604 	addi	r4,r4,-30824
     2b4:	00004bc0 	call	4bc <printBoard>
	play();
     2b8:	0003b180 	call	3b18 <play>
}
     2bc:	0001883a 	nop
     2c0:	e037883a 	mov	sp,fp
     2c4:	dfc00117 	ldw	ra,4(sp)
     2c8:	df000017 	ldw	fp,0(sp)
     2cc:	dec00204 	addi	sp,sp,8
     2d0:	f800283a 	ret

000002d4 <main>:

int main(void)
{
     2d4:	defff904 	addi	sp,sp,-28
     2d8:	dfc00615 	stw	ra,24(sp)
     2dc:	df000515 	stw	fp,20(sp)
     2e0:	df000504 	addi	fp,sp,20
  OSTaskCreateExt(taskStartGame,NULL,(void *)&taskStartGame_stk[TASK_STACKSIZE-1],TASKSTARTGAME_PRIORITY,TASKSTARTGAME_PRIORITY,taskStartGame_stk,TASK_STACKSIZE,NULL,0);
     2e4:	d8000415 	stw	zero,16(sp)
     2e8:	d8000315 	stw	zero,12(sp)
     2ec:	00820004 	movi	r2,2048
     2f0:	d8800215 	stw	r2,8(sp)
     2f4:	008000f4 	movhi	r2,3
     2f8:	10a1ff04 	addi	r2,r2,-30724
     2fc:	d8800115 	stw	r2,4(sp)
     300:	00800044 	movi	r2,1
     304:	d8800015 	stw	r2,0(sp)
     308:	01c00044 	movi	r7,1
     30c:	018000f4 	movhi	r6,3
     310:	31a9fe04 	addi	r6,r6,-22536
     314:	000b883a 	mov	r5,zero
     318:	01000034 	movhi	r4,0
     31c:	2100a004 	addi	r4,r4,640
     320:	0020b3c0 	call	20b3c <OSTaskCreateExt>
  OSStart();
     324:	001b4940 	call	1b494 <OSStart>
  return 0;
     328:	0005883a 	mov	r2,zero
}
     32c:	e037883a 	mov	sp,fp
     330:	dfc00117 	ldw	ra,4(sp)
     334:	df000017 	ldw	fp,0(sp)
     338:	dec00204 	addi	sp,sp,8
     33c:	f800283a 	ret

00000340 <printCountPieces>:

/*
Print the amount of pieces each player has on the board
*/
void printCountPieces(){
     340:	defffd04 	addi	sp,sp,-12
     344:	dfc00215 	stw	ra,8(sp)
     348:	df000115 	stw	fp,4(sp)
     34c:	df000104 	addi	fp,sp,4
	//Count vars that will be printed
	unsigned char enemyCount = 0;
     350:	e03fff05 	stb	zero,-4(fp)
	unsigned char friendlyCount = 0;
     354:	e03fff45 	stb	zero,-3(fp)

	//Check every field on the board
	for(unsigned char row = 0; row < 10; row++)
     358:	e03fff85 	stb	zero,-2(fp)
     35c:	00003e06 	br	458 <printCountPieces+0x118>
	{
		for(unsigned char field = 0; field < 10; field++)
     360:	e03fffc5 	stb	zero,-1(fp)
     364:	00003606 	br	440 <printCountPieces+0x100>
		{
			//If the field has a friendly man or king on it, add to the friendly counter
			if(board[row][field] == FRIENDLY || board[row][field] == FRIENDLYKING)
     368:	e13fff83 	ldbu	r4,-2(fp)
     36c:	e0ffffc3 	ldbu	r3,-1(fp)
     370:	008000f4 	movhi	r2,3
     374:	10a1e604 	addi	r2,r2,-30824
     378:	210002a4 	muli	r4,r4,10
     37c:	1105883a 	add	r2,r2,r4
     380:	10c5883a 	add	r2,r2,r3
     384:	10800003 	ldbu	r2,0(r2)
     388:	10803fcc 	andi	r2,r2,255
     38c:	108000a0 	cmpeqi	r2,r2,2
     390:	10000b1e 	bne	r2,zero,3c0 <printCountPieces+0x80>
     394:	e13fff83 	ldbu	r4,-2(fp)
     398:	e0ffffc3 	ldbu	r3,-1(fp)
     39c:	008000f4 	movhi	r2,3
     3a0:	10a1e604 	addi	r2,r2,-30824
     3a4:	210002a4 	muli	r4,r4,10
     3a8:	1105883a 	add	r2,r2,r4
     3ac:	10c5883a 	add	r2,r2,r3
     3b0:	10800003 	ldbu	r2,0(r2)
     3b4:	10803fcc 	andi	r2,r2,255
     3b8:	108000d8 	cmpnei	r2,r2,3
     3bc:	1000041e 	bne	r2,zero,3d0 <printCountPieces+0x90>
			{
				friendlyCount++;
     3c0:	e0bfff43 	ldbu	r2,-3(fp)
     3c4:	10800044 	addi	r2,r2,1
     3c8:	e0bfff45 	stb	r2,-3(fp)
     3cc:	00001906 	br	434 <printCountPieces+0xf4>
			}

			//If the field has an enemy man or king on it, add to the enemy counter
			else if(board[row][field] == ENEMY || board[row][field] == ENEMYKING)
     3d0:	e13fff83 	ldbu	r4,-2(fp)
     3d4:	e0ffffc3 	ldbu	r3,-1(fp)
     3d8:	008000f4 	movhi	r2,3
     3dc:	10a1e604 	addi	r2,r2,-30824
     3e0:	210002a4 	muli	r4,r4,10
     3e4:	1105883a 	add	r2,r2,r4
     3e8:	10c5883a 	add	r2,r2,r3
     3ec:	10800003 	ldbu	r2,0(r2)
     3f0:	10803fcc 	andi	r2,r2,255
     3f4:	10800120 	cmpeqi	r2,r2,4
     3f8:	10000b1e 	bne	r2,zero,428 <printCountPieces+0xe8>
     3fc:	e13fff83 	ldbu	r4,-2(fp)
     400:	e0ffffc3 	ldbu	r3,-1(fp)
     404:	008000f4 	movhi	r2,3
     408:	10a1e604 	addi	r2,r2,-30824
     40c:	210002a4 	muli	r4,r4,10
     410:	1105883a 	add	r2,r2,r4
     414:	10c5883a 	add	r2,r2,r3
     418:	10800003 	ldbu	r2,0(r2)
     41c:	10803fcc 	andi	r2,r2,255
     420:	10800158 	cmpnei	r2,r2,5
     424:	1000031e 	bne	r2,zero,434 <printCountPieces+0xf4>
			{
				enemyCount++;
     428:	e0bfff03 	ldbu	r2,-4(fp)
     42c:	10800044 	addi	r2,r2,1
     430:	e0bfff05 	stb	r2,-4(fp)
	unsigned char friendlyCount = 0;

	//Check every field on the board
	for(unsigned char row = 0; row < 10; row++)
	{
		for(unsigned char field = 0; field < 10; field++)
     434:	e0bfffc3 	ldbu	r2,-1(fp)
     438:	10800044 	addi	r2,r2,1
     43c:	e0bfffc5 	stb	r2,-1(fp)
     440:	e0bfffc3 	ldbu	r2,-1(fp)
     444:	108002b0 	cmpltui	r2,r2,10
     448:	103fc71e 	bne	r2,zero,368 <__alt_data_end+0xfc000368>
	//Count vars that will be printed
	unsigned char enemyCount = 0;
	unsigned char friendlyCount = 0;

	//Check every field on the board
	for(unsigned char row = 0; row < 10; row++)
     44c:	e0bfff83 	ldbu	r2,-2(fp)
     450:	10800044 	addi	r2,r2,1
     454:	e0bfff85 	stb	r2,-2(fp)
     458:	e0bfff83 	ldbu	r2,-2(fp)
     45c:	108002b0 	cmpltui	r2,r2,10
     460:	103fbf1e 	bne	r2,zero,360 <__alt_data_end+0xfc000360>
			}
		}
	}

	//Print the amount
	printf("%s %d%c", "Enemy #", enemyCount, '\n');
     464:	e0bfff03 	ldbu	r2,-4(fp)
     468:	01c00284 	movi	r7,10
     46c:	100d883a 	mov	r6,r2
     470:	014000b4 	movhi	r5,2
     474:	29512204 	addi	r5,r5,17544
     478:	010000b4 	movhi	r4,2
     47c:	21112404 	addi	r4,r4,17552
     480:	00056d40 	call	56d4 <printf>
	printf("%s %d%c", "Friendly #", friendlyCount, '\n');
     484:	e0bfff43 	ldbu	r2,-3(fp)
     488:	01c00284 	movi	r7,10
     48c:	100d883a 	mov	r6,r2
     490:	014000b4 	movhi	r5,2
     494:	29512604 	addi	r5,r5,17560
     498:	010000b4 	movhi	r4,2
     49c:	21112404 	addi	r4,r4,17552
     4a0:	00056d40 	call	56d4 <printf>
}
     4a4:	0001883a 	nop
     4a8:	e037883a 	mov	sp,fp
     4ac:	dfc00117 	ldw	ra,4(sp)
     4b0:	df000017 	ldw	fp,0(sp)
     4b4:	dec00204 	addi	sp,sp,8
     4b8:	f800283a 	ret

000004bc <printBoard>:
changedRow	= The row where the piece has gone
changedField	= The field where the piece has gone
oldRow		= The row where the piece previously was
oldField	= The field where the piece previously was
*/
void printBoard(unsigned char * tempBoard[], unsigned char changedRow, unsigned char changedField, unsigned char oldRow, unsigned char oldField){
     4bc:	deffdf04 	addi	sp,sp,-132
     4c0:	dfc02015 	stw	ra,128(sp)
     4c4:	df001f15 	stw	fp,124(sp)
     4c8:	df001f04 	addi	fp,sp,124
     4cc:	e13ffb15 	stw	r4,-20(fp)
     4d0:	3009883a 	mov	r4,r6
     4d4:	3807883a 	mov	r3,r7
     4d8:	e0800217 	ldw	r2,8(fp)
     4dc:	e17ffc05 	stb	r5,-16(fp)
     4e0:	e13ffd05 	stb	r4,-12(fp)
     4e4:	e0fffe05 	stb	r3,-8(fp)
     4e8:	e0bfff05 	stb	r2,-4(fp)

	unsigned char b[10][10];
	memcpy(b,tempBoard,100);
     4ec:	e0bfe204 	addi	r2,fp,-120
     4f0:	01801904 	movi	r6,100
     4f4:	e17ffb17 	ldw	r5,-20(fp)
     4f8:	1009883a 	mov	r4,r2
     4fc:	00054340 	call	5434 <memcpy>

	if(COLORS_ENABLED) printf("  0  1  2  3  4  5  6  7  8  9");
	else printf("   0   1   2   3   4   5   6   7   8   9\n");
     500:	010000b4 	movhi	r4,2
     504:	21112904 	addi	r4,r4,17572
     508:	00057f00 	call	57f0 <puts>

	for(unsigned char row = 0; row < 10; row++){
     50c:	e03fe105 	stb	zero,-124(fp)
     510:	00005106 	br	658 <printBoard+0x19c>

		if(!COLORS_ENABLED) printf(" |");
     514:	010000b4 	movhi	r4,2
     518:	21113404 	addi	r4,r4,17616
     51c:	00056d40 	call	56d4 <printf>

		for(unsigned char o = 0; o < 10; o++){
     520:	e03fe145 	stb	zero,-123(fp)
     524:	00000606 	br	540 <printBoard+0x84>
			if(!COLORS_ENABLED) printf("---|");
     528:	010000b4 	movhi	r4,2
     52c:	21113504 	addi	r4,r4,17620
     530:	00056d40 	call	56d4 <printf>

	for(unsigned char row = 0; row < 10; row++){

		if(!COLORS_ENABLED) printf(" |");

		for(unsigned char o = 0; o < 10; o++){
     534:	e0bfe143 	ldbu	r2,-123(fp)
     538:	10800044 	addi	r2,r2,1
     53c:	e0bfe145 	stb	r2,-123(fp)
     540:	e0bfe143 	ldbu	r2,-123(fp)
     544:	108002b0 	cmpltui	r2,r2,10
     548:	103ff71e 	bne	r2,zero,528 <__alt_data_end+0xfc000528>
			if(!COLORS_ENABLED) printf("---|");
		}

		if(COLORS_ENABLED) printf("\n%i",row);
		else printf("\n%i|",row);
     54c:	e0bfe103 	ldbu	r2,-124(fp)
     550:	100b883a 	mov	r5,r2
     554:	010000b4 	movhi	r4,2
     558:	21113704 	addi	r4,r4,17628
     55c:	00056d40 	call	56d4 <printf>

		for(unsigned char field = 0; field < 10; field++){
     560:	e03fe185 	stb	zero,-122(fp)
     564:	00003406 	br	638 <printBoard+0x17c>
			}else if(COLORS_ENABLED && row == oldRow && field == oldField){
				printf("\x1b[33m");
			}

			//Draw the item on the board
			switch(b[row][field]){
     568:	e0ffe103 	ldbu	r3,-124(fp)
     56c:	e0bfe183 	ldbu	r2,-122(fp)
     570:	18c002a4 	muli	r3,r3,10
     574:	e13fe104 	addi	r4,fp,-124
     578:	20c7883a 	add	r3,r4,r3
     57c:	1885883a 	add	r2,r3,r2
     580:	10800104 	addi	r2,r2,4
     584:	10800003 	ldbu	r2,0(r2)
     588:	10803fcc 	andi	r2,r2,255
     58c:	10c001a8 	cmpgeui	r3,r2,6
     590:	1800201e 	bne	r3,zero,614 <printBoard+0x158>
     594:	100690ba 	slli	r3,r2,2
     598:	00800034 	movhi	r2,0
     59c:	10816b04 	addi	r2,r2,1452
     5a0:	1885883a 	add	r2,r3,r2
     5a4:	10800017 	ldw	r2,0(r2)
     5a8:	1000683a 	jmp	r2
     5ac:	00000614 	movui	zero,24
     5b0:	000005c4 	movi	zero,23
     5b4:	000005d4 	movui	zero,23
     5b8:	000005e4 	muli	zero,zero,23
     5bc:	000005f4 	movhi	zero,23
     5c0:	00000604 	movi	zero,24
				case BLACK :
					if(COLORS_ENABLED) printf("  ");
					else printf("   ");
     5c4:	010000b4 	movhi	r4,2
     5c8:	21113904 	addi	r4,r4,17636
     5cc:	00056d40 	call	56d4 <printf>
					break;
     5d0:	00001406 	br	624 <printBoard+0x168>
				case FRIENDLY :
					if(UNICODE_ENABLED) printf("  ");
					else printf(" F ");
     5d4:	010000b4 	movhi	r4,2
     5d8:	21113a04 	addi	r4,r4,17640
     5dc:	00056d40 	call	56d4 <printf>
					break;
     5e0:	00001006 	br	624 <printBoard+0x168>
				case FRIENDLYKING :
					if(UNICODE_ENABLED) printf("  ");
					else printf("F K");
     5e4:	010000b4 	movhi	r4,2
     5e8:	21113b04 	addi	r4,r4,17644
     5ec:	00056d40 	call	56d4 <printf>
					break;
     5f0:	00000c06 	br	624 <printBoard+0x168>
				 case ENEMY :
					if(UNICODE_ENABLED) printf("  ");
					else printf(" E ");
     5f4:	010000b4 	movhi	r4,2
     5f8:	21113c04 	addi	r4,r4,17648
     5fc:	00056d40 	call	56d4 <printf>
					break;
     600:	00000806 	br	624 <printBoard+0x168>
				case ENEMYKING :
					if(UNICODE_ENABLED) printf("  ");
					else printf("E K");
     604:	010000b4 	movhi	r4,2
     608:	21113d04 	addi	r4,r4,17652
     60c:	00056d40 	call	56d4 <printf>
					break;
     610:	00000406 	br	624 <printBoard+0x168>
				default :
					printf("   ");
     614:	010000b4 	movhi	r4,2
     618:	21113904 	addi	r4,r4,17636
     61c:	00056d40 	call	56d4 <printf>
					break;
     620:	0001883a 	nop
			}

			//reset color or draw | to the right of the item
			if(COLORS_ENABLED) printf("\x1b[0m");
			else printf("|");
     624:	01001f04 	movi	r4,124
     628:	00057180 	call	5718 <putchar>
		}

		if(COLORS_ENABLED) printf("\n%i",row);
		else printf("\n%i|",row);

		for(unsigned char field = 0; field < 10; field++){
     62c:	e0bfe183 	ldbu	r2,-122(fp)
     630:	10800044 	addi	r2,r2,1
     634:	e0bfe185 	stb	r2,-122(fp)
     638:	e0bfe183 	ldbu	r2,-122(fp)
     63c:	108002b0 	cmpltui	r2,r2,10
     640:	103fc91e 	bne	r2,zero,568 <__alt_data_end+0xfc000568>
			if(COLORS_ENABLED) printf("\x1b[0m");
			else printf("|");
		}

		//Next row
		if(!COLORS_ENABLED) printf("\n");
     644:	01000284 	movi	r4,10
     648:	00057180 	call	5718 <putchar>
	memcpy(b,tempBoard,100);

	if(COLORS_ENABLED) printf("  0  1  2  3  4  5  6  7  8  9");
	else printf("   0   1   2   3   4   5   6   7   8   9\n");

	for(unsigned char row = 0; row < 10; row++){
     64c:	e0bfe103 	ldbu	r2,-124(fp)
     650:	10800044 	addi	r2,r2,1
     654:	e0bfe105 	stb	r2,-124(fp)
     658:	e0bfe103 	ldbu	r2,-124(fp)
     65c:	108002b0 	cmpltui	r2,r2,10
     660:	103fac1e 	bne	r2,zero,514 <__alt_data_end+0xfc000514>
		//Next row
		if(!COLORS_ENABLED) printf("\n");
	}

	//Print the last line
	if(!COLORS_ENABLED) printf(" |");
     664:	010000b4 	movhi	r4,2
     668:	21113404 	addi	r4,r4,17616
     66c:	00056d40 	call	56d4 <printf>
	for(unsigned char o = 0; o < 10; o++){
     670:	e03fe1c5 	stb	zero,-121(fp)
     674:	00000606 	br	690 <printBoard+0x1d4>
		if(!COLORS_ENABLED) printf("---|");
     678:	010000b4 	movhi	r4,2
     67c:	21113504 	addi	r4,r4,17620
     680:	00056d40 	call	56d4 <printf>
		if(!COLORS_ENABLED) printf("\n");
	}

	//Print the last line
	if(!COLORS_ENABLED) printf(" |");
	for(unsigned char o = 0; o < 10; o++){
     684:	e0bfe1c3 	ldbu	r2,-121(fp)
     688:	10800044 	addi	r2,r2,1
     68c:	e0bfe1c5 	stb	r2,-121(fp)
     690:	e0bfe1c3 	ldbu	r2,-121(fp)
     694:	108002b0 	cmpltui	r2,r2,10
     698:	103ff71e 	bne	r2,zero,678 <__alt_data_end+0xfc000678>
		if(!COLORS_ENABLED) printf("---|");
	}

	//done done
	printf("\n\n\n");
     69c:	010000b4 	movhi	r4,2
     6a0:	21113e04 	addi	r4,r4,17656
     6a4:	00057f00 	call	57f0 <puts>
}
     6a8:	0001883a 	nop
     6ac:	e037883a 	mov	sp,fp
     6b0:	dfc00117 	ldw	ra,4(sp)
     6b4:	df000017 	ldw	fp,0(sp)
     6b8:	dec00204 	addi	sp,sp,8
     6bc:	f800283a 	ret

000006c0 <kingCapture>:

Vector * kingCapture(Location currentLocation, unsigned char * tempBoard [], unsigned char friendly, unsigned char friendlyKing, unsigned char enemy, unsigned char enemyKing){
     6c0:	deffd904 	addi	sp,sp,-156
     6c4:	dfc02615 	stw	ra,152(sp)
     6c8:	df002515 	stw	fp,148(sp)
     6cc:	df002504 	addi	fp,sp,148
     6d0:	e13ffa0d 	sth	r4,-24(fp)
     6d4:	e17ffb15 	stw	r5,-20(fp)
     6d8:	300b883a 	mov	r5,r6
     6dc:	3809883a 	mov	r4,r7
     6e0:	e0c00217 	ldw	r3,8(fp)
     6e4:	e0800317 	ldw	r2,12(fp)
     6e8:	e17ffc05 	stb	r5,-16(fp)
     6ec:	e13ffd05 	stb	r4,-12(fp)
     6f0:	e0fffe05 	stb	r3,-8(fp)
     6f4:	e0bfff05 	stb	r2,-4(fp)
	#if DEBUG
		printf("begin king capture\n");
	#endif

	unsigned char b[10][10];
	memcpy(b,tempBoard,100);
     6f8:	e0bfe004 	addi	r2,fp,-128
     6fc:	01801904 	movi	r6,100
     700:	e17ffb17 	ldw	r5,-20(fp)
     704:	1009883a 	mov	r4,r2
     708:	00054340 	call	5434 <memcpy>

	Vector *captureVector = vectorInit();
     70c:	0003e2c0 	call	3e2c <vectorInit>
     710:	e0bfde15 	stw	r2,-136(fp)
	Location possibleEnemy, possibleLanding;
	for(signed char rowDirection = -1; rowDirection < 2; rowDirection = rowDirection + 2){
     714:	00bfffc4 	movi	r2,-1
     718:	e0bfdd05 	stb	r2,-140(fp)
     71c:	0000f206 	br	ae8 <kingCapture+0x428>
		for(signed char fieldDirection = -1; fieldDirection < 2; fieldDirection = fieldDirection + 2){
     720:	00bfffc4 	movi	r2,-1
     724:	e0bfdd45 	stb	r2,-139(fp)
     728:	0000e906 	br	ad0 <kingCapture+0x410>
			#if DEBUG
				printf("Row direction: %d, Field Direction: %d\n", rowDirection, fieldDirection);
			#endif
			possibleEnemy.row = currentLocation.row;
     72c:	e0bffa43 	ldbu	r2,-23(fp)
     730:	e0bff945 	stb	r2,-27(fp)
			possibleEnemy.field = currentLocation.field;
     734:	e0bffa03 	ldbu	r2,-24(fp)
     738:	e0bff905 	stb	r2,-28(fp)
			while(possibleEnemy.row + rowDirection > 0 && possibleEnemy.row + rowDirection < 9 && possibleEnemy.field + fieldDirection > 0 && possibleEnemy.field + fieldDirection < 9){
     73c:	0000c906 	br	a64 <kingCapture+0x3a4>
				possibleEnemy.row += rowDirection;
     740:	e0fff943 	ldbu	r3,-27(fp)
     744:	e0bfdd03 	ldbu	r2,-140(fp)
     748:	1885883a 	add	r2,r3,r2
     74c:	e0bff945 	stb	r2,-27(fp)
				possibleEnemy.field += fieldDirection;
     750:	e0fff903 	ldbu	r3,-28(fp)
     754:	e0bfdd43 	ldbu	r2,-139(fp)
     758:	1885883a 	add	r2,r3,r2
     75c:	e0bff905 	stb	r2,-28(fp)
				#if DEBUG
					printf("possible enemy row: %d, possible enemy field: %d\n", possibleEnemy.row, possibleEnemy.field);
				#endif
				if(b[possibleEnemy.row][possibleEnemy.field] == enemy || b[possibleEnemy.row][possibleEnemy.field] == enemyKing){
     760:	e0bff943 	ldbu	r2,-27(fp)
     764:	10c03fcc 	andi	r3,r2,255
     768:	e0bff903 	ldbu	r2,-28(fp)
     76c:	10803fcc 	andi	r2,r2,255
     770:	18c002a4 	muli	r3,r3,10
     774:	e13fdd04 	addi	r4,fp,-140
     778:	20c7883a 	add	r3,r4,r3
     77c:	1885883a 	add	r2,r3,r2
     780:	10800304 	addi	r2,r2,12
     784:	10800003 	ldbu	r2,0(r2)
     788:	10c03fcc 	andi	r3,r2,255
     78c:	e0bffe03 	ldbu	r2,-8(fp)
     790:	18800d26 	beq	r3,r2,7c8 <kingCapture+0x108>
     794:	e0bff943 	ldbu	r2,-27(fp)
     798:	10c03fcc 	andi	r3,r2,255
     79c:	e0bff903 	ldbu	r2,-28(fp)
     7a0:	10803fcc 	andi	r2,r2,255
     7a4:	18c002a4 	muli	r3,r3,10
     7a8:	e17fdd04 	addi	r5,fp,-140
     7ac:	28c7883a 	add	r3,r5,r3
     7b0:	1885883a 	add	r2,r3,r2
     7b4:	10800304 	addi	r2,r2,12
     7b8:	10800003 	ldbu	r2,0(r2)
     7bc:	10c03fcc 	andi	r3,r2,255
     7c0:	e0bfff03 	ldbu	r2,-4(fp)
     7c4:	1880a71e 	bne	r3,r2,a64 <kingCapture+0x3a4>
					#if DEBUG
						printf("beeb boop enemy detected\n");
					#endif
					possibleLanding.row = possibleEnemy.row;
     7c8:	e0bff943 	ldbu	r2,-27(fp)
     7cc:	e0bff9c5 	stb	r2,-25(fp)
					possibleLanding.field = possibleEnemy.field;
     7d0:	e0bff903 	ldbu	r2,-28(fp)
     7d4:	e0bff985 	stb	r2,-26(fp)

					unsigned char i = 0;
     7d8:	e03fdd85 	stb	zero,-138(fp)
					while(possibleLanding.row + rowDirection > -1 && possibleLanding.row + rowDirection < 10 && possibleLanding.field + fieldDirection > -1 && possibleLanding.field + fieldDirection < 10){
     7dc:	00008a06 	br	a08 <kingCapture+0x348>
						possibleLanding.row += rowDirection;
     7e0:	e0fff9c3 	ldbu	r3,-25(fp)
     7e4:	e0bfdd03 	ldbu	r2,-140(fp)
     7e8:	1885883a 	add	r2,r3,r2
     7ec:	e0bff9c5 	stb	r2,-25(fp)
						possibleLanding.field += fieldDirection;
     7f0:	e0fff983 	ldbu	r3,-26(fp)
     7f4:	e0bfdd43 	ldbu	r2,-139(fp)
     7f8:	1885883a 	add	r2,r3,r2
     7fc:	e0bff985 	stb	r2,-26(fp)
						if(b[possibleLanding.row][possibleLanding.field] == BLACK){
     800:	e0bff9c3 	ldbu	r2,-25(fp)
     804:	10c03fcc 	andi	r3,r2,255
     808:	e0bff983 	ldbu	r2,-26(fp)
     80c:	10803fcc 	andi	r2,r2,255
     810:	18c002a4 	muli	r3,r3,10
     814:	e13fdd04 	addi	r4,fp,-140
     818:	20c7883a 	add	r3,r4,r3
     81c:	1885883a 	add	r2,r3,r2
     820:	10800304 	addi	r2,r2,12
     824:	10800003 	ldbu	r2,0(r2)
     828:	10803fcc 	andi	r2,r2,255
     82c:	10800058 	cmpnei	r2,r2,1
     830:	1000751e 	bne	r2,zero,a08 <kingCapture+0x348>
							#if DEBUG
								printf("LANDINGMAYDAYMAYDAY %d \n", i);
							#endif
							i++;
     834:	e0bfdd83 	ldbu	r2,-138(fp)
     838:	10800044 	addi	r2,r2,1
     83c:	e0bfdd85 	stb	r2,-138(fp)

							#if DEBUG
								printf("LandROW : %d\n LandField: %d\n\n", possibleLanding.row, possibleLanding.field);
							#endif
							VectorCapture *capture = malloc(sizeof(VectorCapture)) ;
     840:	01000304 	movi	r4,12
     844:	0004b1c0 	call	4b1c <malloc>
     848:	e0bfdf15 	stw	r2,-132(fp)
							capture->oldLocation = currentLocation;
     84c:	e0bfdf17 	ldw	r2,-132(fp)
     850:	e0fffa0b 	ldhu	r3,-24(fp)
     854:	10c0010d 	sth	r3,4(r2)
							capture->captureLocation = possibleEnemy;
     858:	e0bfdf17 	ldw	r2,-132(fp)
     85c:	e0fff90b 	ldhu	r3,-28(fp)
     860:	10c0018d 	sth	r3,6(r2)
							capture->newLocation = possibleLanding;
     864:	e0bfdf17 	ldw	r2,-132(fp)
     868:	e0fff98b 	ldhu	r3,-26(fp)
     86c:	10c0020d 	sth	r3,8(r2)
							capture->piece = b[possibleEnemy.row][possibleEnemy.field];
     870:	e0bff943 	ldbu	r2,-27(fp)
     874:	10c03fcc 	andi	r3,r2,255
     878:	e0bff903 	ldbu	r2,-28(fp)
     87c:	10803fcc 	andi	r2,r2,255
     880:	18c002a4 	muli	r3,r3,10
     884:	e17fdd04 	addi	r5,fp,-140
     888:	28c7883a 	add	r3,r5,r3
     88c:	1885883a 	add	r2,r3,r2
     890:	10800304 	addi	r2,r2,12
     894:	10c00003 	ldbu	r3,0(r2)
     898:	e0bfdf17 	ldw	r2,-132(fp)
     89c:	10c00285 	stb	r3,10(r2)
							b[currentLocation.row][currentLocation.field] = BLACK;
     8a0:	e0bffa43 	ldbu	r2,-23(fp)
     8a4:	10c03fcc 	andi	r3,r2,255
     8a8:	e0bffa03 	ldbu	r2,-24(fp)
     8ac:	10803fcc 	andi	r2,r2,255
     8b0:	18c002a4 	muli	r3,r3,10
     8b4:	e13fdd04 	addi	r4,fp,-140
     8b8:	20c7883a 	add	r3,r4,r3
     8bc:	1885883a 	add	r2,r3,r2
     8c0:	10800304 	addi	r2,r2,12
     8c4:	00c00044 	movi	r3,1
     8c8:	10c00005 	stb	r3,0(r2)
							b[possibleLanding.row][possibleLanding.field] = friendlyKing;
     8cc:	e0bff9c3 	ldbu	r2,-25(fp)
     8d0:	10c03fcc 	andi	r3,r2,255
     8d4:	e0bff983 	ldbu	r2,-26(fp)
     8d8:	10803fcc 	andi	r2,r2,255
     8dc:	18c002a4 	muli	r3,r3,10
     8e0:	e17fdd04 	addi	r5,fp,-140
     8e4:	28c7883a 	add	r3,r5,r3
     8e8:	1885883a 	add	r2,r3,r2
     8ec:	10800304 	addi	r2,r2,12
     8f0:	e0fffd03 	ldbu	r3,-12(fp)
     8f4:	10c00005 	stb	r3,0(r2)
							b[possibleEnemy.row][possibleEnemy.field] = BLACK;
     8f8:	e0bff943 	ldbu	r2,-27(fp)
     8fc:	10c03fcc 	andi	r3,r2,255
     900:	e0bff903 	ldbu	r2,-28(fp)
     904:	10803fcc 	andi	r2,r2,255
     908:	18c002a4 	muli	r3,r3,10
     90c:	e13fdd04 	addi	r4,fp,-140
     910:	20c7883a 	add	r3,r4,r3
     914:	1885883a 	add	r2,r3,r2
     918:	10800304 	addi	r2,r2,12
     91c:	00c00044 	movi	r3,1
     920:	10c00005 	stb	r3,0(r2)

							capture->nextCaptures = kingCapture(possibleLanding, (unsigned char **)b, friendly, friendlyKing, enemy, enemyKing);
     924:	e17ffc03 	ldbu	r5,-16(fp)
     928:	e1bffd03 	ldbu	r6,-12(fp)
     92c:	e0bffe03 	ldbu	r2,-8(fp)
     930:	e0ffff03 	ldbu	r3,-4(fp)
     934:	e13fe004 	addi	r4,fp,-128
     938:	d8c00115 	stw	r3,4(sp)
     93c:	d8800015 	stw	r2,0(sp)
     940:	e0fff98b 	ldhu	r3,-26(fp)
     944:	0005883a 	mov	r2,zero
     948:	18ffffcc 	andi	r3,r3,65535
     94c:	10bfffec 	andhi	r2,r2,65535
     950:	10c4b03a 	or	r2,r2,r3
     954:	300f883a 	mov	r7,r6
     958:	280d883a 	mov	r6,r5
     95c:	200b883a 	mov	r5,r4
     960:	1009883a 	mov	r4,r2
     964:	00006c00 	call	6c0 <kingCapture>
     968:	1007883a 	mov	r3,r2
     96c:	e0bfdf17 	ldw	r2,-132(fp)
     970:	10c00015 	stw	r3,0(r2)
							#if DEBUG
								printf("add stuff to vector\n");
							#endif
							vectorAdd(captureVector, (void*)capture);
     974:	e17fdf17 	ldw	r5,-132(fp)
     978:	e13fde17 	ldw	r4,-136(fp)
     97c:	0003ea00 	call	3ea0 <vectorAdd>

							#if DEBUG
								printf("restore board\n");
							#endif
							b[currentLocation.row][currentLocation.field] = friendlyKing;
     980:	e0bffa43 	ldbu	r2,-23(fp)
     984:	10c03fcc 	andi	r3,r2,255
     988:	e0bffa03 	ldbu	r2,-24(fp)
     98c:	10803fcc 	andi	r2,r2,255
     990:	18c002a4 	muli	r3,r3,10
     994:	e17fdd04 	addi	r5,fp,-140
     998:	28c7883a 	add	r3,r5,r3
     99c:	1885883a 	add	r2,r3,r2
     9a0:	10800304 	addi	r2,r2,12
     9a4:	e0fffd03 	ldbu	r3,-12(fp)
     9a8:	10c00005 	stb	r3,0(r2)
							b[possibleLanding.row][possibleLanding.field] = BLACK;
     9ac:	e0bff9c3 	ldbu	r2,-25(fp)
     9b0:	10c03fcc 	andi	r3,r2,255
     9b4:	e0bff983 	ldbu	r2,-26(fp)
     9b8:	10803fcc 	andi	r2,r2,255
     9bc:	18c002a4 	muli	r3,r3,10
     9c0:	e13fdd04 	addi	r4,fp,-140
     9c4:	20c7883a 	add	r3,r4,r3
     9c8:	1885883a 	add	r2,r3,r2
     9cc:	10800304 	addi	r2,r2,12
     9d0:	00c00044 	movi	r3,1
     9d4:	10c00005 	stb	r3,0(r2)
							b[possibleEnemy.row][possibleEnemy.field] = capture->piece;
     9d8:	e0bff943 	ldbu	r2,-27(fp)
     9dc:	11003fcc 	andi	r4,r2,255
     9e0:	e0bff903 	ldbu	r2,-28(fp)
     9e4:	10803fcc 	andi	r2,r2,255
     9e8:	e0ffdf17 	ldw	r3,-132(fp)
     9ec:	18c00283 	ldbu	r3,10(r3)
     9f0:	210002a4 	muli	r4,r4,10
     9f4:	e17fdd04 	addi	r5,fp,-140
     9f8:	2909883a 	add	r4,r5,r4
     9fc:	2085883a 	add	r2,r4,r2
     a00:	10800304 	addi	r2,r2,12
     a04:	10c00005 	stb	r3,0(r2)
					#endif
					possibleLanding.row = possibleEnemy.row;
					possibleLanding.field = possibleEnemy.field;

					unsigned char i = 0;
					while(possibleLanding.row + rowDirection > -1 && possibleLanding.row + rowDirection < 10 && possibleLanding.field + fieldDirection > -1 && possibleLanding.field + fieldDirection < 10){
     a08:	e0bff9c3 	ldbu	r2,-25(fp)
     a0c:	10c03fcc 	andi	r3,r2,255
     a10:	e0bfdd07 	ldb	r2,-140(fp)
     a14:	1885883a 	add	r2,r3,r2
     a18:	10002916 	blt	r2,zero,ac0 <kingCapture+0x400>
     a1c:	e0bff9c3 	ldbu	r2,-25(fp)
     a20:	10c03fcc 	andi	r3,r2,255
     a24:	e0bfdd07 	ldb	r2,-140(fp)
     a28:	1885883a 	add	r2,r3,r2
     a2c:	10800288 	cmpgei	r2,r2,10
     a30:	1000231e 	bne	r2,zero,ac0 <kingCapture+0x400>
     a34:	e0bff983 	ldbu	r2,-26(fp)
     a38:	10c03fcc 	andi	r3,r2,255
     a3c:	e0bfdd47 	ldb	r2,-139(fp)
     a40:	1885883a 	add	r2,r3,r2
     a44:	10001e16 	blt	r2,zero,ac0 <kingCapture+0x400>
     a48:	e0bff983 	ldbu	r2,-26(fp)
     a4c:	10c03fcc 	andi	r3,r2,255
     a50:	e0bfdd47 	ldb	r2,-139(fp)
     a54:	1885883a 	add	r2,r3,r2
     a58:	10800290 	cmplti	r2,r2,10
     a5c:	103f601e 	bne	r2,zero,7e0 <__alt_data_end+0xfc0007e0>
							b[currentLocation.row][currentLocation.field] = friendlyKing;
							b[possibleLanding.row][possibleLanding.field] = BLACK;
							b[possibleEnemy.row][possibleEnemy.field] = capture->piece;
						}
					}
					break;
     a60:	00001706 	br	ac0 <kingCapture+0x400>
			#if DEBUG
				printf("Row direction: %d, Field Direction: %d\n", rowDirection, fieldDirection);
			#endif
			possibleEnemy.row = currentLocation.row;
			possibleEnemy.field = currentLocation.field;
			while(possibleEnemy.row + rowDirection > 0 && possibleEnemy.row + rowDirection < 9 && possibleEnemy.field + fieldDirection > 0 && possibleEnemy.field + fieldDirection < 9){
     a64:	e0bff943 	ldbu	r2,-27(fp)
     a68:	10c03fcc 	andi	r3,r2,255
     a6c:	e0bfdd07 	ldb	r2,-140(fp)
     a70:	1885883a 	add	r2,r3,r2
     a74:	0080130e 	bge	zero,r2,ac4 <kingCapture+0x404>
     a78:	e0bff943 	ldbu	r2,-27(fp)
     a7c:	10c03fcc 	andi	r3,r2,255
     a80:	e0bfdd07 	ldb	r2,-140(fp)
     a84:	1885883a 	add	r2,r3,r2
     a88:	10800248 	cmpgei	r2,r2,9
     a8c:	10000d1e 	bne	r2,zero,ac4 <kingCapture+0x404>
     a90:	e0bff903 	ldbu	r2,-28(fp)
     a94:	10c03fcc 	andi	r3,r2,255
     a98:	e0bfdd47 	ldb	r2,-139(fp)
     a9c:	1885883a 	add	r2,r3,r2
     aa0:	0080080e 	bge	zero,r2,ac4 <kingCapture+0x404>
     aa4:	e0bff903 	ldbu	r2,-28(fp)
     aa8:	10c03fcc 	andi	r3,r2,255
     aac:	e0bfdd47 	ldb	r2,-139(fp)
     ab0:	1885883a 	add	r2,r3,r2
     ab4:	10800250 	cmplti	r2,r2,9
     ab8:	103f211e 	bne	r2,zero,740 <__alt_data_end+0xfc000740>
     abc:	00000106 	br	ac4 <kingCapture+0x404>
							b[currentLocation.row][currentLocation.field] = friendlyKing;
							b[possibleLanding.row][possibleLanding.field] = BLACK;
							b[possibleEnemy.row][possibleEnemy.field] = capture->piece;
						}
					}
					break;
     ac0:	0001883a 	nop
	memcpy(b,tempBoard,100);

	Vector *captureVector = vectorInit();
	Location possibleEnemy, possibleLanding;
	for(signed char rowDirection = -1; rowDirection < 2; rowDirection = rowDirection + 2){
		for(signed char fieldDirection = -1; fieldDirection < 2; fieldDirection = fieldDirection + 2){
     ac4:	e0bfdd43 	ldbu	r2,-139(fp)
     ac8:	10800084 	addi	r2,r2,2
     acc:	e0bfdd45 	stb	r2,-139(fp)
     ad0:	e0bfdd47 	ldb	r2,-139(fp)
     ad4:	10800090 	cmplti	r2,r2,2
     ad8:	103f141e 	bne	r2,zero,72c <__alt_data_end+0xfc00072c>
	unsigned char b[10][10];
	memcpy(b,tempBoard,100);

	Vector *captureVector = vectorInit();
	Location possibleEnemy, possibleLanding;
	for(signed char rowDirection = -1; rowDirection < 2; rowDirection = rowDirection + 2){
     adc:	e0bfdd03 	ldbu	r2,-140(fp)
     ae0:	10800084 	addi	r2,r2,2
     ae4:	e0bfdd05 	stb	r2,-140(fp)
     ae8:	e0bfdd07 	ldb	r2,-140(fp)
     aec:	10800090 	cmplti	r2,r2,2
     af0:	103f0b1e 	bne	r2,zero,720 <__alt_data_end+0xfc000720>
				}
			}

		}
	}
	return captureVector;
     af4:	e0bfde17 	ldw	r2,-136(fp)
}
     af8:	e037883a 	mov	sp,fp
     afc:	dfc00117 	ldw	ra,4(sp)
     b00:	df000017 	ldw	fp,0(sp)
     b04:	dec00204 	addi	sp,sp,8
     b08:	f800283a 	ret

00000b0c <deleteCaptureVector>:

void deleteCaptureVector(VectorCapture *capture){
     b0c:	defffb04 	addi	sp,sp,-20
     b10:	dfc00415 	stw	ra,16(sp)
     b14:	df000315 	stw	fp,12(sp)
     b18:	df000304 	addi	fp,sp,12
     b1c:	e13fff15 	stw	r4,-4(fp)
	if(capture->nextCaptures != NULL){
     b20:	e0bfff17 	ldw	r2,-4(fp)
     b24:	10800017 	ldw	r2,0(r2)
     b28:	10001f26 	beq	r2,zero,ba8 <deleteCaptureVector+0x9c>
		Vector * vector = capture->nextCaptures;
     b2c:	e0bfff17 	ldw	r2,-4(fp)
     b30:	10800017 	ldw	r2,0(r2)
     b34:	e0bffe15 	stw	r2,-8(fp)
		for(unsigned char i = 0; i < vector->count; i++){
     b38:	e03ffd05 	stb	zero,-12(fp)
     b3c:	00001406 	br	b90 <deleteCaptureVector+0x84>
			if(vector->data[i] != NULL){
     b40:	e0bffe17 	ldw	r2,-8(fp)
     b44:	10c00017 	ldw	r3,0(r2)
     b48:	e0bffd03 	ldbu	r2,-12(fp)
     b4c:	1085883a 	add	r2,r2,r2
     b50:	1085883a 	add	r2,r2,r2
     b54:	1885883a 	add	r2,r3,r2
     b58:	10800017 	ldw	r2,0(r2)
     b5c:	10000926 	beq	r2,zero,b84 <deleteCaptureVector+0x78>
				deleteCaptureVector(vector->data[i]);
     b60:	e0bffe17 	ldw	r2,-8(fp)
     b64:	10c00017 	ldw	r3,0(r2)
     b68:	e0bffd03 	ldbu	r2,-12(fp)
     b6c:	1085883a 	add	r2,r2,r2
     b70:	1085883a 	add	r2,r2,r2
     b74:	1885883a 	add	r2,r3,r2
     b78:	10800017 	ldw	r2,0(r2)
     b7c:	1009883a 	mov	r4,r2
     b80:	0000b0c0 	call	b0c <deleteCaptureVector>
}

void deleteCaptureVector(VectorCapture *capture){
	if(capture->nextCaptures != NULL){
		Vector * vector = capture->nextCaptures;
		for(unsigned char i = 0; i < vector->count; i++){
     b84:	e0bffd03 	ldbu	r2,-12(fp)
     b88:	10800044 	addi	r2,r2,1
     b8c:	e0bffd05 	stb	r2,-12(fp)
     b90:	e0fffd03 	ldbu	r3,-12(fp)
     b94:	e0bffe17 	ldw	r2,-8(fp)
     b98:	10800217 	ldw	r2,8(r2)
     b9c:	18bfe816 	blt	r3,r2,b40 <__alt_data_end+0xfc000b40>
			if(vector->data[i] != NULL){
				deleteCaptureVector(vector->data[i]);
			}
		}
		vectorFree(vector);
     ba0:	e13ffe17 	ldw	r4,-8(fp)
     ba4:	00041ac0 	call	41ac <vectorFree>
	}
	free(capture);
     ba8:	e13fff17 	ldw	r4,-4(fp)
     bac:	0004b300 	call	4b30 <free>
}
     bb0:	0001883a 	nop
     bb4:	e037883a 	mov	sp,fp
     bb8:	dfc00117 	ldw	ra,4(sp)
     bbc:	df000017 	ldw	fp,0(sp)
     bc0:	dec00204 	addi	sp,sp,8
     bc4:	f800283a 	ret

00000bc8 <deleteMoveVector>:

void deleteMoveVector(Vector * vector){
     bc8:	defffa04 	addi	sp,sp,-24
     bcc:	dfc00515 	stw	ra,20(sp)
     bd0:	df000415 	stw	fp,16(sp)
     bd4:	df000404 	addi	fp,sp,16
     bd8:	e13fff15 	stw	r4,-4(fp)
	for(unsigned char i = 0; i < vector->count; i++){
     bdc:	e03ffc05 	stb	zero,-16(fp)
     be0:	00001506 	br	c38 <deleteMoveVector+0x70>
		struct Move * moveList = (struct Move *) vector->data[i];
     be4:	e0bfff17 	ldw	r2,-4(fp)
     be8:	10c00017 	ldw	r3,0(r2)
     bec:	e0bffc03 	ldbu	r2,-16(fp)
     bf0:	1085883a 	add	r2,r2,r2
     bf4:	1085883a 	add	r2,r2,r2
     bf8:	1885883a 	add	r2,r3,r2
     bfc:	10800017 	ldw	r2,0(r2)
     c00:	e0bffd15 	stw	r2,-12(fp)
		struct Move * nextMoveList;
		while(moveList != NULL){
     c04:	00000706 	br	c24 <deleteMoveVector+0x5c>
			nextMoveList = moveList->nextMove;
     c08:	e0bffd17 	ldw	r2,-12(fp)
     c0c:	10800217 	ldw	r2,8(r2)
     c10:	e0bffe15 	stw	r2,-8(fp)
			free(moveList);
     c14:	e13ffd17 	ldw	r4,-12(fp)
     c18:	0004b300 	call	4b30 <free>
			moveList = nextMoveList;
     c1c:	e0bffe17 	ldw	r2,-8(fp)
     c20:	e0bffd15 	stw	r2,-12(fp)

void deleteMoveVector(Vector * vector){
	for(unsigned char i = 0; i < vector->count; i++){
		struct Move * moveList = (struct Move *) vector->data[i];
		struct Move * nextMoveList;
		while(moveList != NULL){
     c24:	e0bffd17 	ldw	r2,-12(fp)
     c28:	103ff71e 	bne	r2,zero,c08 <__alt_data_end+0xfc000c08>
	}
	free(capture);
}

void deleteMoveVector(Vector * vector){
	for(unsigned char i = 0; i < vector->count; i++){
     c2c:	e0bffc03 	ldbu	r2,-16(fp)
     c30:	10800044 	addi	r2,r2,1
     c34:	e0bffc05 	stb	r2,-16(fp)
     c38:	e0fffc03 	ldbu	r3,-16(fp)
     c3c:	e0bfff17 	ldw	r2,-4(fp)
     c40:	10800217 	ldw	r2,8(r2)
     c44:	18bfe716 	blt	r3,r2,be4 <__alt_data_end+0xfc000be4>
			nextMoveList = moveList->nextMove;
			free(moveList);
			moveList = nextMoveList;
		}
	}
	free(vector);
     c48:	e13fff17 	ldw	r4,-4(fp)
     c4c:	0004b300 	call	4b30 <free>
}
     c50:	0001883a 	nop
     c54:	e037883a 	mov	sp,fp
     c58:	dfc00117 	ldw	ra,4(sp)
     c5c:	df000017 	ldw	fp,0(sp)
     c60:	dec00204 	addi	sp,sp,8
     c64:	f800283a 	ret

00000c68 <stripCaptureVector>:

unsigned char stripCaptureVector(Vector *vector, unsigned char count){
     c68:	defff904 	addi	sp,sp,-28
     c6c:	dfc00615 	stw	ra,24(sp)
     c70:	df000515 	stw	fp,20(sp)
     c74:	df000504 	addi	fp,sp,20
     c78:	e13ffe15 	stw	r4,-8(fp)
     c7c:	2805883a 	mov	r2,r5
     c80:	e0bfff05 	stb	r2,-4(fp)
	unsigned char oldCount = 0;
     c84:	e03ffb05 	stb	zero,-20(fp)
	count++;
     c88:	e0bfff03 	ldbu	r2,-4(fp)
     c8c:	10800044 	addi	r2,r2,1
     c90:	e0bfff05 	stb	r2,-4(fp)
	if(vector->count == 0){
     c94:	e0bffe17 	ldw	r2,-8(fp)
     c98:	10800217 	ldw	r2,8(r2)
     c9c:	1000051e 	bne	r2,zero,cb4 <stripCaptureVector+0x4c>
		#if DEBUG
			printf("Vector 0\n");
		#endif
		vectorFree(vector);
     ca0:	e13ffe17 	ldw	r4,-8(fp)
     ca4:	00041ac0 	call	41ac <vectorFree>
		oldCount = count;
     ca8:	e0bfff03 	ldbu	r2,-4(fp)
     cac:	e0bffb05 	stb	r2,-20(fp)
     cb0:	00006506 	br	e48 <stripCaptureVector+0x1e0>
	}else{
		for(unsigned char i = 0; i < vector->count; i++){
     cb4:	e03ffb45 	stb	zero,-19(fp)
     cb8:	00005f06 	br	e38 <stripCaptureVector+0x1d0>
			#if DEBUG
				printf("count === %d\n", count);
			#endif
			if(vector->data[i] != NULL){
     cbc:	e0bffe17 	ldw	r2,-8(fp)
     cc0:	10c00017 	ldw	r3,0(r2)
     cc4:	e0bffb43 	ldbu	r2,-19(fp)
     cc8:	1085883a 	add	r2,r2,r2
     ccc:	1085883a 	add	r2,r2,r2
     cd0:	1885883a 	add	r2,r3,r2
     cd4:	10800017 	ldw	r2,0(r2)
     cd8:	10005426 	beq	r2,zero,e2c <stripCaptureVector+0x1c4>
				VectorCapture *capture = ((VectorCapture *)vector->data[i]);
     cdc:	e0bffe17 	ldw	r2,-8(fp)
     ce0:	10c00017 	ldw	r3,0(r2)
     ce4:	e0bffb43 	ldbu	r2,-19(fp)
     ce8:	1085883a 	add	r2,r2,r2
     cec:	1085883a 	add	r2,r2,r2
     cf0:	1885883a 	add	r2,r3,r2
     cf4:	10800017 	ldw	r2,0(r2)
     cf8:	e0bffc15 	stw	r2,-16(fp)
				if(capture->nextCaptures != NULL){
     cfc:	e0bffc17 	ldw	r2,-16(fp)
     d00:	10800017 	ldw	r2,0(r2)
     d04:	10004926 	beq	r2,zero,e2c <stripCaptureVector+0x1c4>
					#if DEBUG
						printf("Next captures != NULL\n");
						printf("Vector count != 0\n");
					#endif
					unsigned char newCount = stripCaptureVector(capture->nextCaptures, count);
     d08:	e0bffc17 	ldw	r2,-16(fp)
     d0c:	10800017 	ldw	r2,0(r2)
     d10:	e0ffff03 	ldbu	r3,-4(fp)
     d14:	180b883a 	mov	r5,r3
     d18:	1009883a 	mov	r4,r2
     d1c:	0000c680 	call	c68 <stripCaptureVector>
     d20:	e0bffd05 	stb	r2,-12(fp)
					#if DEBUG
						printf("Oldcount: %i\n Newcount: %i\n I: %i\n", oldCount ,newCount, i);
					#endif
					if(oldCount < newCount){
     d24:	e0fffb03 	ldbu	r3,-20(fp)
     d28:	e0bffd03 	ldbu	r2,-12(fp)
     d2c:	1880242e 	bgeu	r3,r2,dc0 <stripCaptureVector+0x158>
						for(signed char delI = i-1; delI >= 0; delI--){
     d30:	e0bffb43 	ldbu	r2,-19(fp)
     d34:	10bfffc4 	addi	r2,r2,-1
     d38:	e0bffb85 	stb	r2,-18(fp)
     d3c:	00001b06 	br	dac <stripCaptureVector+0x144>
							#if DEBUG
								printf("Deleting prevous items\n");
							#endif
							if(vector->data[delI] != NULL){
     d40:	e0bffe17 	ldw	r2,-8(fp)
     d44:	10c00017 	ldw	r3,0(r2)
     d48:	e0bffb87 	ldb	r2,-18(fp)
     d4c:	1085883a 	add	r2,r2,r2
     d50:	1085883a 	add	r2,r2,r2
     d54:	1885883a 	add	r2,r3,r2
     d58:	10800017 	ldw	r2,0(r2)
     d5c:	10001026 	beq	r2,zero,da0 <stripCaptureVector+0x138>
								deleteCaptureVector(vector->data[delI]);
     d60:	e0bffe17 	ldw	r2,-8(fp)
     d64:	10c00017 	ldw	r3,0(r2)
     d68:	e0bffb87 	ldb	r2,-18(fp)
     d6c:	1085883a 	add	r2,r2,r2
     d70:	1085883a 	add	r2,r2,r2
     d74:	1885883a 	add	r2,r3,r2
     d78:	10800017 	ldw	r2,0(r2)
     d7c:	1009883a 	mov	r4,r2
     d80:	0000b0c0 	call	b0c <deleteCaptureVector>
								vector->data[delI] = NULL;
     d84:	e0bffe17 	ldw	r2,-8(fp)
     d88:	10c00017 	ldw	r3,0(r2)
     d8c:	e0bffb87 	ldb	r2,-18(fp)
     d90:	1085883a 	add	r2,r2,r2
     d94:	1085883a 	add	r2,r2,r2
     d98:	1885883a 	add	r2,r3,r2
     d9c:	10000015 	stw	zero,0(r2)
					unsigned char newCount = stripCaptureVector(capture->nextCaptures, count);
					#if DEBUG
						printf("Oldcount: %i\n Newcount: %i\n I: %i\n", oldCount ,newCount, i);
					#endif
					if(oldCount < newCount){
						for(signed char delI = i-1; delI >= 0; delI--){
     da0:	e0bffb83 	ldbu	r2,-18(fp)
     da4:	10bfffc4 	addi	r2,r2,-1
     da8:	e0bffb85 	stb	r2,-18(fp)
     dac:	e0bffb87 	ldb	r2,-18(fp)
     db0:	103fe30e 	bge	r2,zero,d40 <__alt_data_end+0xfc000d40>
							if(vector->data[delI] != NULL){
								deleteCaptureVector(vector->data[delI]);
								vector->data[delI] = NULL;
							}
						}
						oldCount = newCount;
     db4:	e0bffd03 	ldbu	r2,-12(fp)
     db8:	e0bffb05 	stb	r2,-20(fp)
     dbc:	00001b06 	br	e2c <stripCaptureVector+0x1c4>
					}else if(oldCount > newCount){
     dc0:	e0bffb03 	ldbu	r2,-20(fp)
     dc4:	e0fffd03 	ldbu	r3,-12(fp)
     dc8:	1880182e 	bgeu	r3,r2,e2c <stripCaptureVector+0x1c4>
						if(vector->data[i] != NULL){
     dcc:	e0bffe17 	ldw	r2,-8(fp)
     dd0:	10c00017 	ldw	r3,0(r2)
     dd4:	e0bffb43 	ldbu	r2,-19(fp)
     dd8:	1085883a 	add	r2,r2,r2
     ddc:	1085883a 	add	r2,r2,r2
     de0:	1885883a 	add	r2,r3,r2
     de4:	10800017 	ldw	r2,0(r2)
     de8:	10001026 	beq	r2,zero,e2c <stripCaptureVector+0x1c4>
							#if DEBUG
								printf("deleting current item\n");
							#endif
							// delete recursive
							deleteCaptureVector(vector->data[i]);
     dec:	e0bffe17 	ldw	r2,-8(fp)
     df0:	10c00017 	ldw	r3,0(r2)
     df4:	e0bffb43 	ldbu	r2,-19(fp)
     df8:	1085883a 	add	r2,r2,r2
     dfc:	1085883a 	add	r2,r2,r2
     e00:	1885883a 	add	r2,r3,r2
     e04:	10800017 	ldw	r2,0(r2)
     e08:	1009883a 	mov	r4,r2
     e0c:	0000b0c0 	call	b0c <deleteCaptureVector>
							vector->data[i] = NULL;
     e10:	e0bffe17 	ldw	r2,-8(fp)
     e14:	10c00017 	ldw	r3,0(r2)
     e18:	e0bffb43 	ldbu	r2,-19(fp)
     e1c:	1085883a 	add	r2,r2,r2
     e20:	1085883a 	add	r2,r2,r2
     e24:	1885883a 	add	r2,r3,r2
     e28:	10000015 	stw	zero,0(r2)
			printf("Vector 0\n");
		#endif
		vectorFree(vector);
		oldCount = count;
	}else{
		for(unsigned char i = 0; i < vector->count; i++){
     e2c:	e0bffb43 	ldbu	r2,-19(fp)
     e30:	10800044 	addi	r2,r2,1
     e34:	e0bffb45 	stb	r2,-19(fp)
     e38:	e0fffb43 	ldbu	r3,-19(fp)
     e3c:	e0bffe17 	ldw	r2,-8(fp)
     e40:	10800217 	ldw	r2,8(r2)
     e44:	18bf9d16 	blt	r3,r2,cbc <__alt_data_end+0xfc000cbc>
				}
			}
		}

	}
	return oldCount;
     e48:	e0bffb03 	ldbu	r2,-20(fp)
}
     e4c:	e037883a 	mov	sp,fp
     e50:	dfc00117 	ldw	ra,4(sp)
     e54:	df000017 	ldw	fp,0(sp)
     e58:	dec00204 	addi	sp,sp,8
     e5c:	f800283a 	ret

00000e60 <initMoveList>:


void initMoveList(VectorCapture * capture, struct Move * newMove){
     e60:	defffd04 	addi	sp,sp,-12
     e64:	df000215 	stw	fp,8(sp)
     e68:	df000204 	addi	fp,sp,8
     e6c:	e13ffe15 	stw	r4,-8(fp)
     e70:	e17fff15 	stw	r5,-4(fp)
	newMove->oldLocation = capture->oldLocation;
     e74:	e0bfff17 	ldw	r2,-4(fp)
     e78:	e0fffe17 	ldw	r3,-8(fp)
     e7c:	18c0010b 	ldhu	r3,4(r3)
     e80:	10c0000d 	sth	r3,0(r2)
	newMove->newLocation = capture->newLocation;
     e84:	e0bfff17 	ldw	r2,-4(fp)
     e88:	e0fffe17 	ldw	r3,-8(fp)
     e8c:	18c0020b 	ldhu	r3,8(r3)
     e90:	10c0008d 	sth	r3,2(r2)
	newMove->nextMove = NULL;
     e94:	e0bfff17 	ldw	r2,-4(fp)
     e98:	10000215 	stw	zero,8(r2)

	newMove->capture.piece = capture->piece;
     e9c:	e0bffe17 	ldw	r2,-8(fp)
     ea0:	10c00283 	ldbu	r3,10(r2)
     ea4:	e0bfff17 	ldw	r2,-4(fp)
     ea8:	10c00185 	stb	r3,6(r2)
	newMove->capture.captureLocation = capture->captureLocation;
     eac:	e0bfff17 	ldw	r2,-4(fp)
     eb0:	e0fffe17 	ldw	r3,-8(fp)
     eb4:	18c0018b 	ldhu	r3,6(r3)
     eb8:	10c0010d 	sth	r3,4(r2)
}
     ebc:	0001883a 	nop
     ec0:	e037883a 	mov	sp,fp
     ec4:	df000017 	ldw	fp,0(sp)
     ec8:	dec00104 	addi	sp,sp,4
     ecc:	f800283a 	ret

00000ed0 <addToMoveList>:

void addToMoveList(struct Move * newMove, struct Move * origin){
     ed0:	defffc04 	addi	sp,sp,-16
     ed4:	dfc00315 	stw	ra,12(sp)
     ed8:	df000215 	stw	fp,8(sp)
     edc:	df000204 	addi	fp,sp,8
     ee0:	e13ffe15 	stw	r4,-8(fp)
     ee4:	e17fff15 	stw	r5,-4(fp)
	printf("add move list loop\n");
     ee8:	010000b4 	movhi	r4,2
     eec:	21113f04 	addi	r4,r4,17660
     ef0:	00057f00 	call	57f0 <puts>
	while(origin->nextMove){
     ef4:	00000306 	br	f04 <addToMoveList+0x34>
		origin = origin->nextMove;
     ef8:	e0bfff17 	ldw	r2,-4(fp)
     efc:	10800217 	ldw	r2,8(r2)
     f00:	e0bfff15 	stw	r2,-4(fp)
	newMove->capture.captureLocation = capture->captureLocation;
}

void addToMoveList(struct Move * newMove, struct Move * origin){
	printf("add move list loop\n");
	while(origin->nextMove){
     f04:	e0bfff17 	ldw	r2,-4(fp)
     f08:	10800217 	ldw	r2,8(r2)
     f0c:	103ffa1e 	bne	r2,zero,ef8 <__alt_data_end+0xfc000ef8>
		origin = origin->nextMove;
	}
	printf("found it\n");
     f10:	010000b4 	movhi	r4,2
     f14:	21114404 	addi	r4,r4,17680
     f18:	00057f00 	call	57f0 <puts>

	origin->nextMove = newMove;
     f1c:	e0bfff17 	ldw	r2,-4(fp)
     f20:	e0fffe17 	ldw	r3,-8(fp)
     f24:	10c00215 	stw	r3,8(r2)
}
     f28:	0001883a 	nop
     f2c:	e037883a 	mov	sp,fp
     f30:	dfc00117 	ldw	ra,4(sp)
     f34:	df000017 	ldw	fp,0(sp)
     f38:	dec00204 	addi	sp,sp,8
     f3c:	f800283a 	ret

00000f40 <copyMoveList>:

void copyMoveList(struct Move * originalOrigin, struct Move * newOrigin, unsigned char depth){
     f40:	defffb04 	addi	sp,sp,-20
     f44:	dfc00415 	stw	ra,16(sp)
     f48:	df000315 	stw	fp,12(sp)
     f4c:	df000304 	addi	fp,sp,12
     f50:	e13ffd15 	stw	r4,-12(fp)
     f54:	e17ffe15 	stw	r5,-8(fp)
     f58:	3005883a 	mov	r2,r6
     f5c:	e0bfff05 	stb	r2,-4(fp)
	while(depth > 0){
     f60:	00001f06 	br	fe0 <copyMoveList+0xa0>
		depth = depth - 1;
     f64:	e0bfff03 	ldbu	r2,-4(fp)
     f68:	10bfffc4 	addi	r2,r2,-1
     f6c:	e0bfff05 	stb	r2,-4(fp)
		newOrigin->oldLocation = originalOrigin->oldLocation;
     f70:	e0bffe17 	ldw	r2,-8(fp)
     f74:	e0fffd17 	ldw	r3,-12(fp)
     f78:	18c0000b 	ldhu	r3,0(r3)
     f7c:	10c0000d 	sth	r3,0(r2)
		newOrigin->newLocation = originalOrigin->newLocation;
     f80:	e0bffe17 	ldw	r2,-8(fp)
     f84:	e0fffd17 	ldw	r3,-12(fp)
     f88:	18c0008b 	ldhu	r3,2(r3)
     f8c:	10c0008d 	sth	r3,2(r2)
		newOrigin->capture = originalOrigin->capture;
     f90:	e0bffe17 	ldw	r2,-8(fp)
     f94:	e0fffd17 	ldw	r3,-12(fp)
     f98:	1900010b 	ldhu	r4,4(r3)
     f9c:	1100010d 	sth	r4,4(r2)
     fa0:	18c00183 	ldbu	r3,6(r3)
     fa4:	10c00185 	stb	r3,6(r2)

		if(originalOrigin->nextMove != NULL){
     fa8:	e0bffd17 	ldw	r2,-12(fp)
     fac:	10800217 	ldw	r2,8(r2)
     fb0:	10000b26 	beq	r2,zero,fe0 <copyMoveList+0xa0>
			newOrigin->nextMove = malloc(sizeof(struct Move));
     fb4:	01000304 	movi	r4,12
     fb8:	0004b1c0 	call	4b1c <malloc>
     fbc:	1007883a 	mov	r3,r2
     fc0:	e0bffe17 	ldw	r2,-8(fp)
     fc4:	10c00215 	stw	r3,8(r2)
			newOrigin = newOrigin->nextMove;
     fc8:	e0bffe17 	ldw	r2,-8(fp)
     fcc:	10800217 	ldw	r2,8(r2)
     fd0:	e0bffe15 	stw	r2,-8(fp)
			originalOrigin = originalOrigin->nextMove;
     fd4:	e0bffd17 	ldw	r2,-12(fp)
     fd8:	10800217 	ldw	r2,8(r2)
     fdc:	e0bffd15 	stw	r2,-12(fp)

	origin->nextMove = newMove;
}

void copyMoveList(struct Move * originalOrigin, struct Move * newOrigin, unsigned char depth){
	while(depth > 0){
     fe0:	e0bfff03 	ldbu	r2,-4(fp)
     fe4:	103fdf1e 	bne	r2,zero,f64 <__alt_data_end+0xfc000f64>
			newOrigin = newOrigin->nextMove;
			originalOrigin = originalOrigin->nextMove;
		}
	}

}
     fe8:	0001883a 	nop
     fec:	e037883a 	mov	sp,fp
     ff0:	dfc00117 	ldw	ra,4(sp)
     ff4:	df000017 	ldw	fp,0(sp)
     ff8:	dec00204 	addi	sp,sp,8
     ffc:	f800283a 	ret

00001000 <countMoveList>:

unsigned char countMoveList(struct Move * moveList)
{
    1000:	defffd04 	addi	sp,sp,-12
    1004:	df000215 	stw	fp,8(sp)
    1008:	df000204 	addi	fp,sp,8
    100c:	e13fff15 	stw	r4,-4(fp)
	unsigned char counter = 0;
    1010:	e03ffe05 	stb	zero,-8(fp)
	while(moveList != NULL){
    1014:	00000606 	br	1030 <countMoveList+0x30>
		counter++;
    1018:	e0bffe03 	ldbu	r2,-8(fp)
    101c:	10800044 	addi	r2,r2,1
    1020:	e0bffe05 	stb	r2,-8(fp)
		moveList = moveList->nextMove;
    1024:	e0bfff17 	ldw	r2,-4(fp)
    1028:	10800217 	ldw	r2,8(r2)
    102c:	e0bfff15 	stw	r2,-4(fp)
}

unsigned char countMoveList(struct Move * moveList)
{
	unsigned char counter = 0;
	while(moveList != NULL){
    1030:	e0bfff17 	ldw	r2,-4(fp)
    1034:	103ff81e 	bne	r2,zero,1018 <__alt_data_end+0xfc001018>
		counter++;
		moveList = moveList->nextMove;
	}
	return counter;
    1038:	e0bffe03 	ldbu	r2,-8(fp)
}
    103c:	e037883a 	mov	sp,fp
    1040:	df000017 	ldw	fp,0(sp)
    1044:	dec00104 	addi	sp,sp,4
    1048:	f800283a 	ret

0000104c <generateCaptureList>:

void generateCaptureList(Vector* captureVector, struct Move * moveList, Vector * moveVector, unsigned char depth){
    104c:	defff604 	addi	sp,sp,-40
    1050:	dfc00915 	stw	ra,36(sp)
    1054:	df000815 	stw	fp,32(sp)
    1058:	df000804 	addi	fp,sp,32
    105c:	e13ffc15 	stw	r4,-16(fp)
    1060:	e17ffd15 	stw	r5,-12(fp)
    1064:	e1bffe15 	stw	r6,-8(fp)
    1068:	3805883a 	mov	r2,r7
    106c:	e0bfff05 	stb	r2,-4(fp)
	depth++;
    1070:	e0bfff03 	ldbu	r2,-4(fp)
    1074:	10800044 	addi	r2,r2,1
    1078:	e0bfff05 	stb	r2,-4(fp)
	for(unsigned char i = 0; i < captureVector->count; i++){
    107c:	e03ff805 	stb	zero,-32(fp)
    1080:	00005d06 	br	11f8 <generateCaptureList+0x1ac>
		if(captureVector->data[i] != NULL){
    1084:	e0bffc17 	ldw	r2,-16(fp)
    1088:	10c00017 	ldw	r3,0(r2)
    108c:	e0bff803 	ldbu	r2,-32(fp)
    1090:	1085883a 	add	r2,r2,r2
    1094:	1085883a 	add	r2,r2,r2
    1098:	1885883a 	add	r2,r3,r2
    109c:	10800017 	ldw	r2,0(r2)
    10a0:	10005226 	beq	r2,zero,11ec <generateCaptureList+0x1a0>
			printf("kaasten\n");
    10a4:	010000b4 	movhi	r4,2
    10a8:	21114704 	addi	r4,r4,17692
    10ac:	00057f00 	call	57f0 <puts>
			VectorCapture * capture = (VectorCapture *)captureVector->data[i];
    10b0:	e0bffc17 	ldw	r2,-16(fp)
    10b4:	10c00017 	ldw	r3,0(r2)
    10b8:	e0bff803 	ldbu	r2,-32(fp)
    10bc:	1085883a 	add	r2,r2,r2
    10c0:	1085883a 	add	r2,r2,r2
    10c4:	1885883a 	add	r2,r3,r2
    10c8:	10800017 	ldw	r2,0(r2)
    10cc:	e0bffa15 	stw	r2,-24(fp)
			struct Move * newMove = malloc(sizeof(struct Move));
    10d0:	01000304 	movi	r4,12
    10d4:	0004b1c0 	call	4b1c <malloc>
    10d8:	e0bffb15 	stw	r2,-20(fp)
			printf("add to move list\n");
    10dc:	010000b4 	movhi	r4,2
    10e0:	21114904 	addi	r4,r4,17700
    10e4:	00057f00 	call	57f0 <puts>
			initMoveList(capture, newMove);
    10e8:	e17ffb17 	ldw	r5,-20(fp)
    10ec:	e13ffa17 	ldw	r4,-24(fp)
    10f0:	0000e600 	call	e60 <initMoveList>
			if(moveList == NULL){
    10f4:	e0bffd17 	ldw	r2,-12(fp)
    10f8:	1000061e 	bne	r2,zero,1114 <generateCaptureList+0xc8>
				printf("NEW LIST\n");
    10fc:	010000b4 	movhi	r4,2
    1100:	21114e04 	addi	r4,r4,17720
    1104:	00057f00 	call	57f0 <puts>
				moveList = newMove;
    1108:	e0bffb17 	ldw	r2,-20(fp)
    110c:	e0bffd15 	stw	r2,-12(fp)
    1110:	00000306 	br	1120 <generateCaptureList+0xd4>
			}else{
				addToMoveList(newMove, moveList);
    1114:	e17ffd17 	ldw	r5,-12(fp)
    1118:	e13ffb17 	ldw	r4,-20(fp)
    111c:	0000ed00 	call	ed0 <addToMoveList>
			}

			if(capture->nextCaptures == NULL || capture->nextCaptures->count == 0){
    1120:	e0bffa17 	ldw	r2,-24(fp)
    1124:	10800017 	ldw	r2,0(r2)
    1128:	10000426 	beq	r2,zero,113c <generateCaptureList+0xf0>
    112c:	e0bffa17 	ldw	r2,-24(fp)
    1130:	10800017 	ldw	r2,0(r2)
    1134:	10800217 	ldw	r2,8(r2)
    1138:	1000071e 	bne	r2,zero,1158 <generateCaptureList+0x10c>
					printf("malloccing vectorMove\n");
				#endif
				#if DEBUG
					printf("mallocced vectorMove\n");
				#endif
				printf("starting copy\n");
    113c:	010000b4 	movhi	r4,2
    1140:	21115104 	addi	r4,r4,17732
    1144:	00057f00 	call	57f0 <puts>

				vectorAdd(moveVector, (void *)moveList);
    1148:	e17ffd17 	ldw	r5,-12(fp)
    114c:	e13ffe17 	ldw	r4,-8(fp)
    1150:	0003ea00 	call	3ea0 <vectorAdd>
    1154:	00002506 	br	11ec <generateCaptureList+0x1a0>
				#if DEBUG
					printf("moves added\n");
				#endif

			}else{
				printf("Of ANDERS\n");
    1158:	010000b4 	movhi	r4,2
    115c:	21115504 	addi	r4,r4,17748
    1160:	00057f00 	call	57f0 <puts>
				struct Move * newMoveList;
				if(countMoveList(moveList) - 2 == depth){
    1164:	e13ffd17 	ldw	r4,-12(fp)
    1168:	00010000 	call	1000 <countMoveList>
    116c:	10803fcc 	andi	r2,r2,255
    1170:	10ffff84 	addi	r3,r2,-2
    1174:	e0bfff03 	ldbu	r2,-4(fp)
    1178:	18800f1e 	bne	r3,r2,11b8 <generateCaptureList+0x16c>
					printf("DIT\n");
    117c:	010000b4 	movhi	r4,2
    1180:	21115804 	addi	r4,r4,17760
    1184:	00057f00 	call	57f0 <puts>
					newMoveList = malloc(sizeof(struct Move));
    1188:	01000304 	movi	r4,12
    118c:	0004b1c0 	call	4b1c <malloc>
    1190:	e0bff915 	stw	r2,-28(fp)
					printf("its the evil wizard again\n");
    1194:	010000b4 	movhi	r4,2
    1198:	21115904 	addi	r4,r4,17764
    119c:	00057f00 	call	57f0 <puts>
					copyMoveList(moveList, newMoveList, depth);
    11a0:	e0bfff03 	ldbu	r2,-4(fp)
    11a4:	100d883a 	mov	r6,r2
    11a8:	e17ff917 	ldw	r5,-28(fp)
    11ac:	e13ffd17 	ldw	r4,-12(fp)
    11b0:	0000f400 	call	f40 <copyMoveList>
    11b4:	00000506 	br	11cc <generateCaptureList+0x180>
				}else{
					printf("DAT\n");
    11b8:	010000b4 	movhi	r4,2
    11bc:	21116004 	addi	r4,r4,17792
    11c0:	00057f00 	call	57f0 <puts>
					newMoveList = moveList;
    11c4:	e0bffd17 	ldw	r2,-12(fp)
    11c8:	e0bff915 	stw	r2,-28(fp)
				}
				generateCaptureList(capture->nextCaptures, newMoveList, moveVector, depth);
    11cc:	e0bffa17 	ldw	r2,-24(fp)
    11d0:	10800017 	ldw	r2,0(r2)
    11d4:	e0ffff03 	ldbu	r3,-4(fp)
    11d8:	180f883a 	mov	r7,r3
    11dc:	e1bffe17 	ldw	r6,-8(fp)
    11e0:	e17ff917 	ldw	r5,-28(fp)
    11e4:	1009883a 	mov	r4,r2
    11e8:	000104c0 	call	104c <generateCaptureList>
	return counter;
}

void generateCaptureList(Vector* captureVector, struct Move * moveList, Vector * moveVector, unsigned char depth){
	depth++;
	for(unsigned char i = 0; i < captureVector->count; i++){
    11ec:	e0bff803 	ldbu	r2,-32(fp)
    11f0:	10800044 	addi	r2,r2,1
    11f4:	e0bff805 	stb	r2,-32(fp)
    11f8:	e0fff803 	ldbu	r3,-32(fp)
    11fc:	e0bffc17 	ldw	r2,-16(fp)
    1200:	10800217 	ldw	r2,8(r2)
    1204:	18bf9f16 	blt	r3,r2,1084 <__alt_data_end+0xfc001084>
				}
				generateCaptureList(capture->nextCaptures, newMoveList, moveVector, depth);
			}
		}
	}
}
    1208:	0001883a 	nop
    120c:	e037883a 	mov	sp,fp
    1210:	dfc00117 	ldw	ra,4(sp)
    1214:	df000017 	ldw	fp,0(sp)
    1218:	dec00204 	addi	sp,sp,8
    121c:	f800283a 	ret

00001220 <manCapture>:

unsigned char manCapture(unsigned char * tempBoard[], unsigned char row, unsigned char field, unsigned char friendly, unsigned char friendlyKing, unsigned char enemy, unsigned char enemyKing){
    1220:	deffd904 	addi	sp,sp,-156
    1224:	dfc02615 	stw	ra,152(sp)
    1228:	df002515 	stw	fp,148(sp)
    122c:	df002504 	addi	fp,sp,148
    1230:	e13ff915 	stw	r4,-28(fp)
    1234:	2811883a 	mov	r8,r5
    1238:	380b883a 	mov	r5,r7
    123c:	e1000217 	ldw	r4,8(fp)
    1240:	e0c00317 	ldw	r3,12(fp)
    1244:	e0800417 	ldw	r2,16(fp)
    1248:	e23ffa05 	stb	r8,-24(fp)
    124c:	e1bffb05 	stb	r6,-20(fp)
    1250:	e17ffc05 	stb	r5,-16(fp)
    1254:	e13ffd05 	stb	r4,-12(fp)
    1258:	e0fffe05 	stb	r3,-8(fp)
    125c:	e0bfff05 	stb	r2,-4(fp)
	unsigned char b[10][10];
	memcpy(b,tempBoard,100);
    1260:	e0bfdf84 	addi	r2,fp,-130
    1264:	01801904 	movi	r6,100
    1268:	e17ff917 	ldw	r5,-28(fp)
    126c:	1009883a 	mov	r4,r2
    1270:	00054340 	call	5434 <memcpy>

	unsigned char possibleEnemyRow, possibleEnemyField, possibleNewRow, possibleNewField;

	for(signed char rowDirection = -1; rowDirection < 2; rowDirection = rowDirection + 2){
    1274:	00bfffc4 	movi	r2,-1
    1278:	e0bfde05 	stb	r2,-136(fp)
    127c:	00007c06 	br	1470 <manCapture+0x250>

		for(signed char fieldDirection = -1; fieldDirection < 2; fieldDirection = fieldDirection + 2){
    1280:	00bfffc4 	movi	r2,-1
    1284:	e0bfde45 	stb	r2,-135(fp)
    1288:	00007306 	br	1458 <manCapture+0x238>

			possibleEnemyRow = row + rowDirection;
    128c:	e0bfde03 	ldbu	r2,-136(fp)
    1290:	e0fffa03 	ldbu	r3,-24(fp)
    1294:	1885883a 	add	r2,r3,r2
    1298:	e0bfde85 	stb	r2,-134(fp)
			possibleEnemyField = field + fieldDirection;
    129c:	e0bfde43 	ldbu	r2,-135(fp)
    12a0:	e0fffb03 	ldbu	r3,-20(fp)
    12a4:	1885883a 	add	r2,r3,r2
    12a8:	e0bfdec5 	stb	r2,-133(fp)

			// Dont check the side for enemies you cant capture them there
			if(possibleEnemyRow > 0 && possibleEnemyRow < 9 && possibleEnemyField > 0 && possibleEnemyField < 9){
    12ac:	e0bfde83 	ldbu	r2,-134(fp)
    12b0:	10006626 	beq	r2,zero,144c <manCapture+0x22c>
    12b4:	e0bfde83 	ldbu	r2,-134(fp)
    12b8:	10800268 	cmpgeui	r2,r2,9
    12bc:	1000631e 	bne	r2,zero,144c <manCapture+0x22c>
    12c0:	e0bfdec3 	ldbu	r2,-133(fp)
    12c4:	10006126 	beq	r2,zero,144c <manCapture+0x22c>
    12c8:	e0bfdec3 	ldbu	r2,-133(fp)
    12cc:	10800268 	cmpgeui	r2,r2,9
    12d0:	10005e1e 	bne	r2,zero,144c <manCapture+0x22c>
			//	printf("%s %d%c", "enemy in range?", board[possibleEnemyRow][possibleEnemyField] == enemy || board[possibleEnemyRow][possibleEnemyField] == enemyKing, '\n');
				if(b[possibleEnemyRow][possibleEnemyField] == enemy || b[possibleEnemyRow][possibleEnemyField] == enemyKing){
    12d4:	e0ffde83 	ldbu	r3,-134(fp)
    12d8:	e0bfdec3 	ldbu	r2,-133(fp)
    12dc:	18c002a4 	muli	r3,r3,10
    12e0:	e13fde04 	addi	r4,fp,-136
    12e4:	20c7883a 	add	r3,r4,r3
    12e8:	1885883a 	add	r2,r3,r2
    12ec:	10800184 	addi	r2,r2,6
    12f0:	10800003 	ldbu	r2,0(r2)
    12f4:	10c03fcc 	andi	r3,r2,255
    12f8:	e0bffe03 	ldbu	r2,-8(fp)
    12fc:	18800b26 	beq	r3,r2,132c <manCapture+0x10c>
    1300:	e0ffde83 	ldbu	r3,-134(fp)
    1304:	e0bfdec3 	ldbu	r2,-133(fp)
    1308:	18c002a4 	muli	r3,r3,10
    130c:	e17fde04 	addi	r5,fp,-136
    1310:	28c7883a 	add	r3,r5,r3
    1314:	1885883a 	add	r2,r3,r2
    1318:	10800184 	addi	r2,r2,6
    131c:	10800003 	ldbu	r2,0(r2)
    1320:	10c03fcc 	andi	r3,r2,255
    1324:	e0bfff03 	ldbu	r2,-4(fp)
    1328:	1880481e 	bne	r3,r2,144c <manCapture+0x22c>

				//	printf("%s %d%c%d%c", "beeb boob enemy detected at",  possibleEnemyRow, '.', possibleEnemyField, '\n');
					possibleNewRow = possibleEnemyRow + rowDirection;
    132c:	e0bfde03 	ldbu	r2,-136(fp)
    1330:	e0ffde83 	ldbu	r3,-134(fp)
    1334:	1885883a 	add	r2,r3,r2
    1338:	e0bfdf05 	stb	r2,-132(fp)
					possibleNewField = possibleEnemyField + fieldDirection;
    133c:	e0bfde43 	ldbu	r2,-135(fp)
    1340:	e0ffdec3 	ldbu	r3,-133(fp)
    1344:	1885883a 	add	r2,r3,r2
    1348:	e0bfdf45 	stb	r2,-131(fp)

					if(b[possibleNewRow][possibleNewField] == BLACK){
    134c:	e0ffdf03 	ldbu	r3,-132(fp)
    1350:	e0bfdf43 	ldbu	r2,-131(fp)
    1354:	18c002a4 	muli	r3,r3,10
    1358:	e13fde04 	addi	r4,fp,-136
    135c:	20c7883a 	add	r3,r4,r3
    1360:	1885883a 	add	r2,r3,r2
    1364:	10800184 	addi	r2,r2,6
    1368:	10800003 	ldbu	r2,0(r2)
    136c:	10803fcc 	andi	r2,r2,255
    1370:	10800058 	cmpnei	r2,r2,1
    1374:	1000351e 	bne	r2,zero,144c <manCapture+0x22c>

					//	printf("charge!!!!!!!!!\n");
						b[possibleNewRow][possibleNewField] = board[row][field];
    1378:	e17fdf03 	ldbu	r5,-132(fp)
    137c:	e13fdf43 	ldbu	r4,-131(fp)
    1380:	e1bffa03 	ldbu	r6,-24(fp)
    1384:	e0fffb03 	ldbu	r3,-20(fp)
    1388:	008000f4 	movhi	r2,3
    138c:	10a1e604 	addi	r2,r2,-30824
    1390:	318002a4 	muli	r6,r6,10
    1394:	1185883a 	add	r2,r2,r6
    1398:	10c5883a 	add	r2,r2,r3
    139c:	10c00003 	ldbu	r3,0(r2)
    13a0:	288002a4 	muli	r2,r5,10
    13a4:	e17fde04 	addi	r5,fp,-136
    13a8:	2885883a 	add	r2,r5,r2
    13ac:	1105883a 	add	r2,r2,r4
    13b0:	10800184 	addi	r2,r2,6
    13b4:	10c00005 	stb	r3,0(r2)
						b[row][field] = BLACK;
    13b8:	e0fffa03 	ldbu	r3,-24(fp)
    13bc:	e0bffb03 	ldbu	r2,-20(fp)
    13c0:	18c002a4 	muli	r3,r3,10
    13c4:	e13fde04 	addi	r4,fp,-136
    13c8:	20c7883a 	add	r3,r4,r3
    13cc:	1885883a 	add	r2,r3,r2
    13d0:	10800184 	addi	r2,r2,6
    13d4:	00c00044 	movi	r3,1
    13d8:	10c00005 	stb	r3,0(r2)
						b[possibleEnemyRow][possibleEnemyField] = BLACK;
    13dc:	e0ffde83 	ldbu	r3,-134(fp)
    13e0:	e0bfdec3 	ldbu	r2,-133(fp)
    13e4:	18c002a4 	muli	r3,r3,10
    13e8:	e17fde04 	addi	r5,fp,-136
    13ec:	28c7883a 	add	r3,r5,r3
    13f0:	1885883a 	add	r2,r3,r2
    13f4:	10800184 	addi	r2,r2,6
    13f8:	00c00044 	movi	r3,1
    13fc:	10c00005 	stb	r3,0(r2)
							printBoard((unsigned char **)b,possibleNewRow, possibleNewField, row, field);
							printf("%s %d %s %d%c", "old row", row, "old field", field,'\n');
							printf("%s %d %s %d%c", "new row", possibleNewRow, "new field", possibleNewField,'\n');
						#endif
						//printCountPieces();
						manCapture((unsigned char **)b, possibleNewRow, possibleNewField, friendly, friendlyKing, enemy, enemyKing);
    1400:	e17fdf03 	ldbu	r5,-132(fp)
    1404:	e1bfdf43 	ldbu	r6,-131(fp)
    1408:	e1fffc03 	ldbu	r7,-16(fp)
    140c:	e0bffd03 	ldbu	r2,-12(fp)
    1410:	e0fffe03 	ldbu	r3,-8(fp)
    1414:	e13fff03 	ldbu	r4,-4(fp)
    1418:	e23fdf84 	addi	r8,fp,-130
    141c:	d9000215 	stw	r4,8(sp)
    1420:	d8c00115 	stw	r3,4(sp)
    1424:	d8800015 	stw	r2,0(sp)
    1428:	4009883a 	mov	r4,r8
    142c:	00012200 	call	1220 <manCapture>
						memcpy(tempBoard,b,100);
    1430:	e0bfdf84 	addi	r2,fp,-130
    1434:	01801904 	movi	r6,100
    1438:	100b883a 	mov	r5,r2
    143c:	e13ff917 	ldw	r4,-28(fp)
    1440:	00054340 	call	5434 <memcpy>
						return 1;
    1444:	00800044 	movi	r2,1
    1448:	00000d06 	br	1480 <manCapture+0x260>

	unsigned char possibleEnemyRow, possibleEnemyField, possibleNewRow, possibleNewField;

	for(signed char rowDirection = -1; rowDirection < 2; rowDirection = rowDirection + 2){

		for(signed char fieldDirection = -1; fieldDirection < 2; fieldDirection = fieldDirection + 2){
    144c:	e0bfde43 	ldbu	r2,-135(fp)
    1450:	10800084 	addi	r2,r2,2
    1454:	e0bfde45 	stb	r2,-135(fp)
    1458:	e0bfde47 	ldb	r2,-135(fp)
    145c:	10800090 	cmplti	r2,r2,2
    1460:	103f8a1e 	bne	r2,zero,128c <__alt_data_end+0xfc00128c>
	unsigned char b[10][10];
	memcpy(b,tempBoard,100);

	unsigned char possibleEnemyRow, possibleEnemyField, possibleNewRow, possibleNewField;

	for(signed char rowDirection = -1; rowDirection < 2; rowDirection = rowDirection + 2){
    1464:	e0bfde03 	ldbu	r2,-136(fp)
    1468:	10800084 	addi	r2,r2,2
    146c:	e0bfde05 	stb	r2,-136(fp)
    1470:	e0bfde07 	ldb	r2,-136(fp)
    1474:	10800090 	cmplti	r2,r2,2
    1478:	103f811e 	bne	r2,zero,1280 <__alt_data_end+0xfc001280>
					}
				}
			}
		}
	}
	return 0;
    147c:	0005883a 	mov	r2,zero
}
    1480:	e037883a 	mov	sp,fp
    1484:	dfc00117 	ldw	ra,4(sp)
    1488:	df000017 	ldw	fp,0(sp)
    148c:	dec00204 	addi	sp,sp,8
    1490:	f800283a 	ret

00001494 <checkIfCanMove>:
	}
	return 0;
}
*/

int checkIfCanMove(unsigned char * tempBoard[], int row, int field, int dir, unsigned char friendly, unsigned char friendlyKing, unsigned char enemy, unsigned char enemyKing, signed direction){
    1494:	deffdb04 	addi	sp,sp,-148
    1498:	dfc02415 	stw	ra,144(sp)
    149c:	df002315 	stw	fp,140(sp)
    14a0:	df002304 	addi	fp,sp,140
    14a4:	e13ff815 	stw	r4,-32(fp)
    14a8:	e17ff915 	stw	r5,-28(fp)
    14ac:	e1bffa15 	stw	r6,-24(fp)
    14b0:	e1fffb15 	stw	r7,-20(fp)
    14b4:	e1400217 	ldw	r5,8(fp)
    14b8:	e1000317 	ldw	r4,12(fp)
    14bc:	e0c00417 	ldw	r3,16(fp)
    14c0:	e0800517 	ldw	r2,20(fp)
    14c4:	e17ffc05 	stb	r5,-16(fp)
    14c8:	e13ffd05 	stb	r4,-12(fp)
    14cc:	e0fffe05 	stb	r3,-8(fp)
    14d0:	e0bfff05 	stb	r2,-4(fp)

	int retVal = 0;
    14d4:	e03fdd15 	stw	zero,-140(fp)

	unsigned char b[10][10];
	memcpy(b,tempBoard,100);
    14d8:	e0bfdf04 	addi	r2,fp,-132
    14dc:	01801904 	movi	r6,100
    14e0:	e17ff817 	ldw	r5,-32(fp)
    14e4:	1009883a 	mov	r4,r2
    14e8:	00054340 	call	5434 <memcpy>

	int stone = b[row][field];
    14ec:	e0bff917 	ldw	r2,-28(fp)
    14f0:	108002a4 	muli	r2,r2,10
    14f4:	e13fdd04 	addi	r4,fp,-140
    14f8:	2087883a 	add	r3,r4,r2
    14fc:	e0bffa17 	ldw	r2,-24(fp)
    1500:	1885883a 	add	r2,r3,r2
    1504:	10800204 	addi	r2,r2,8
    1508:	10800003 	ldbu	r2,0(r2)
    150c:	10803fcc 	andi	r2,r2,255
    1510:	e0bfde15 	stw	r2,-136(fp)

	if(stone == FRIENDLY || stone == ENEMY)
    1514:	e0bfde17 	ldw	r2,-136(fp)
    1518:	108000a0 	cmpeqi	r2,r2,2
    151c:	1000031e 	bne	r2,zero,152c <checkIfCanMove+0x98>
    1520:	e0bfde17 	ldw	r2,-136(fp)
    1524:	10800118 	cmpnei	r2,r2,4
    1528:	10005a1e 	bne	r2,zero,1694 <checkIfCanMove+0x200>
	{
		if(direction == FRIENDLYDIRECTION)
    152c:	e0800617 	ldw	r2,24(fp)
    1530:	10bfffd8 	cmpnei	r2,r2,-1
    1534:	10002a1e 	bne	r2,zero,15e0 <checkIfCanMove+0x14c>
		{
			if(dir == 1)
    1538:	e0bffb17 	ldw	r2,-20(fp)
    153c:	10800058 	cmpnei	r2,r2,1
    1540:	1000121e 	bne	r2,zero,158c <checkIfCanMove+0xf8>
			{
				if(b[row-1][field-1] == BLACK) retVal = 1;
    1544:	e0bff917 	ldw	r2,-28(fp)
    1548:	10ffffc4 	addi	r3,r2,-1
    154c:	e0bffa17 	ldw	r2,-24(fp)
    1550:	10bfffc4 	addi	r2,r2,-1
    1554:	18c002a4 	muli	r3,r3,10
    1558:	e13fdd04 	addi	r4,fp,-140
    155c:	20c7883a 	add	r3,r4,r3
    1560:	1885883a 	add	r2,r3,r2
    1564:	10800204 	addi	r2,r2,8
    1568:	10800003 	ldbu	r2,0(r2)
    156c:	10803fcc 	andi	r2,r2,255
    1570:	10800058 	cmpnei	r2,r2,1
    1574:	1000031e 	bne	r2,zero,1584 <checkIfCanMove+0xf0>
    1578:	00800044 	movi	r2,1
    157c:	e0bfdd15 	stw	r2,-140(fp)

	int stone = b[row][field];

	if(stone == FRIENDLY || stone == ENEMY)
	{
		if(direction == FRIENDLYDIRECTION)
    1580:	00009706 	br	17e0 <checkIfCanMove+0x34c>
		{
			if(dir == 1)
			{
				if(b[row-1][field-1] == BLACK) retVal = 1;
				else retVal = 0;
    1584:	e03fdd15 	stw	zero,-140(fp)

	int stone = b[row][field];

	if(stone == FRIENDLY || stone == ENEMY)
	{
		if(direction == FRIENDLYDIRECTION)
    1588:	00009506 	br	17e0 <checkIfCanMove+0x34c>
			if(dir == 1)
			{
				if(b[row-1][field-1] == BLACK) retVal = 1;
				else retVal = 0;
			}
			else if(dir == 2)
    158c:	e0bffb17 	ldw	r2,-20(fp)
    1590:	10800098 	cmpnei	r2,r2,2
    1594:	1000921e 	bne	r2,zero,17e0 <checkIfCanMove+0x34c>
			{
				if(b[row-1][field+1] == BLACK) retVal = 1;
    1598:	e0bff917 	ldw	r2,-28(fp)
    159c:	10ffffc4 	addi	r3,r2,-1
    15a0:	e0bffa17 	ldw	r2,-24(fp)
    15a4:	10800044 	addi	r2,r2,1
    15a8:	18c002a4 	muli	r3,r3,10
    15ac:	e13fdd04 	addi	r4,fp,-140
    15b0:	20c7883a 	add	r3,r4,r3
    15b4:	1885883a 	add	r2,r3,r2
    15b8:	10800204 	addi	r2,r2,8
    15bc:	10800003 	ldbu	r2,0(r2)
    15c0:	10803fcc 	andi	r2,r2,255
    15c4:	10800058 	cmpnei	r2,r2,1
    15c8:	1000031e 	bne	r2,zero,15d8 <checkIfCanMove+0x144>
    15cc:	00800044 	movi	r2,1
    15d0:	e0bfdd15 	stw	r2,-140(fp)

	int stone = b[row][field];

	if(stone == FRIENDLY || stone == ENEMY)
	{
		if(direction == FRIENDLYDIRECTION)
    15d4:	00008206 	br	17e0 <checkIfCanMove+0x34c>
				else retVal = 0;
			}
			else if(dir == 2)
			{
				if(b[row-1][field+1] == BLACK) retVal = 1;
				else retVal = 0;
    15d8:	e03fdd15 	stw	zero,-140(fp)

	int stone = b[row][field];

	if(stone == FRIENDLY || stone == ENEMY)
	{
		if(direction == FRIENDLYDIRECTION)
    15dc:	00008006 	br	17e0 <checkIfCanMove+0x34c>
			{
				if(b[row-1][field+1] == BLACK) retVal = 1;
				else retVal = 0;
			}
		}
		else if(direction == ENEMYDIRECTION)
    15e0:	e0800617 	ldw	r2,24(fp)
    15e4:	10800058 	cmpnei	r2,r2,1
    15e8:	10007d1e 	bne	r2,zero,17e0 <checkIfCanMove+0x34c>
		{
			if(dir == 3)
    15ec:	e0bffb17 	ldw	r2,-20(fp)
    15f0:	108000d8 	cmpnei	r2,r2,3
    15f4:	1000121e 	bne	r2,zero,1640 <checkIfCanMove+0x1ac>
			{
				if(b[row+1][field-1] == BLACK) retVal = 1;
    15f8:	e0bff917 	ldw	r2,-28(fp)
    15fc:	10c00044 	addi	r3,r2,1
    1600:	e0bffa17 	ldw	r2,-24(fp)
    1604:	10bfffc4 	addi	r2,r2,-1
    1608:	18c002a4 	muli	r3,r3,10
    160c:	e13fdd04 	addi	r4,fp,-140
    1610:	20c7883a 	add	r3,r4,r3
    1614:	1885883a 	add	r2,r3,r2
    1618:	10800204 	addi	r2,r2,8
    161c:	10800003 	ldbu	r2,0(r2)
    1620:	10803fcc 	andi	r2,r2,255
    1624:	10800058 	cmpnei	r2,r2,1
    1628:	1000031e 	bne	r2,zero,1638 <checkIfCanMove+0x1a4>
    162c:	00800044 	movi	r2,1
    1630:	e0bfdd15 	stw	r2,-140(fp)

	int stone = b[row][field];

	if(stone == FRIENDLY || stone == ENEMY)
	{
		if(direction == FRIENDLYDIRECTION)
    1634:	00006a06 	br	17e0 <checkIfCanMove+0x34c>
		else if(direction == ENEMYDIRECTION)
		{
			if(dir == 3)
			{
				if(b[row+1][field-1] == BLACK) retVal = 1;
				else retVal = 0;
    1638:	e03fdd15 	stw	zero,-140(fp)

	int stone = b[row][field];

	if(stone == FRIENDLY || stone == ENEMY)
	{
		if(direction == FRIENDLYDIRECTION)
    163c:	00006806 	br	17e0 <checkIfCanMove+0x34c>
			if(dir == 3)
			{
				if(b[row+1][field-1] == BLACK) retVal = 1;
				else retVal = 0;
			}
			else if(dir == 4)
    1640:	e0bffb17 	ldw	r2,-20(fp)
    1644:	10800118 	cmpnei	r2,r2,4
    1648:	1000651e 	bne	r2,zero,17e0 <checkIfCanMove+0x34c>
			{
				if(b[row+1][field+1] == BLACK) retVal = 1;
    164c:	e0bff917 	ldw	r2,-28(fp)
    1650:	10c00044 	addi	r3,r2,1
    1654:	e0bffa17 	ldw	r2,-24(fp)
    1658:	10800044 	addi	r2,r2,1
    165c:	18c002a4 	muli	r3,r3,10
    1660:	e13fdd04 	addi	r4,fp,-140
    1664:	20c7883a 	add	r3,r4,r3
    1668:	1885883a 	add	r2,r3,r2
    166c:	10800204 	addi	r2,r2,8
    1670:	10800003 	ldbu	r2,0(r2)
    1674:	10803fcc 	andi	r2,r2,255
    1678:	10800058 	cmpnei	r2,r2,1
    167c:	1000031e 	bne	r2,zero,168c <checkIfCanMove+0x1f8>
    1680:	00800044 	movi	r2,1
    1684:	e0bfdd15 	stw	r2,-140(fp)

	int stone = b[row][field];

	if(stone == FRIENDLY || stone == ENEMY)
	{
		if(direction == FRIENDLYDIRECTION)
    1688:	00005506 	br	17e0 <checkIfCanMove+0x34c>
				else retVal = 0;
			}
			else if(dir == 4)
			{
				if(b[row+1][field+1] == BLACK) retVal = 1;
				else retVal = 0;
    168c:	e03fdd15 	stw	zero,-140(fp)

	int stone = b[row][field];

	if(stone == FRIENDLY || stone == ENEMY)
	{
		if(direction == FRIENDLYDIRECTION)
    1690:	00005306 	br	17e0 <checkIfCanMove+0x34c>
				if(b[row+1][field+1] == BLACK) retVal = 1;
				else retVal = 0;
			}
		}
	}
	else if(stone == FRIENDLYKING || stone == ENEMYKING)
    1694:	e0bfde17 	ldw	r2,-136(fp)
    1698:	108000e0 	cmpeqi	r2,r2,3
    169c:	1000031e 	bne	r2,zero,16ac <checkIfCanMove+0x218>
    16a0:	e0bfde17 	ldw	r2,-136(fp)
    16a4:	10800158 	cmpnei	r2,r2,5
    16a8:	1000561e 	bne	r2,zero,1804 <checkIfCanMove+0x370>
	{
		switch(dir)
    16ac:	e0bffb17 	ldw	r2,-20(fp)
    16b0:	10c000a0 	cmpeqi	r3,r2,2
    16b4:	18001a1e 	bne	r3,zero,1720 <checkIfCanMove+0x28c>
    16b8:	10c000c8 	cmpgei	r3,r2,3
    16bc:	1800031e 	bne	r3,zero,16cc <checkIfCanMove+0x238>
    16c0:	10800060 	cmpeqi	r2,r2,1
    16c4:	1000061e 	bne	r2,zero,16e0 <checkIfCanMove+0x24c>
    16c8:	00004e06 	br	1804 <checkIfCanMove+0x370>
    16cc:	10c000e0 	cmpeqi	r3,r2,3
    16d0:	1800231e 	bne	r3,zero,1760 <checkIfCanMove+0x2cc>
    16d4:	10800120 	cmpeqi	r2,r2,4
    16d8:	1000311e 	bne	r2,zero,17a0 <checkIfCanMove+0x30c>
    16dc:	00004906 	br	1804 <checkIfCanMove+0x370>
		{
			case 1:
				if(b[row-1][field-1] == BLACK) retVal = 1;
    16e0:	e0bff917 	ldw	r2,-28(fp)
    16e4:	10ffffc4 	addi	r3,r2,-1
    16e8:	e0bffa17 	ldw	r2,-24(fp)
    16ec:	10bfffc4 	addi	r2,r2,-1
    16f0:	18c002a4 	muli	r3,r3,10
    16f4:	e13fdd04 	addi	r4,fp,-140
    16f8:	20c7883a 	add	r3,r4,r3
    16fc:	1885883a 	add	r2,r3,r2
    1700:	10800204 	addi	r2,r2,8
    1704:	10800003 	ldbu	r2,0(r2)
    1708:	10803fcc 	andi	r2,r2,255
    170c:	10800058 	cmpnei	r2,r2,1
    1710:	1000351e 	bne	r2,zero,17e8 <checkIfCanMove+0x354>
    1714:	00800044 	movi	r2,1
    1718:	e0bfdd15 	stw	r2,-140(fp)
				break;
    171c:	00003206 	br	17e8 <checkIfCanMove+0x354>
			case 2:
				if(b[row-1][field+1] == BLACK) retVal = 1;
    1720:	e0bff917 	ldw	r2,-28(fp)
    1724:	10ffffc4 	addi	r3,r2,-1
    1728:	e0bffa17 	ldw	r2,-24(fp)
    172c:	10800044 	addi	r2,r2,1
    1730:	18c002a4 	muli	r3,r3,10
    1734:	e13fdd04 	addi	r4,fp,-140
    1738:	20c7883a 	add	r3,r4,r3
    173c:	1885883a 	add	r2,r3,r2
    1740:	10800204 	addi	r2,r2,8
    1744:	10800003 	ldbu	r2,0(r2)
    1748:	10803fcc 	andi	r2,r2,255
    174c:	10800058 	cmpnei	r2,r2,1
    1750:	1000271e 	bne	r2,zero,17f0 <checkIfCanMove+0x35c>
    1754:	00800044 	movi	r2,1
    1758:	e0bfdd15 	stw	r2,-140(fp)
				break;
    175c:	00002406 	br	17f0 <checkIfCanMove+0x35c>
			case 3:
				if(b[row+1][field-1] == BLACK) retVal = 1;
    1760:	e0bff917 	ldw	r2,-28(fp)
    1764:	10c00044 	addi	r3,r2,1
    1768:	e0bffa17 	ldw	r2,-24(fp)
    176c:	10bfffc4 	addi	r2,r2,-1
    1770:	18c002a4 	muli	r3,r3,10
    1774:	e13fdd04 	addi	r4,fp,-140
    1778:	20c7883a 	add	r3,r4,r3
    177c:	1885883a 	add	r2,r3,r2
    1780:	10800204 	addi	r2,r2,8
    1784:	10800003 	ldbu	r2,0(r2)
    1788:	10803fcc 	andi	r2,r2,255
    178c:	10800058 	cmpnei	r2,r2,1
    1790:	1000191e 	bne	r2,zero,17f8 <checkIfCanMove+0x364>
    1794:	00800044 	movi	r2,1
    1798:	e0bfdd15 	stw	r2,-140(fp)
				break;
    179c:	00001606 	br	17f8 <checkIfCanMove+0x364>
			case 4:
				if(b[row+1][field+1] == BLACK) retVal = 1;
    17a0:	e0bff917 	ldw	r2,-28(fp)
    17a4:	10c00044 	addi	r3,r2,1
    17a8:	e0bffa17 	ldw	r2,-24(fp)
    17ac:	10800044 	addi	r2,r2,1
    17b0:	18c002a4 	muli	r3,r3,10
    17b4:	e13fdd04 	addi	r4,fp,-140
    17b8:	20c7883a 	add	r3,r4,r3
    17bc:	1885883a 	add	r2,r3,r2
    17c0:	10800204 	addi	r2,r2,8
    17c4:	10800003 	ldbu	r2,0(r2)
    17c8:	10803fcc 	andi	r2,r2,255
    17cc:	10800058 	cmpnei	r2,r2,1
    17d0:	10000b1e 	bne	r2,zero,1800 <checkIfCanMove+0x36c>
    17d4:	00800044 	movi	r2,1
    17d8:	e0bfdd15 	stw	r2,-140(fp)
				break;
    17dc:	00000806 	br	1800 <checkIfCanMove+0x36c>

	int stone = b[row][field];

	if(stone == FRIENDLY || stone == ENEMY)
	{
		if(direction == FRIENDLYDIRECTION)
    17e0:	0001883a 	nop
    17e4:	00000706 	br	1804 <checkIfCanMove+0x370>
	{
		switch(dir)
		{
			case 1:
				if(b[row-1][field-1] == BLACK) retVal = 1;
				break;
    17e8:	0001883a 	nop
    17ec:	00000506 	br	1804 <checkIfCanMove+0x370>
			case 2:
				if(b[row-1][field+1] == BLACK) retVal = 1;
				break;
    17f0:	0001883a 	nop
    17f4:	00000306 	br	1804 <checkIfCanMove+0x370>
			case 3:
				if(b[row+1][field-1] == BLACK) retVal = 1;
				break;
    17f8:	0001883a 	nop
    17fc:	00000106 	br	1804 <checkIfCanMove+0x370>
			case 4:
				if(b[row+1][field+1] == BLACK) retVal = 1;
				break;
    1800:	0001883a 	nop
		}
	}

	return retVal;
    1804:	e0bfdd17 	ldw	r2,-140(fp)
}
    1808:	e037883a 	mov	sp,fp
    180c:	dfc00117 	ldw	ra,4(sp)
    1810:	df000017 	ldw	fp,0(sp)
    1814:	dec00204 	addi	sp,sp,8
    1818:	f800283a 	ret

0000181c <capture>:

//TODO: make this obsolete, replace with manCapture
int capture(int row,int field,int king){
    181c:	defffc04 	addi	sp,sp,-16
    1820:	df000315 	stw	fp,12(sp)
    1824:	df000304 	addi	fp,sp,12
    1828:	e13ffd15 	stw	r4,-12(fp)
    182c:	e17ffe15 	stw	r5,-8(fp)
    1830:	e1bfff15 	stw	r6,-4(fp)

	if((board[row-1][field-1] == ENEMY || board[row-1][field-1] == ENEMYKING)
    1834:	e0bffd17 	ldw	r2,-12(fp)
    1838:	113fffc4 	addi	r4,r2,-1
    183c:	e0bffe17 	ldw	r2,-8(fp)
    1840:	10ffffc4 	addi	r3,r2,-1
    1844:	008000f4 	movhi	r2,3
    1848:	10a1e604 	addi	r2,r2,-30824
    184c:	210002a4 	muli	r4,r4,10
    1850:	1105883a 	add	r2,r2,r4
    1854:	10c5883a 	add	r2,r2,r3
    1858:	10800003 	ldbu	r2,0(r2)
    185c:	10803fcc 	andi	r2,r2,255
    1860:	10800120 	cmpeqi	r2,r2,4
    1864:	10000d1e 	bne	r2,zero,189c <capture+0x80>
    1868:	e0bffd17 	ldw	r2,-12(fp)
    186c:	113fffc4 	addi	r4,r2,-1
    1870:	e0bffe17 	ldw	r2,-8(fp)
    1874:	10ffffc4 	addi	r3,r2,-1
    1878:	008000f4 	movhi	r2,3
    187c:	10a1e604 	addi	r2,r2,-30824
    1880:	210002a4 	muli	r4,r4,10
    1884:	1105883a 	add	r2,r2,r4
    1888:	10c5883a 	add	r2,r2,r3
    188c:	10800003 	ldbu	r2,0(r2)
    1890:	10803fcc 	andi	r2,r2,255
    1894:	10800158 	cmpnei	r2,r2,5
    1898:	1000421e 	bne	r2,zero,19a4 <capture+0x188>
	&&
	(board[row-2][field-2] == BLACK || board[row-2][field-2] == BLACK)){
    189c:	e0bffd17 	ldw	r2,-12(fp)
    18a0:	113fff84 	addi	r4,r2,-2
    18a4:	e0bffe17 	ldw	r2,-8(fp)
    18a8:	10ffff84 	addi	r3,r2,-2
    18ac:	008000f4 	movhi	r2,3
    18b0:	10a1e604 	addi	r2,r2,-30824
    18b4:	210002a4 	muli	r4,r4,10
    18b8:	1105883a 	add	r2,r2,r4
    18bc:	10c5883a 	add	r2,r2,r3
    18c0:	10800003 	ldbu	r2,0(r2)

//TODO: make this obsolete, replace with manCapture
int capture(int row,int field,int king){

	if((board[row-1][field-1] == ENEMY || board[row-1][field-1] == ENEMYKING)
	&&
    18c4:	10803fcc 	andi	r2,r2,255
    18c8:	10800060 	cmpeqi	r2,r2,1
    18cc:	10000d1e 	bne	r2,zero,1904 <capture+0xe8>
	(board[row-2][field-2] == BLACK || board[row-2][field-2] == BLACK)){
    18d0:	e0bffd17 	ldw	r2,-12(fp)
    18d4:	113fff84 	addi	r4,r2,-2
    18d8:	e0bffe17 	ldw	r2,-8(fp)
    18dc:	10ffff84 	addi	r3,r2,-2
    18e0:	008000f4 	movhi	r2,3
    18e4:	10a1e604 	addi	r2,r2,-30824
    18e8:	210002a4 	muli	r4,r4,10
    18ec:	1105883a 	add	r2,r2,r4
    18f0:	10c5883a 	add	r2,r2,r3
    18f4:	10800003 	ldbu	r2,0(r2)
    18f8:	10803fcc 	andi	r2,r2,255
    18fc:	10800058 	cmpnei	r2,r2,1
    1900:	1000281e 	bne	r2,zero,19a4 <capture+0x188>

		board[row-2][field-2] = board[row][field];
    1904:	e0bffd17 	ldw	r2,-12(fp)
    1908:	117fff84 	addi	r5,r2,-2
    190c:	e0bffe17 	ldw	r2,-8(fp)
    1910:	113fff84 	addi	r4,r2,-2
    1914:	008000f4 	movhi	r2,3
    1918:	10a1e604 	addi	r2,r2,-30824
    191c:	e0fffd17 	ldw	r3,-12(fp)
    1920:	18c002a4 	muli	r3,r3,10
    1924:	10c7883a 	add	r3,r2,r3
    1928:	e0bffe17 	ldw	r2,-8(fp)
    192c:	1885883a 	add	r2,r3,r2
    1930:	10c00003 	ldbu	r3,0(r2)
    1934:	008000f4 	movhi	r2,3
    1938:	10a1e604 	addi	r2,r2,-30824
    193c:	294002a4 	muli	r5,r5,10
    1940:	1145883a 	add	r2,r2,r5
    1944:	1105883a 	add	r2,r2,r4
    1948:	10c00005 	stb	r3,0(r2)
		board[row-1][field-1] = BLACK;
    194c:	e0bffd17 	ldw	r2,-12(fp)
    1950:	113fffc4 	addi	r4,r2,-1
    1954:	e0bffe17 	ldw	r2,-8(fp)
    1958:	10ffffc4 	addi	r3,r2,-1
    195c:	008000f4 	movhi	r2,3
    1960:	10a1e604 	addi	r2,r2,-30824
    1964:	210002a4 	muli	r4,r4,10
    1968:	1105883a 	add	r2,r2,r4
    196c:	10c5883a 	add	r2,r2,r3
    1970:	00c00044 	movi	r3,1
    1974:	10c00005 	stb	r3,0(r2)
		board[row][field] = BLACK;
    1978:	008000f4 	movhi	r2,3
    197c:	10a1e604 	addi	r2,r2,-30824
    1980:	e0fffd17 	ldw	r3,-12(fp)
    1984:	18c002a4 	muli	r3,r3,10
    1988:	10c7883a 	add	r3,r2,r3
    198c:	e0bffe17 	ldw	r2,-8(fp)
    1990:	1885883a 	add	r2,r3,r2
    1994:	00c00044 	movi	r3,1
    1998:	10c00005 	stb	r3,0(r2)
		#if DEBUG
			printBoard((unsigned char **)board,row-2,field-2,row,field);
		#endif
		return 1;
    199c:	00800044 	movi	r2,1
    19a0:	00011506 	br	1df8 <capture+0x5dc>
	}

	else if((board[row-1][field+1] == ENEMY || board[row-1][field+1] == ENEMYKING)
    19a4:	e0bffd17 	ldw	r2,-12(fp)
    19a8:	113fffc4 	addi	r4,r2,-1
    19ac:	e0bffe17 	ldw	r2,-8(fp)
    19b0:	10c00044 	addi	r3,r2,1
    19b4:	008000f4 	movhi	r2,3
    19b8:	10a1e604 	addi	r2,r2,-30824
    19bc:	210002a4 	muli	r4,r4,10
    19c0:	1105883a 	add	r2,r2,r4
    19c4:	10c5883a 	add	r2,r2,r3
    19c8:	10800003 	ldbu	r2,0(r2)
    19cc:	10803fcc 	andi	r2,r2,255
    19d0:	10800120 	cmpeqi	r2,r2,4
    19d4:	10000d1e 	bne	r2,zero,1a0c <capture+0x1f0>
    19d8:	e0bffd17 	ldw	r2,-12(fp)
    19dc:	113fffc4 	addi	r4,r2,-1
    19e0:	e0bffe17 	ldw	r2,-8(fp)
    19e4:	10c00044 	addi	r3,r2,1
    19e8:	008000f4 	movhi	r2,3
    19ec:	10a1e604 	addi	r2,r2,-30824
    19f0:	210002a4 	muli	r4,r4,10
    19f4:	1105883a 	add	r2,r2,r4
    19f8:	10c5883a 	add	r2,r2,r3
    19fc:	10800003 	ldbu	r2,0(r2)
    1a00:	10803fcc 	andi	r2,r2,255
    1a04:	10800158 	cmpnei	r2,r2,5
    1a08:	1000421e 	bne	r2,zero,1b14 <capture+0x2f8>
	&&
	(board[row-2][field+2] == BLACK || board[row-2][field+2] == BLACK)){
    1a0c:	e0bffd17 	ldw	r2,-12(fp)
    1a10:	113fff84 	addi	r4,r2,-2
    1a14:	e0bffe17 	ldw	r2,-8(fp)
    1a18:	10c00084 	addi	r3,r2,2
    1a1c:	008000f4 	movhi	r2,3
    1a20:	10a1e604 	addi	r2,r2,-30824
    1a24:	210002a4 	muli	r4,r4,10
    1a28:	1105883a 	add	r2,r2,r4
    1a2c:	10c5883a 	add	r2,r2,r3
    1a30:	10800003 	ldbu	r2,0(r2)
		#endif
		return 1;
	}

	else if((board[row-1][field+1] == ENEMY || board[row-1][field+1] == ENEMYKING)
	&&
    1a34:	10803fcc 	andi	r2,r2,255
    1a38:	10800060 	cmpeqi	r2,r2,1
    1a3c:	10000d1e 	bne	r2,zero,1a74 <capture+0x258>
	(board[row-2][field+2] == BLACK || board[row-2][field+2] == BLACK)){
    1a40:	e0bffd17 	ldw	r2,-12(fp)
    1a44:	113fff84 	addi	r4,r2,-2
    1a48:	e0bffe17 	ldw	r2,-8(fp)
    1a4c:	10c00084 	addi	r3,r2,2
    1a50:	008000f4 	movhi	r2,3
    1a54:	10a1e604 	addi	r2,r2,-30824
    1a58:	210002a4 	muli	r4,r4,10
    1a5c:	1105883a 	add	r2,r2,r4
    1a60:	10c5883a 	add	r2,r2,r3
    1a64:	10800003 	ldbu	r2,0(r2)
    1a68:	10803fcc 	andi	r2,r2,255
    1a6c:	10800058 	cmpnei	r2,r2,1
    1a70:	1000281e 	bne	r2,zero,1b14 <capture+0x2f8>

		board[row-2][field+2] = board[row][field];
    1a74:	e0bffd17 	ldw	r2,-12(fp)
    1a78:	117fff84 	addi	r5,r2,-2
    1a7c:	e0bffe17 	ldw	r2,-8(fp)
    1a80:	11000084 	addi	r4,r2,2
    1a84:	008000f4 	movhi	r2,3
    1a88:	10a1e604 	addi	r2,r2,-30824
    1a8c:	e0fffd17 	ldw	r3,-12(fp)
    1a90:	18c002a4 	muli	r3,r3,10
    1a94:	10c7883a 	add	r3,r2,r3
    1a98:	e0bffe17 	ldw	r2,-8(fp)
    1a9c:	1885883a 	add	r2,r3,r2
    1aa0:	10c00003 	ldbu	r3,0(r2)
    1aa4:	008000f4 	movhi	r2,3
    1aa8:	10a1e604 	addi	r2,r2,-30824
    1aac:	294002a4 	muli	r5,r5,10
    1ab0:	1145883a 	add	r2,r2,r5
    1ab4:	1105883a 	add	r2,r2,r4
    1ab8:	10c00005 	stb	r3,0(r2)
		board[row-1][field+1] = BLACK;
    1abc:	e0bffd17 	ldw	r2,-12(fp)
    1ac0:	113fffc4 	addi	r4,r2,-1
    1ac4:	e0bffe17 	ldw	r2,-8(fp)
    1ac8:	10c00044 	addi	r3,r2,1
    1acc:	008000f4 	movhi	r2,3
    1ad0:	10a1e604 	addi	r2,r2,-30824
    1ad4:	210002a4 	muli	r4,r4,10
    1ad8:	1105883a 	add	r2,r2,r4
    1adc:	10c5883a 	add	r2,r2,r3
    1ae0:	00c00044 	movi	r3,1
    1ae4:	10c00005 	stb	r3,0(r2)
		board[row][field] = BLACK;
    1ae8:	008000f4 	movhi	r2,3
    1aec:	10a1e604 	addi	r2,r2,-30824
    1af0:	e0fffd17 	ldw	r3,-12(fp)
    1af4:	18c002a4 	muli	r3,r3,10
    1af8:	10c7883a 	add	r3,r2,r3
    1afc:	e0bffe17 	ldw	r2,-8(fp)
    1b00:	1885883a 	add	r2,r3,r2
    1b04:	00c00044 	movi	r3,1
    1b08:	10c00005 	stb	r3,0(r2)
		#if DEBUG
			printBoard((unsigned char **)board,row-2,field+2,row,field);
		#endif
		return 1;
    1b0c:	00800044 	movi	r2,1
    1b10:	0000b906 	br	1df8 <capture+0x5dc>
	}

	else if((board[row+1][field-1] == ENEMY || board[row+1][field-1] == ENEMYKING)
    1b14:	e0bffd17 	ldw	r2,-12(fp)
    1b18:	11000044 	addi	r4,r2,1
    1b1c:	e0bffe17 	ldw	r2,-8(fp)
    1b20:	10ffffc4 	addi	r3,r2,-1
    1b24:	008000f4 	movhi	r2,3
    1b28:	10a1e604 	addi	r2,r2,-30824
    1b2c:	210002a4 	muli	r4,r4,10
    1b30:	1105883a 	add	r2,r2,r4
    1b34:	10c5883a 	add	r2,r2,r3
    1b38:	10800003 	ldbu	r2,0(r2)
    1b3c:	10803fcc 	andi	r2,r2,255
    1b40:	10800120 	cmpeqi	r2,r2,4
    1b44:	10000d1e 	bne	r2,zero,1b7c <capture+0x360>
    1b48:	e0bffd17 	ldw	r2,-12(fp)
    1b4c:	11000044 	addi	r4,r2,1
    1b50:	e0bffe17 	ldw	r2,-8(fp)
    1b54:	10ffffc4 	addi	r3,r2,-1
    1b58:	008000f4 	movhi	r2,3
    1b5c:	10a1e604 	addi	r2,r2,-30824
    1b60:	210002a4 	muli	r4,r4,10
    1b64:	1105883a 	add	r2,r2,r4
    1b68:	10c5883a 	add	r2,r2,r3
    1b6c:	10800003 	ldbu	r2,0(r2)
    1b70:	10803fcc 	andi	r2,r2,255
    1b74:	10800158 	cmpnei	r2,r2,5
    1b78:	1000421e 	bne	r2,zero,1c84 <capture+0x468>
	&&
	(board[row+2][field-2] == BLACK || board[row+2][field-2] == BLACK)){
    1b7c:	e0bffd17 	ldw	r2,-12(fp)
    1b80:	11000084 	addi	r4,r2,2
    1b84:	e0bffe17 	ldw	r2,-8(fp)
    1b88:	10ffff84 	addi	r3,r2,-2
    1b8c:	008000f4 	movhi	r2,3
    1b90:	10a1e604 	addi	r2,r2,-30824
    1b94:	210002a4 	muli	r4,r4,10
    1b98:	1105883a 	add	r2,r2,r4
    1b9c:	10c5883a 	add	r2,r2,r3
    1ba0:	10800003 	ldbu	r2,0(r2)
		#endif
		return 1;
	}

	else if((board[row+1][field-1] == ENEMY || board[row+1][field-1] == ENEMYKING)
	&&
    1ba4:	10803fcc 	andi	r2,r2,255
    1ba8:	10800060 	cmpeqi	r2,r2,1
    1bac:	10000d1e 	bne	r2,zero,1be4 <capture+0x3c8>
	(board[row+2][field-2] == BLACK || board[row+2][field-2] == BLACK)){
    1bb0:	e0bffd17 	ldw	r2,-12(fp)
    1bb4:	11000084 	addi	r4,r2,2
    1bb8:	e0bffe17 	ldw	r2,-8(fp)
    1bbc:	10ffff84 	addi	r3,r2,-2
    1bc0:	008000f4 	movhi	r2,3
    1bc4:	10a1e604 	addi	r2,r2,-30824
    1bc8:	210002a4 	muli	r4,r4,10
    1bcc:	1105883a 	add	r2,r2,r4
    1bd0:	10c5883a 	add	r2,r2,r3
    1bd4:	10800003 	ldbu	r2,0(r2)
    1bd8:	10803fcc 	andi	r2,r2,255
    1bdc:	10800058 	cmpnei	r2,r2,1
    1be0:	1000281e 	bne	r2,zero,1c84 <capture+0x468>

		board[row+2][field-2] = board[row][field];
    1be4:	e0bffd17 	ldw	r2,-12(fp)
    1be8:	11400084 	addi	r5,r2,2
    1bec:	e0bffe17 	ldw	r2,-8(fp)
    1bf0:	113fff84 	addi	r4,r2,-2
    1bf4:	008000f4 	movhi	r2,3
    1bf8:	10a1e604 	addi	r2,r2,-30824
    1bfc:	e0fffd17 	ldw	r3,-12(fp)
    1c00:	18c002a4 	muli	r3,r3,10
    1c04:	10c7883a 	add	r3,r2,r3
    1c08:	e0bffe17 	ldw	r2,-8(fp)
    1c0c:	1885883a 	add	r2,r3,r2
    1c10:	10c00003 	ldbu	r3,0(r2)
    1c14:	008000f4 	movhi	r2,3
    1c18:	10a1e604 	addi	r2,r2,-30824
    1c1c:	294002a4 	muli	r5,r5,10
    1c20:	1145883a 	add	r2,r2,r5
    1c24:	1105883a 	add	r2,r2,r4
    1c28:	10c00005 	stb	r3,0(r2)
		board[row+1][field-1] = BLACK;
    1c2c:	e0bffd17 	ldw	r2,-12(fp)
    1c30:	11000044 	addi	r4,r2,1
    1c34:	e0bffe17 	ldw	r2,-8(fp)
    1c38:	10ffffc4 	addi	r3,r2,-1
    1c3c:	008000f4 	movhi	r2,3
    1c40:	10a1e604 	addi	r2,r2,-30824
    1c44:	210002a4 	muli	r4,r4,10
    1c48:	1105883a 	add	r2,r2,r4
    1c4c:	10c5883a 	add	r2,r2,r3
    1c50:	00c00044 	movi	r3,1
    1c54:	10c00005 	stb	r3,0(r2)
		board[row][field] = BLACK;
    1c58:	008000f4 	movhi	r2,3
    1c5c:	10a1e604 	addi	r2,r2,-30824
    1c60:	e0fffd17 	ldw	r3,-12(fp)
    1c64:	18c002a4 	muli	r3,r3,10
    1c68:	10c7883a 	add	r3,r2,r3
    1c6c:	e0bffe17 	ldw	r2,-8(fp)
    1c70:	1885883a 	add	r2,r3,r2
    1c74:	00c00044 	movi	r3,1
    1c78:	10c00005 	stb	r3,0(r2)
		#if DEBUG
			printBoard((unsigned char **)board,row+2,field-2,row,field);
		#endif
		return 1;
    1c7c:	00800044 	movi	r2,1
    1c80:	00005d06 	br	1df8 <capture+0x5dc>
	}

	else if((board[row+1][field+1] == ENEMY || board[row+1][field+1] == ENEMYKING)
    1c84:	e0bffd17 	ldw	r2,-12(fp)
    1c88:	11000044 	addi	r4,r2,1
    1c8c:	e0bffe17 	ldw	r2,-8(fp)
    1c90:	10c00044 	addi	r3,r2,1
    1c94:	008000f4 	movhi	r2,3
    1c98:	10a1e604 	addi	r2,r2,-30824
    1c9c:	210002a4 	muli	r4,r4,10
    1ca0:	1105883a 	add	r2,r2,r4
    1ca4:	10c5883a 	add	r2,r2,r3
    1ca8:	10800003 	ldbu	r2,0(r2)
    1cac:	10803fcc 	andi	r2,r2,255
    1cb0:	10800120 	cmpeqi	r2,r2,4
    1cb4:	10000d1e 	bne	r2,zero,1cec <capture+0x4d0>
    1cb8:	e0bffd17 	ldw	r2,-12(fp)
    1cbc:	11000044 	addi	r4,r2,1
    1cc0:	e0bffe17 	ldw	r2,-8(fp)
    1cc4:	10c00044 	addi	r3,r2,1
    1cc8:	008000f4 	movhi	r2,3
    1ccc:	10a1e604 	addi	r2,r2,-30824
    1cd0:	210002a4 	muli	r4,r4,10
    1cd4:	1105883a 	add	r2,r2,r4
    1cd8:	10c5883a 	add	r2,r2,r3
    1cdc:	10800003 	ldbu	r2,0(r2)
    1ce0:	10803fcc 	andi	r2,r2,255
    1ce4:	10800158 	cmpnei	r2,r2,5
    1ce8:	1000421e 	bne	r2,zero,1df4 <capture+0x5d8>
	&&
	(board[row+2][field+2] == BLACK || board[row+2][field+2] == BLACK)){
    1cec:	e0bffd17 	ldw	r2,-12(fp)
    1cf0:	11000084 	addi	r4,r2,2
    1cf4:	e0bffe17 	ldw	r2,-8(fp)
    1cf8:	10c00084 	addi	r3,r2,2
    1cfc:	008000f4 	movhi	r2,3
    1d00:	10a1e604 	addi	r2,r2,-30824
    1d04:	210002a4 	muli	r4,r4,10
    1d08:	1105883a 	add	r2,r2,r4
    1d0c:	10c5883a 	add	r2,r2,r3
    1d10:	10800003 	ldbu	r2,0(r2)
		#endif
		return 1;
	}

	else if((board[row+1][field+1] == ENEMY || board[row+1][field+1] == ENEMYKING)
	&&
    1d14:	10803fcc 	andi	r2,r2,255
    1d18:	10800060 	cmpeqi	r2,r2,1
    1d1c:	10000d1e 	bne	r2,zero,1d54 <capture+0x538>
	(board[row+2][field+2] == BLACK || board[row+2][field+2] == BLACK)){
    1d20:	e0bffd17 	ldw	r2,-12(fp)
    1d24:	11000084 	addi	r4,r2,2
    1d28:	e0bffe17 	ldw	r2,-8(fp)
    1d2c:	10c00084 	addi	r3,r2,2
    1d30:	008000f4 	movhi	r2,3
    1d34:	10a1e604 	addi	r2,r2,-30824
    1d38:	210002a4 	muli	r4,r4,10
    1d3c:	1105883a 	add	r2,r2,r4
    1d40:	10c5883a 	add	r2,r2,r3
    1d44:	10800003 	ldbu	r2,0(r2)
    1d48:	10803fcc 	andi	r2,r2,255
    1d4c:	10800058 	cmpnei	r2,r2,1
    1d50:	1000281e 	bne	r2,zero,1df4 <capture+0x5d8>

		board[row+2][field+2] = board[row][field];
    1d54:	e0bffd17 	ldw	r2,-12(fp)
    1d58:	11400084 	addi	r5,r2,2
    1d5c:	e0bffe17 	ldw	r2,-8(fp)
    1d60:	11000084 	addi	r4,r2,2
    1d64:	008000f4 	movhi	r2,3
    1d68:	10a1e604 	addi	r2,r2,-30824
    1d6c:	e0fffd17 	ldw	r3,-12(fp)
    1d70:	18c002a4 	muli	r3,r3,10
    1d74:	10c7883a 	add	r3,r2,r3
    1d78:	e0bffe17 	ldw	r2,-8(fp)
    1d7c:	1885883a 	add	r2,r3,r2
    1d80:	10c00003 	ldbu	r3,0(r2)
    1d84:	008000f4 	movhi	r2,3
    1d88:	10a1e604 	addi	r2,r2,-30824
    1d8c:	294002a4 	muli	r5,r5,10
    1d90:	1145883a 	add	r2,r2,r5
    1d94:	1105883a 	add	r2,r2,r4
    1d98:	10c00005 	stb	r3,0(r2)
		board[row+1][field+1] = BLACK;
    1d9c:	e0bffd17 	ldw	r2,-12(fp)
    1da0:	11000044 	addi	r4,r2,1
    1da4:	e0bffe17 	ldw	r2,-8(fp)
    1da8:	10c00044 	addi	r3,r2,1
    1dac:	008000f4 	movhi	r2,3
    1db0:	10a1e604 	addi	r2,r2,-30824
    1db4:	210002a4 	muli	r4,r4,10
    1db8:	1105883a 	add	r2,r2,r4
    1dbc:	10c5883a 	add	r2,r2,r3
    1dc0:	00c00044 	movi	r3,1
    1dc4:	10c00005 	stb	r3,0(r2)
		board[row][field] = BLACK;
    1dc8:	008000f4 	movhi	r2,3
    1dcc:	10a1e604 	addi	r2,r2,-30824
    1dd0:	e0fffd17 	ldw	r3,-12(fp)
    1dd4:	18c002a4 	muli	r3,r3,10
    1dd8:	10c7883a 	add	r3,r2,r3
    1ddc:	e0bffe17 	ldw	r2,-8(fp)
    1de0:	1885883a 	add	r2,r3,r2
    1de4:	00c00044 	movi	r3,1
    1de8:	10c00005 	stb	r3,0(r2)
		#if DEBUG
			printBoard((unsigned char **)board,row+2,field+2,row,field);
		#endif
		return 1;
    1dec:	00800044 	movi	r2,1
    1df0:	00000106 	br	1df8 <capture+0x5dc>
	}

	else return 0;
    1df4:	0005883a 	mov	r2,zero
}
    1df8:	e037883a 	mov	sp,fp
    1dfc:	df000017 	ldw	fp,0(sp)
    1e00:	dec00104 	addi	sp,sp,4
    1e04:	f800283a 	ret

00001e08 <move>:

//TODO: make this obsolete, replace with manMove
void move(unsigned char * tempBoard[], unsigned char row, unsigned char field, unsigned char dir, unsigned char friendly, unsigned char friendlyKing, unsigned char enemy, unsigned char enemyKing, signed char direction){
    1e08:	deffdb04 	addi	sp,sp,-148
    1e0c:	dfc02415 	stw	ra,144(sp)
    1e10:	df002315 	stw	fp,140(sp)
    1e14:	df002304 	addi	fp,sp,140
    1e18:	e13ff715 	stw	r4,-36(fp)
    1e1c:	2813883a 	mov	r9,r5
    1e20:	3011883a 	mov	r8,r6
    1e24:	e1800217 	ldw	r6,8(fp)
    1e28:	e1400317 	ldw	r5,12(fp)
    1e2c:	e1000417 	ldw	r4,16(fp)
    1e30:	e0c00517 	ldw	r3,20(fp)
    1e34:	e0800617 	ldw	r2,24(fp)
    1e38:	e27ff805 	stb	r9,-32(fp)
    1e3c:	e23ff905 	stb	r8,-28(fp)
    1e40:	e1fffa05 	stb	r7,-24(fp)
    1e44:	e1bffb05 	stb	r6,-20(fp)
    1e48:	e17ffc05 	stb	r5,-16(fp)
    1e4c:	e13ffd05 	stb	r4,-12(fp)
    1e50:	e0fffe05 	stb	r3,-8(fp)
    1e54:	e0bfff05 	stb	r2,-4(fp)

	unsigned char b[10][10];
	memcpy(b,tempBoard,100);
    1e58:	e0bfde04 	addi	r2,fp,-136
    1e5c:	01801904 	movi	r6,100
    1e60:	e17ff717 	ldw	r5,-36(fp)
    1e64:	1009883a 	mov	r4,r2
    1e68:	00054340 	call	5434 <memcpy>

	int stone = b[row][field];
    1e6c:	e0fff803 	ldbu	r3,-32(fp)
    1e70:	e0bff903 	ldbu	r2,-28(fp)
    1e74:	18c002a4 	muli	r3,r3,10
    1e78:	e13fdd04 	addi	r4,fp,-140
    1e7c:	20c7883a 	add	r3,r4,r3
    1e80:	1885883a 	add	r2,r3,r2
    1e84:	10800104 	addi	r2,r2,4
    1e88:	10800003 	ldbu	r2,0(r2)
    1e8c:	10803fcc 	andi	r2,r2,255
    1e90:	e0bfdd15 	stw	r2,-140(fp)

	b[row][field] = BLACK;
    1e94:	e0fff803 	ldbu	r3,-32(fp)
    1e98:	e0bff903 	ldbu	r2,-28(fp)
    1e9c:	18c002a4 	muli	r3,r3,10
    1ea0:	e17fdd04 	addi	r5,fp,-140
    1ea4:	28c7883a 	add	r3,r5,r3
    1ea8:	1885883a 	add	r2,r3,r2
    1eac:	10800104 	addi	r2,r2,4
    1eb0:	00c00044 	movi	r3,1
    1eb4:	10c00005 	stb	r3,0(r2)

	switch(dir){
    1eb8:	e0bffa03 	ldbu	r2,-24(fp)
    1ebc:	10c000a0 	cmpeqi	r3,r2,2
    1ec0:	1800161e 	bne	r3,zero,1f1c <move+0x114>
    1ec4:	10c000c8 	cmpgei	r3,r2,3
    1ec8:	1800031e 	bne	r3,zero,1ed8 <move+0xd0>
    1ecc:	10800060 	cmpeqi	r2,r2,1
    1ed0:	1000061e 	bne	r2,zero,1eec <move+0xe4>
    1ed4:	00003506 	br	1fac <move+0x1a4>
    1ed8:	10c000e0 	cmpeqi	r3,r2,3
    1edc:	18001b1e 	bne	r3,zero,1f4c <move+0x144>
    1ee0:	10800120 	cmpeqi	r2,r2,4
    1ee4:	1000251e 	bne	r2,zero,1f7c <move+0x174>
    1ee8:	00003006 	br	1fac <move+0x1a4>
		case 1:
			b[row-1][field-1] = stone;
    1eec:	e0bff803 	ldbu	r2,-32(fp)
    1ef0:	10ffffc4 	addi	r3,r2,-1
    1ef4:	e0bff903 	ldbu	r2,-28(fp)
    1ef8:	10bfffc4 	addi	r2,r2,-1
    1efc:	e13fdd17 	ldw	r4,-140(fp)
    1f00:	18c002a4 	muli	r3,r3,10
    1f04:	e17fdd04 	addi	r5,fp,-140
    1f08:	28c7883a 	add	r3,r5,r3
    1f0c:	1885883a 	add	r2,r3,r2
    1f10:	10800104 	addi	r2,r2,4
    1f14:	11000005 	stb	r4,0(r2)
			#if DEBUG
				printBoard((unsigned char **)b,row-1,field-1,row,field);
			#endif
			break;
    1f18:	00002406 	br	1fac <move+0x1a4>
		case 2:
			b[row-1][field+1] = stone;
    1f1c:	e0bff803 	ldbu	r2,-32(fp)
    1f20:	10ffffc4 	addi	r3,r2,-1
    1f24:	e0bff903 	ldbu	r2,-28(fp)
    1f28:	10800044 	addi	r2,r2,1
    1f2c:	e13fdd17 	ldw	r4,-140(fp)
    1f30:	18c002a4 	muli	r3,r3,10
    1f34:	e17fdd04 	addi	r5,fp,-140
    1f38:	28c7883a 	add	r3,r5,r3
    1f3c:	1885883a 	add	r2,r3,r2
    1f40:	10800104 	addi	r2,r2,4
    1f44:	11000005 	stb	r4,0(r2)
			#if DEBUG
				printBoard((unsigned char **)b,row-1,field+1,row,field);
			#endif
			break;
    1f48:	00001806 	br	1fac <move+0x1a4>
		case 3:
			b[row+1][field-1] = stone;
    1f4c:	e0bff803 	ldbu	r2,-32(fp)
    1f50:	10c00044 	addi	r3,r2,1
    1f54:	e0bff903 	ldbu	r2,-28(fp)
    1f58:	10bfffc4 	addi	r2,r2,-1
    1f5c:	e13fdd17 	ldw	r4,-140(fp)
    1f60:	18c002a4 	muli	r3,r3,10
    1f64:	e17fdd04 	addi	r5,fp,-140
    1f68:	28c7883a 	add	r3,r5,r3
    1f6c:	1885883a 	add	r2,r3,r2
    1f70:	10800104 	addi	r2,r2,4
    1f74:	11000005 	stb	r4,0(r2)
			#if DEBUG
				printBoard((unsigned char **)b,row+1,field-1,row,field);
			#endif
			break;
    1f78:	00000c06 	br	1fac <move+0x1a4>
		case 4:
			b[row+1][field+1] = stone;
    1f7c:	e0bff803 	ldbu	r2,-32(fp)
    1f80:	10c00044 	addi	r3,r2,1
    1f84:	e0bff903 	ldbu	r2,-28(fp)
    1f88:	10800044 	addi	r2,r2,1
    1f8c:	e13fdd17 	ldw	r4,-140(fp)
    1f90:	18c002a4 	muli	r3,r3,10
    1f94:	e17fdd04 	addi	r5,fp,-140
    1f98:	28c7883a 	add	r3,r5,r3
    1f9c:	1885883a 	add	r2,r3,r2
    1fa0:	10800104 	addi	r2,r2,4
    1fa4:	11000005 	stb	r4,0(r2)
			#if DEBUG
				printBoard((unsigned char **)b,row+1,field+1,row,field);
			#endif
			break;
    1fa8:	0001883a 	nop
	}
	memcpy(tempBoard,b,100);
    1fac:	e0bfde04 	addi	r2,fp,-136
    1fb0:	01801904 	movi	r6,100
    1fb4:	100b883a 	mov	r5,r2
    1fb8:	e13ff717 	ldw	r4,-36(fp)
    1fbc:	00054340 	call	5434 <memcpy>
}
    1fc0:	0001883a 	nop
    1fc4:	e037883a 	mov	sp,fp
    1fc8:	dfc00117 	ldw	ra,4(sp)
    1fcc:	df000017 	ldw	fp,0(sp)
    1fd0:	dec00204 	addi	sp,sp,8
    1fd4:	f800283a 	ret

00001fd8 <createKing>:

void createKing(unsigned char * tempBoard[])
{
    1fd8:	deffe304 	addi	sp,sp,-116
    1fdc:	dfc01c15 	stw	ra,112(sp)
    1fe0:	df001b15 	stw	fp,108(sp)
    1fe4:	df001b04 	addi	fp,sp,108
    1fe8:	e13fff15 	stw	r4,-4(fp)
	unsigned char b[10][10];
	memcpy(b,tempBoard,100);
    1fec:	e0bfe544 	addi	r2,fp,-107
    1ff0:	01801904 	movi	r6,100
    1ff4:	e17fff17 	ldw	r5,-4(fp)
    1ff8:	1009883a 	mov	r4,r2
    1ffc:	00054340 	call	5434 <memcpy>

	for(unsigned char field = 0; field <= 9; field++)
    2000:	e03fe505 	stb	zero,-108(fp)
    2004:	00001b06 	br	2074 <createKing+0x9c>
	{
		if(b[0][field] == FRIENDLY)
    2008:	e0bfe503 	ldbu	r2,-108(fp)
    200c:	e0ffe544 	addi	r3,fp,-107
    2010:	1885883a 	add	r2,r3,r2
    2014:	10800003 	ldbu	r2,0(r2)
    2018:	10803fcc 	andi	r2,r2,255
    201c:	10800098 	cmpnei	r2,r2,2
    2020:	1000051e 	bne	r2,zero,2038 <createKing+0x60>
		{
			b[0][field] = FRIENDLYKING;
    2024:	e0bfe503 	ldbu	r2,-108(fp)
    2028:	e0ffe544 	addi	r3,fp,-107
    202c:	1885883a 	add	r2,r3,r2
    2030:	00c000c4 	movi	r3,3
    2034:	10c00005 	stb	r3,0(r2)
		}

		if(b[9][field] == ENEMY)
    2038:	e0bfe503 	ldbu	r2,-108(fp)
    203c:	e0fffbc4 	addi	r3,fp,-17
    2040:	1885883a 	add	r2,r3,r2
    2044:	10800003 	ldbu	r2,0(r2)
    2048:	10803fcc 	andi	r2,r2,255
    204c:	10800118 	cmpnei	r2,r2,4
    2050:	1000051e 	bne	r2,zero,2068 <createKing+0x90>
		{
			b[9][field] = ENEMYKING;
    2054:	e0bfe503 	ldbu	r2,-108(fp)
    2058:	e0fffbc4 	addi	r3,fp,-17
    205c:	1885883a 	add	r2,r3,r2
    2060:	00c00144 	movi	r3,5
    2064:	10c00005 	stb	r3,0(r2)
void createKing(unsigned char * tempBoard[])
{
	unsigned char b[10][10];
	memcpy(b,tempBoard,100);

	for(unsigned char field = 0; field <= 9; field++)
    2068:	e0bfe503 	ldbu	r2,-108(fp)
    206c:	10800044 	addi	r2,r2,1
    2070:	e0bfe505 	stb	r2,-108(fp)
    2074:	e0bfe503 	ldbu	r2,-108(fp)
    2078:	108002b0 	cmpltui	r2,r2,10
    207c:	103fe21e 	bne	r2,zero,2008 <__alt_data_end+0xfc002008>
		{
			b[9][field] = ENEMYKING;
		}
	}

	memcpy(tempBoard,b,100);
    2080:	e0bfe544 	addi	r2,fp,-107
    2084:	01801904 	movi	r6,100
    2088:	100b883a 	mov	r5,r2
    208c:	e13fff17 	ldw	r4,-4(fp)
    2090:	00054340 	call	5434 <memcpy>
}
    2094:	0001883a 	nop
    2098:	e037883a 	mov	sp,fp
    209c:	dfc00117 	ldw	ra,4(sp)
    20a0:	df000017 	ldw	fp,0(sp)
    20a4:	dec00204 	addi	sp,sp,8
    20a8:	f800283a 	ret

000020ac <minimaxAlgorithmRecursive>:

int minimaxAlgorithmRecursive(unsigned char * tempBoard[], unsigned char friendly, unsigned char friendlyKing, unsigned char enemy, unsigned char enemyKing, signed char direction, int depth)
{
    20ac:	deff9004 	addi	sp,sp,-448
    20b0:	dfc06f15 	stw	ra,444(sp)
    20b4:	df006e15 	stw	fp,440(sp)
    20b8:	df006e04 	addi	fp,sp,440
    20bc:	e13ffa15 	stw	r4,-24(fp)
    20c0:	2811883a 	mov	r8,r5
    20c4:	300b883a 	mov	r5,r6
    20c8:	3809883a 	mov	r4,r7
    20cc:	e0c00217 	ldw	r3,8(fp)
    20d0:	e0800317 	ldw	r2,12(fp)
    20d4:	e23ffb05 	stb	r8,-20(fp)
    20d8:	e17ffc05 	stb	r5,-16(fp)
    20dc:	e13ffd05 	stb	r4,-12(fp)
    20e0:	e0fffe05 	stb	r3,-8(fp)
    20e4:	e0bfff05 	stb	r2,-4(fp)
	int bestScore;

	createKing((unsigned char **)tempBoard);
    20e8:	e13ffa17 	ldw	r4,-24(fp)
    20ec:	0001fd80 	call	1fd8 <createKing>

	unsigned char b[10][10];
	memcpy(b,tempBoard,100);
    20f0:	e0bfae04 	addi	r2,fp,-328
    20f4:	01801904 	movi	r6,100
    20f8:	e17ffa17 	ldw	r5,-24(fp)
    20fc:	1009883a 	mov	r4,r2
    2100:	00054340 	call	5434 <memcpy>

	if(depth > 0)
    2104:	e0800417 	ldw	r2,16(fp)
    2108:	0081f00e 	bge	zero,r2,28cc <minimaxAlgorithmRecursive+0x820>
	{
		Vector * scoreList = vectorInit();
    210c:	0003e2c0 	call	3e2c <vectorInit>
    2110:	e0bfa615 	stw	r2,-360(fp)

		for(unsigned char row = 0; row < 10; row++)
    2114:	e03f9805 	stb	zero,-416(fp)
    2118:	0001bf06 	br	2818 <minimaxAlgorithmRecursive+0x76c>
		{
			for(unsigned char field = 0; field < 10; field++)
    211c:	e03f9845 	stb	zero,-415(fp)
    2120:	0001b706 	br	2800 <minimaxAlgorithmRecursive+0x754>
			{
				if(b[row][field] == friendly)
    2124:	e0ff9803 	ldbu	r3,-416(fp)
    2128:	e0bf9843 	ldbu	r2,-415(fp)
    212c:	18c002a4 	muli	r3,r3,10
    2130:	e13f9704 	addi	r4,fp,-420
    2134:	20c7883a 	add	r3,r4,r3
    2138:	1885883a 	add	r2,r3,r2
    213c:	10801704 	addi	r2,r2,92
    2140:	10800003 	ldbu	r2,0(r2)
    2144:	10c03fcc 	andi	r3,r2,255
    2148:	e0bffb03 	ldbu	r2,-20(fp)
    214c:	1880c01e 	bne	r3,r2,2450 <minimaxAlgorithmRecursive+0x3a4>
				{
					#if DEBUG
						printf("R%i: [%i][%i] is friendly\n",depth,row,field);
					#endif
					int nextDirection;
					if(direction == -1) nextDirection = 1;
    2150:	e0bfff07 	ldb	r2,-4(fp)
    2154:	10bfffd8 	cmpnei	r2,r2,-1
    2158:	1000021e 	bne	r2,zero,2164 <minimaxAlgorithmRecursive+0xb8>
    215c:	00800044 	movi	r2,1
    2160:	e0bf9915 	stw	r2,-412(fp)
					if(direction == 1) nextDirection = -1;
    2164:	e0bfff07 	ldb	r2,-4(fp)
    2168:	10800058 	cmpnei	r2,r2,1
    216c:	1000021e 	bne	r2,zero,2178 <minimaxAlgorithmRecursive+0xcc>
    2170:	00bfffc4 	movi	r2,-1
    2174:	e0bf9915 	stw	r2,-412(fp)

					unsigned char newBoard[10][10];
					memcpy(newBoard,b,100);
    2178:	e0bfe084 	addi	r2,fp,-126
    217c:	e0ffae04 	addi	r3,fp,-328
    2180:	01001904 	movi	r4,100
    2184:	200d883a 	mov	r6,r4
    2188:	180b883a 	mov	r5,r3
    218c:	1009883a 	mov	r4,r2
    2190:	00054340 	call	5434 <memcpy>

					int captured = manCapture((unsigned char **)newBoard, row, field, friendly, friendlyKing, enemy, enemyKing);
    2194:	e17f9803 	ldbu	r5,-416(fp)
    2198:	e1bf9843 	ldbu	r6,-415(fp)
    219c:	e1fffb03 	ldbu	r7,-20(fp)
    21a0:	e0bffc03 	ldbu	r2,-16(fp)
    21a4:	e0fffd03 	ldbu	r3,-12(fp)
    21a8:	e13ffe03 	ldbu	r4,-8(fp)
    21ac:	e23fe084 	addi	r8,fp,-126
    21b0:	d9000215 	stw	r4,8(sp)
    21b4:	d8c00115 	stw	r3,4(sp)
    21b8:	d8800015 	stw	r2,0(sp)
    21bc:	4009883a 	mov	r4,r8
    21c0:	00012200 	call	1220 <manCapture>
    21c4:	10803fcc 	andi	r2,r2,255
    21c8:	e0bfa715 	stw	r2,-356(fp)
					if(captured)
    21cc:	e0bfa717 	ldw	r2,-356(fp)
    21d0:	10005226 	beq	r2,zero,231c <minimaxAlgorithmRecursive+0x270>
					{
						#if DEBUG
							printf("R%i: [%i][%i] can capture\n",depth,row,field);
						#endif
						int enemiesLeft = 0;
    21d4:	e03f9a15 	stw	zero,-408(fp)
						for(unsigned char r = 0; r < 10; r++)
    21d8:	e03f9b05 	stb	zero,-404(fp)
    21dc:	00002306 	br	226c <minimaxAlgorithmRecursive+0x1c0>
						{
							for(unsigned char f = 0; f < 10; f++)
    21e0:	e03f9b45 	stb	zero,-403(fp)
    21e4:	00001b06 	br	2254 <minimaxAlgorithmRecursive+0x1a8>
							{
								if(b[row][field] == enemy || b[row][field] == enemyKing)
    21e8:	e0ff9803 	ldbu	r3,-416(fp)
    21ec:	e0bf9843 	ldbu	r2,-415(fp)
    21f0:	18c002a4 	muli	r3,r3,10
    21f4:	e13f9704 	addi	r4,fp,-420
    21f8:	20c7883a 	add	r3,r4,r3
    21fc:	1885883a 	add	r2,r3,r2
    2200:	10801704 	addi	r2,r2,92
    2204:	10800003 	ldbu	r2,0(r2)
    2208:	10c03fcc 	andi	r3,r2,255
    220c:	e0bffd03 	ldbu	r2,-12(fp)
    2210:	18800b26 	beq	r3,r2,2240 <minimaxAlgorithmRecursive+0x194>
    2214:	e0ff9803 	ldbu	r3,-416(fp)
    2218:	e0bf9843 	ldbu	r2,-415(fp)
    221c:	18c002a4 	muli	r3,r3,10
    2220:	e13f9704 	addi	r4,fp,-420
    2224:	20c7883a 	add	r3,r4,r3
    2228:	1885883a 	add	r2,r3,r2
    222c:	10801704 	addi	r2,r2,92
    2230:	10800003 	ldbu	r2,0(r2)
    2234:	10c03fcc 	andi	r3,r2,255
    2238:	e0bffe03 	ldbu	r2,-8(fp)
    223c:	1880021e 	bne	r3,r2,2248 <minimaxAlgorithmRecursive+0x19c>
									enemiesLeft = 1;
    2240:	00800044 	movi	r2,1
    2244:	e0bf9a15 	stw	r2,-408(fp)
							printf("R%i: [%i][%i] can capture\n",depth,row,field);
						#endif
						int enemiesLeft = 0;
						for(unsigned char r = 0; r < 10; r++)
						{
							for(unsigned char f = 0; f < 10; f++)
    2248:	e0bf9b43 	ldbu	r2,-403(fp)
    224c:	10800044 	addi	r2,r2,1
    2250:	e0bf9b45 	stb	r2,-403(fp)
    2254:	e0bf9b43 	ldbu	r2,-403(fp)
    2258:	108002b0 	cmpltui	r2,r2,10
    225c:	103fe21e 	bne	r2,zero,21e8 <__alt_data_end+0xfc0021e8>
					{
						#if DEBUG
							printf("R%i: [%i][%i] can capture\n",depth,row,field);
						#endif
						int enemiesLeft = 0;
						for(unsigned char r = 0; r < 10; r++)
    2260:	e0bf9b03 	ldbu	r2,-404(fp)
    2264:	10800044 	addi	r2,r2,1
    2268:	e0bf9b05 	stb	r2,-404(fp)
    226c:	e0bf9b03 	ldbu	r2,-404(fp)
    2270:	108002b0 	cmpltui	r2,r2,10
    2274:	103fda1e 	bne	r2,zero,21e0 <__alt_data_end+0xfc0021e0>
								if(b[row][field] == enemy || b[row][field] == enemyKing)
									enemiesLeft = 1;
							}
						}
						int score;
						if(enemiesLeft == 1)
    2278:	e0bf9a17 	ldw	r2,-408(fp)
    227c:	10800058 	cmpnei	r2,r2,1
    2280:	1000121e 	bne	r2,zero,22cc <minimaxAlgorithmRecursive+0x220>
						{
							#if DEBUG
								printf("R%i: there are enemies left after the capture\n",depth);
								printf("R%i: calling minimaxAlgorithmRecursive with depth %i\n",depth,depth-1);
							#endif
							score = minimaxAlgorithmRecursive((unsigned char **)newBoard, enemy, enemyKing, friendly, friendlyKing, nextDirection, depth-1);
    2284:	e17ffd03 	ldbu	r5,-12(fp)
    2288:	e1bffe03 	ldbu	r6,-8(fp)
    228c:	e1fffb03 	ldbu	r7,-20(fp)
    2290:	e0bffc03 	ldbu	r2,-16(fp)
    2294:	e0ff9917 	ldw	r3,-412(fp)
    2298:	18c03fcc 	andi	r3,r3,255
    229c:	18c0201c 	xori	r3,r3,128
    22a0:	18ffe004 	addi	r3,r3,-128
    22a4:	e1000417 	ldw	r4,16(fp)
    22a8:	213fffc4 	addi	r4,r4,-1
    22ac:	e23fe084 	addi	r8,fp,-126
    22b0:	d9000215 	stw	r4,8(sp)
    22b4:	d8c00115 	stw	r3,4(sp)
    22b8:	d8800015 	stw	r2,0(sp)
    22bc:	4009883a 	mov	r4,r8
    22c0:	00020ac0 	call	20ac <minimaxAlgorithmRecursive>
    22c4:	e0bf9c15 	stw	r2,-400(fp)
    22c8:	00001006 	br	230c <minimaxAlgorithmRecursive+0x260>
						}
						else if(enemiesLeft == 0)
    22cc:	e0bf9a17 	ldw	r2,-408(fp)
    22d0:	10000e1e 	bne	r2,zero,230c <minimaxAlgorithmRecursive+0x260>
							#if DEBUG
								printf("R%i: there are no enemies left after the capture\n",depth);
								printf("R%i: calling minimaxAlgorithmRecursive with depth 0\n",depth);
							#endif
							//TODO should i do this? this is a dirty fix for when after a capture, the same stone is used twice.
							score = minimaxAlgorithmRecursive((unsigned char **)newBoard, enemy, enemyKing, friendly, friendlyKing, nextDirection, 0);
    22d4:	e17ffd03 	ldbu	r5,-12(fp)
    22d8:	e1bffe03 	ldbu	r6,-8(fp)
    22dc:	e1fffb03 	ldbu	r7,-20(fp)
    22e0:	e0bffc03 	ldbu	r2,-16(fp)
    22e4:	e0ff9917 	ldw	r3,-412(fp)
    22e8:	18c03fcc 	andi	r3,r3,255
    22ec:	18c0201c 	xori	r3,r3,128
    22f0:	18ffe004 	addi	r3,r3,-128
    22f4:	e13fe084 	addi	r4,fp,-126
    22f8:	d8000215 	stw	zero,8(sp)
    22fc:	d8c00115 	stw	r3,4(sp)
    2300:	d8800015 	stw	r2,0(sp)
    2304:	00020ac0 	call	20ac <minimaxAlgorithmRecursive>
    2308:	e0bf9c15 	stw	r2,-400(fp)
						}

						#if DEBUG
							printf("R%i: manCapture: adding score %i to linked list\n",depth,score);
						#endif
						vectorAdd(scoreList,(void *)score);
    230c:	e0bf9c17 	ldw	r2,-400(fp)
    2310:	100b883a 	mov	r5,r2
    2314:	e13fa617 	ldw	r4,-360(fp)
    2318:	0003ea00 	call	3ea0 <vectorAdd>

					#if DEBUG
						printf("R%i: checking if [%i][%i] can move\n",depth,row,field);
					#endif

					for(int d = 1;d<=4;d++)
    231c:	00800044 	movi	r2,1
    2320:	e0bf9d15 	stw	r2,-396(fp)
    2324:	00004606 	br	2440 <minimaxAlgorithmRecursive+0x394>
					{
						if(checkIfCanMove((unsigned char **)b, row, field, d, friendly, friendlyKing, enemy, enemyKing, direction) == 1)
    2328:	e27f9803 	ldbu	r9,-416(fp)
    232c:	e2bf9843 	ldbu	r10,-415(fp)
    2330:	e0bffb03 	ldbu	r2,-20(fp)
    2334:	e0fffc03 	ldbu	r3,-16(fp)
    2338:	e13ffd03 	ldbu	r4,-12(fp)
    233c:	e17ffe03 	ldbu	r5,-8(fp)
    2340:	e1bfff07 	ldb	r6,-4(fp)
    2344:	e23fae04 	addi	r8,fp,-328
    2348:	d9800415 	stw	r6,16(sp)
    234c:	d9400315 	stw	r5,12(sp)
    2350:	d9000215 	stw	r4,8(sp)
    2354:	d8c00115 	stw	r3,4(sp)
    2358:	d8800015 	stw	r2,0(sp)
    235c:	e1ff9d17 	ldw	r7,-396(fp)
    2360:	500d883a 	mov	r6,r10
    2364:	480b883a 	mov	r5,r9
    2368:	4009883a 	mov	r4,r8
    236c:	00014940 	call	1494 <checkIfCanMove>
    2370:	10800058 	cmpnei	r2,r2,1
    2374:	10002f1e 	bne	r2,zero,2434 <minimaxAlgorithmRecursive+0x388>
						{
							#if DEBUG
								printf("R%i: [%i][%i] can move with dir %i\n",depth,row,field,d);
							#endif
							unsigned char newBoard[10][10];
							memcpy(newBoard,b,100);
    2378:	e0bfc784 	addi	r2,fp,-226
    237c:	e0ffae04 	addi	r3,fp,-328
    2380:	01001904 	movi	r4,100
    2384:	200d883a 	mov	r6,r4
    2388:	180b883a 	mov	r5,r3
    238c:	1009883a 	mov	r4,r2
    2390:	00054340 	call	5434 <memcpy>
							move((unsigned char **)newBoard, row, field, d, friendly, friendlyKing, enemy, enemyKing, direction);
    2394:	e27f9803 	ldbu	r9,-416(fp)
    2398:	e2bf9843 	ldbu	r10,-415(fp)
    239c:	e0bf9d17 	ldw	r2,-396(fp)
    23a0:	11c03fcc 	andi	r7,r2,255
    23a4:	e0bffb03 	ldbu	r2,-20(fp)
    23a8:	e0fffc03 	ldbu	r3,-16(fp)
    23ac:	e13ffd03 	ldbu	r4,-12(fp)
    23b0:	e17ffe03 	ldbu	r5,-8(fp)
    23b4:	e1bfff07 	ldb	r6,-4(fp)
    23b8:	e23fc784 	addi	r8,fp,-226
    23bc:	d9800415 	stw	r6,16(sp)
    23c0:	d9400315 	stw	r5,12(sp)
    23c4:	d9000215 	stw	r4,8(sp)
    23c8:	d8c00115 	stw	r3,4(sp)
    23cc:	d8800015 	stw	r2,0(sp)
    23d0:	500d883a 	mov	r6,r10
    23d4:	480b883a 	mov	r5,r9
    23d8:	4009883a 	mov	r4,r8
    23dc:	0001e080 	call	1e08 <move>
							int score = minimaxAlgorithmRecursive((unsigned char **)newBoard, enemy, enemyKing, friendly, friendlyKing, nextDirection, depth-1);
    23e0:	e17ffd03 	ldbu	r5,-12(fp)
    23e4:	e1bffe03 	ldbu	r6,-8(fp)
    23e8:	e1fffb03 	ldbu	r7,-20(fp)
    23ec:	e0bffc03 	ldbu	r2,-16(fp)
    23f0:	e0ff9917 	ldw	r3,-412(fp)
    23f4:	18c03fcc 	andi	r3,r3,255
    23f8:	18c0201c 	xori	r3,r3,128
    23fc:	18ffe004 	addi	r3,r3,-128
    2400:	e1000417 	ldw	r4,16(fp)
    2404:	213fffc4 	addi	r4,r4,-1
    2408:	e23fc784 	addi	r8,fp,-226
    240c:	d9000215 	stw	r4,8(sp)
    2410:	d8c00115 	stw	r3,4(sp)
    2414:	d8800015 	stw	r2,0(sp)
    2418:	4009883a 	mov	r4,r8
    241c:	00020ac0 	call	20ac <minimaxAlgorithmRecursive>
    2420:	e0bfa815 	stw	r2,-352(fp)

							#if DEBUG
								printf("R%i: manMove: adding score %i to linked list\n",depth,score);
							#endif
							vectorAdd(scoreList,(void *)score);
    2424:	e0bfa817 	ldw	r2,-352(fp)
    2428:	100b883a 	mov	r5,r2
    242c:	e13fa617 	ldw	r4,-360(fp)
    2430:	0003ea00 	call	3ea0 <vectorAdd>

					#if DEBUG
						printf("R%i: checking if [%i][%i] can move\n",depth,row,field);
					#endif

					for(int d = 1;d<=4;d++)
    2434:	e0bf9d17 	ldw	r2,-396(fp)
    2438:	10800044 	addi	r2,r2,1
    243c:	e0bf9d15 	stw	r2,-396(fp)
    2440:	e0bf9d17 	ldw	r2,-396(fp)
    2444:	10800150 	cmplti	r2,r2,5
    2448:	103fb71e 	bne	r2,zero,2328 <__alt_data_end+0xfc002328>
    244c:	0000e906 	br	27f4 <minimaxAlgorithmRecursive+0x748>
							#endif
							vectorAdd(scoreList,(void *)score);
						}
					}
				}
				else if(b[row][field] == friendlyKing)
    2450:	e0ff9803 	ldbu	r3,-416(fp)
    2454:	e0bf9843 	ldbu	r2,-415(fp)
    2458:	18c002a4 	muli	r3,r3,10
    245c:	e13f9704 	addi	r4,fp,-420
    2460:	20c7883a 	add	r3,r4,r3
    2464:	1885883a 	add	r2,r3,r2
    2468:	10801704 	addi	r2,r2,92
    246c:	10800003 	ldbu	r2,0(r2)
    2470:	10c03fcc 	andi	r3,r2,255
    2474:	e0bffc03 	ldbu	r2,-16(fp)
    2478:	1880de1e 	bne	r3,r2,27f4 <minimaxAlgorithmRecursive+0x748>
				{
					int nextDirection;
					if(direction == FRIENDLYDIRECTION) nextDirection = ENEMYDIRECTION;
    247c:	e0bfff07 	ldb	r2,-4(fp)
    2480:	10bfffd8 	cmpnei	r2,r2,-1
    2484:	1000021e 	bne	r2,zero,2490 <minimaxAlgorithmRecursive+0x3e4>
    2488:	00800044 	movi	r2,1
    248c:	e0bf9e15 	stw	r2,-392(fp)
					if(direction == ENEMYDIRECTION) nextDirection = FRIENDLYDIRECTION;
    2490:	e0bfff07 	ldb	r2,-4(fp)
    2494:	10800058 	cmpnei	r2,r2,1
    2498:	1000021e 	bne	r2,zero,24a4 <minimaxAlgorithmRecursive+0x3f8>
    249c:	00bfffc4 	movi	r2,-1
    24a0:	e0bf9e15 	stw	r2,-392(fp)

					Location l;
					l.row = row;
    24a4:	e0bf9803 	ldbu	r2,-416(fp)
    24a8:	e0bfc745 	stb	r2,-227(fp)
					l.field = field;
    24ac:	e0bf9843 	ldbu	r2,-415(fp)
    24b0:	e0bfc705 	stb	r2,-228(fp)
					Vector * captures = kingCapture(l,(unsigned char **)tempBoard, friendly, friendlyKing, enemy, enemyKing);
    24b4:	e13ffb03 	ldbu	r4,-20(fp)
    24b8:	e17ffc03 	ldbu	r5,-16(fp)
    24bc:	e0bffd03 	ldbu	r2,-12(fp)
    24c0:	e0fffe03 	ldbu	r3,-8(fp)
    24c4:	d8c00115 	stw	r3,4(sp)
    24c8:	d8800015 	stw	r2,0(sp)
    24cc:	280f883a 	mov	r7,r5
    24d0:	200d883a 	mov	r6,r4
    24d4:	e17ffa17 	ldw	r5,-24(fp)
    24d8:	e13fc717 	ldw	r4,-228(fp)
    24dc:	00006c00 	call	6c0 <kingCapture>
    24e0:	e0bfa915 	stw	r2,-348(fp)

					if(captures->count != 0)
    24e4:	e0bfa917 	ldw	r2,-348(fp)
    24e8:	10800217 	ldw	r2,8(r2)
    24ec:	10007526 	beq	r2,zero,26c4 <minimaxAlgorithmRecursive+0x618>
					{
						#if DEBUG
							printf("R%i: [%i][%i] can capture\n",depth,row,field);
						#endif

						stripCaptureVector(captures, 0);
    24f0:	000b883a 	mov	r5,zero
    24f4:	e13fa917 	ldw	r4,-348(fp)
    24f8:	0000c680 	call	c68 <stripCaptureVector>

						struct Move * moveList = malloc(sizeof(struct Move));
    24fc:	01000304 	movi	r4,12
    2500:	0004b1c0 	call	4b1c <malloc>
    2504:	e0bfaa15 	stw	r2,-344(fp)
						moveList->nextMove = NULL;
    2508:	e0bfaa17 	ldw	r2,-344(fp)
    250c:	10000215 	stw	zero,8(r2)
						Vector * moveVector = malloc(sizeof(Vector));
    2510:	01000304 	movi	r4,12
    2514:	0004b1c0 	call	4b1c <malloc>
    2518:	e0bfab15 	stw	r2,-340(fp)
						moveVector = vectorInit();
    251c:	0003e2c0 	call	3e2c <vectorInit>
    2520:	e0bfab15 	stw	r2,-340(fp)
						generateCaptureList(captures, moveList, moveVector, -1);
    2524:	01c03fc4 	movi	r7,255
    2528:	e1bfab17 	ldw	r6,-340(fp)
    252c:	e17faa17 	ldw	r5,-344(fp)
    2530:	e13fa917 	ldw	r4,-348(fp)
    2534:	000104c0 	call	104c <generateCaptureList>
						deleteMoveVector(moveVector);
    2538:	e13fab17 	ldw	r4,-340(fp)
    253c:	0000bc80 	call	bc8 <deleteMoveVector>

						//for every S in V
						//TODO segfault if we do this multiple times
						printf("moveVector->count = %i\n",moveVector->count);
    2540:	e0bfab17 	ldw	r2,-340(fp)
    2544:	10800217 	ldw	r2,8(r2)
    2548:	100b883a 	mov	r5,r2
    254c:	010000b4 	movhi	r4,2
    2550:	21116104 	addi	r4,r4,17796
    2554:	00056d40 	call	56d4 <printf>
						for(int i = 0; i < moveVector->count; i++)
    2558:	e03f9f15 	stw	zero,-388(fp)
    255c:	00005506 	br	26b4 <minimaxAlgorithmRecursive+0x608>
						{
							unsigned char newBoard[10][10];
							//copyBoard(((VectorMove *)vectorGet(moveVector,i))->board,newBoard);

							int enemiesLeft = 0;
    2560:	e03fa015 	stw	zero,-384(fp)
							for(unsigned char r = 0; r < 10; r++)
    2564:	e03fa105 	stb	zero,-380(fp)
    2568:	00002306 	br	25f8 <minimaxAlgorithmRecursive+0x54c>
							{
								for(unsigned char f = 0; f < 10; f++)
    256c:	e03fa145 	stb	zero,-379(fp)
    2570:	00001b06 	br	25e0 <minimaxAlgorithmRecursive+0x534>
								{
									if(newBoard[row][field] == enemy || newBoard[row][field] == enemyKing)
    2574:	e0ff9803 	ldbu	r3,-416(fp)
    2578:	e0bf9843 	ldbu	r2,-415(fp)
    257c:	18c002a4 	muli	r3,r3,10
    2580:	e13f9704 	addi	r4,fp,-420
    2584:	20c7883a 	add	r3,r4,r3
    2588:	1885883a 	add	r2,r3,r2
    258c:	10803084 	addi	r2,r2,194
    2590:	10800003 	ldbu	r2,0(r2)
    2594:	10c03fcc 	andi	r3,r2,255
    2598:	e0bffd03 	ldbu	r2,-12(fp)
    259c:	18800b26 	beq	r3,r2,25cc <minimaxAlgorithmRecursive+0x520>
    25a0:	e0ff9803 	ldbu	r3,-416(fp)
    25a4:	e0bf9843 	ldbu	r2,-415(fp)
    25a8:	18c002a4 	muli	r3,r3,10
    25ac:	e13f9704 	addi	r4,fp,-420
    25b0:	20c7883a 	add	r3,r4,r3
    25b4:	1885883a 	add	r2,r3,r2
    25b8:	10803084 	addi	r2,r2,194
    25bc:	10800003 	ldbu	r2,0(r2)
    25c0:	10c03fcc 	andi	r3,r2,255
    25c4:	e0bffe03 	ldbu	r2,-8(fp)
    25c8:	1880021e 	bne	r3,r2,25d4 <minimaxAlgorithmRecursive+0x528>
									{
										enemiesLeft = 1;
    25cc:	00800044 	movi	r2,1
    25d0:	e0bfa015 	stw	r2,-384(fp)
							//copyBoard(((VectorMove *)vectorGet(moveVector,i))->board,newBoard);

							int enemiesLeft = 0;
							for(unsigned char r = 0; r < 10; r++)
							{
								for(unsigned char f = 0; f < 10; f++)
    25d4:	e0bfa143 	ldbu	r2,-379(fp)
    25d8:	10800044 	addi	r2,r2,1
    25dc:	e0bfa145 	stb	r2,-379(fp)
    25e0:	e0bfa143 	ldbu	r2,-379(fp)
    25e4:	108002b0 	cmpltui	r2,r2,10
    25e8:	103fe21e 	bne	r2,zero,2574 <__alt_data_end+0xfc002574>
						{
							unsigned char newBoard[10][10];
							//copyBoard(((VectorMove *)vectorGet(moveVector,i))->board,newBoard);

							int enemiesLeft = 0;
							for(unsigned char r = 0; r < 10; r++)
    25ec:	e0bfa103 	ldbu	r2,-380(fp)
    25f0:	10800044 	addi	r2,r2,1
    25f4:	e0bfa105 	stb	r2,-380(fp)
    25f8:	e0bfa103 	ldbu	r2,-380(fp)
    25fc:	108002b0 	cmpltui	r2,r2,10
    2600:	103fda1e 	bne	r2,zero,256c <__alt_data_end+0xfc00256c>
							#if DEBUG
								printf("R%i: enemiesLeft: %i\n",depth,enemiesLeft);
							#endif

							int score;
							if(enemiesLeft == 1)
    2604:	e0bfa017 	ldw	r2,-384(fp)
    2608:	10800058 	cmpnei	r2,r2,1
    260c:	1000121e 	bne	r2,zero,2658 <minimaxAlgorithmRecursive+0x5ac>
							{
								#if DEBUG
									printf("R%i: there are enemies left",depth);
								#endif
								score = minimaxAlgorithmRecursive((unsigned char **)newBoard, enemy, enemyKing, friendly, friendlyKing, nextDirection, depth-1);
    2610:	e17ffd03 	ldbu	r5,-12(fp)
    2614:	e1bffe03 	ldbu	r6,-8(fp)
    2618:	e1fffb03 	ldbu	r7,-20(fp)
    261c:	e0bffc03 	ldbu	r2,-16(fp)
    2620:	e0ff9e17 	ldw	r3,-392(fp)
    2624:	18c03fcc 	andi	r3,r3,255
    2628:	18c0201c 	xori	r3,r3,128
    262c:	18ffe004 	addi	r3,r3,-128
    2630:	e1000417 	ldw	r4,16(fp)
    2634:	213fffc4 	addi	r4,r4,-1
    2638:	e23fc784 	addi	r8,fp,-226
    263c:	d9000215 	stw	r4,8(sp)
    2640:	d8c00115 	stw	r3,4(sp)
    2644:	d8800015 	stw	r2,0(sp)
    2648:	4009883a 	mov	r4,r8
    264c:	00020ac0 	call	20ac <minimaxAlgorithmRecursive>
    2650:	e0bfa215 	stw	r2,-376(fp)
    2654:	00001006 	br	2698 <minimaxAlgorithmRecursive+0x5ec>
							}
							else if(enemiesLeft == 0)
    2658:	e0bfa017 	ldw	r2,-384(fp)
    265c:	10000e1e 	bne	r2,zero,2698 <minimaxAlgorithmRecursive+0x5ec>
							{
								#if DEBUG
									printf("R%i: kingCapture: there are no enemies left\n",depth);
								#endif
								// if there are no enemies left
								score = minimaxAlgorithmRecursive((unsigned char **)newBoard, enemy, enemyKing, friendly, friendlyKing, nextDirection, 0);
    2660:	e17ffd03 	ldbu	r5,-12(fp)
    2664:	e1bffe03 	ldbu	r6,-8(fp)
    2668:	e1fffb03 	ldbu	r7,-20(fp)
    266c:	e0bffc03 	ldbu	r2,-16(fp)
    2670:	e0ff9e17 	ldw	r3,-392(fp)
    2674:	18c03fcc 	andi	r3,r3,255
    2678:	18c0201c 	xori	r3,r3,128
    267c:	18ffe004 	addi	r3,r3,-128
    2680:	e13fc784 	addi	r4,fp,-226
    2684:	d8000215 	stw	zero,8(sp)
    2688:	d8c00115 	stw	r3,4(sp)
    268c:	d8800015 	stw	r2,0(sp)
    2690:	00020ac0 	call	20ac <minimaxAlgorithmRecursive>
    2694:	e0bfa215 	stw	r2,-376(fp)
							}
							#if DEBUG
								printf("R%i: kingCapture: adding score %i to list\n",depth,score);
							#endif
							vectorAdd(scoreList,(void *)score);
    2698:	e0bfa217 	ldw	r2,-376(fp)
    269c:	100b883a 	mov	r5,r2
    26a0:	e13fa617 	ldw	r4,-360(fp)
    26a4:	0003ea00 	call	3ea0 <vectorAdd>
						deleteMoveVector(moveVector);

						//for every S in V
						//TODO segfault if we do this multiple times
						printf("moveVector->count = %i\n",moveVector->count);
						for(int i = 0; i < moveVector->count; i++)
    26a8:	e0bf9f17 	ldw	r2,-388(fp)
    26ac:	10800044 	addi	r2,r2,1
    26b0:	e0bf9f15 	stw	r2,-388(fp)
    26b4:	e0bfab17 	ldw	r2,-340(fp)
    26b8:	10800217 	ldw	r2,8(r2)
    26bc:	e0ff9f17 	ldw	r3,-388(fp)
    26c0:	18bfa716 	blt	r3,r2,2560 <__alt_data_end+0xfc002560>
								printf("R%i: done %i\n",depth,i);
							#endif
						}
					}

					for(int d = 1;d<=4;d++)
    26c4:	00800044 	movi	r2,1
    26c8:	e0bfa315 	stw	r2,-372(fp)
    26cc:	00004606 	br	27e8 <minimaxAlgorithmRecursive+0x73c>
					{
						if(checkIfCanMove((unsigned char **)b, row, field, d, friendly, friendlyKing, enemy, enemyKing, direction) == 1)
    26d0:	e27f9803 	ldbu	r9,-416(fp)
    26d4:	e2bf9843 	ldbu	r10,-415(fp)
    26d8:	e0bffb03 	ldbu	r2,-20(fp)
    26dc:	e0fffc03 	ldbu	r3,-16(fp)
    26e0:	e13ffd03 	ldbu	r4,-12(fp)
    26e4:	e17ffe03 	ldbu	r5,-8(fp)
    26e8:	e1bfff07 	ldb	r6,-4(fp)
    26ec:	e23fae04 	addi	r8,fp,-328
    26f0:	d9800415 	stw	r6,16(sp)
    26f4:	d9400315 	stw	r5,12(sp)
    26f8:	d9000215 	stw	r4,8(sp)
    26fc:	d8c00115 	stw	r3,4(sp)
    2700:	d8800015 	stw	r2,0(sp)
    2704:	e1ffa317 	ldw	r7,-372(fp)
    2708:	500d883a 	mov	r6,r10
    270c:	480b883a 	mov	r5,r9
    2710:	4009883a 	mov	r4,r8
    2714:	00014940 	call	1494 <checkIfCanMove>
    2718:	10800058 	cmpnei	r2,r2,1
    271c:	10002f1e 	bne	r2,zero,27dc <minimaxAlgorithmRecursive+0x730>
						{
							#if DEBUG
								printf("R%i: [%i][%i] dir %i can move\n",depth,row,field,d);
							#endif
							unsigned char newBoard[10][10];
							memcpy(newBoard,b,100);
    2720:	e0bfc784 	addi	r2,fp,-226
    2724:	e0ffae04 	addi	r3,fp,-328
    2728:	01001904 	movi	r4,100
    272c:	200d883a 	mov	r6,r4
    2730:	180b883a 	mov	r5,r3
    2734:	1009883a 	mov	r4,r2
    2738:	00054340 	call	5434 <memcpy>
							move((unsigned char **)newBoard, row, field, d, friendly, friendlyKing, enemy, enemyKing, direction);
    273c:	e27f9803 	ldbu	r9,-416(fp)
    2740:	e2bf9843 	ldbu	r10,-415(fp)
    2744:	e0bfa317 	ldw	r2,-372(fp)
    2748:	11c03fcc 	andi	r7,r2,255
    274c:	e0bffb03 	ldbu	r2,-20(fp)
    2750:	e0fffc03 	ldbu	r3,-16(fp)
    2754:	e13ffd03 	ldbu	r4,-12(fp)
    2758:	e17ffe03 	ldbu	r5,-8(fp)
    275c:	e1bfff07 	ldb	r6,-4(fp)
    2760:	e23fc784 	addi	r8,fp,-226
    2764:	d9800415 	stw	r6,16(sp)
    2768:	d9400315 	stw	r5,12(sp)
    276c:	d9000215 	stw	r4,8(sp)
    2770:	d8c00115 	stw	r3,4(sp)
    2774:	d8800015 	stw	r2,0(sp)
    2778:	500d883a 	mov	r6,r10
    277c:	480b883a 	mov	r5,r9
    2780:	4009883a 	mov	r4,r8
    2784:	0001e080 	call	1e08 <move>
							int score = minimaxAlgorithmRecursive((unsigned char **)newBoard, enemy, enemyKing, friendly, friendlyKing, nextDirection, depth-1);
    2788:	e17ffd03 	ldbu	r5,-12(fp)
    278c:	e1bffe03 	ldbu	r6,-8(fp)
    2790:	e1fffb03 	ldbu	r7,-20(fp)
    2794:	e0bffc03 	ldbu	r2,-16(fp)
    2798:	e0ff9e17 	ldw	r3,-392(fp)
    279c:	18c03fcc 	andi	r3,r3,255
    27a0:	18c0201c 	xori	r3,r3,128
    27a4:	18ffe004 	addi	r3,r3,-128
    27a8:	e1000417 	ldw	r4,16(fp)
    27ac:	213fffc4 	addi	r4,r4,-1
    27b0:	e23fc784 	addi	r8,fp,-226
    27b4:	d9000215 	stw	r4,8(sp)
    27b8:	d8c00115 	stw	r3,4(sp)
    27bc:	d8800015 	stw	r2,0(sp)
    27c0:	4009883a 	mov	r4,r8
    27c4:	00020ac0 	call	20ac <minimaxAlgorithmRecursive>
    27c8:	e0bfac15 	stw	r2,-336(fp)
							#if DEBUG
								printf("R%i: kingMove: adding score %i to linked list\n",depth,score);
							#endif
							vectorAdd(scoreList,(void *)score);
    27cc:	e0bfac17 	ldw	r2,-336(fp)
    27d0:	100b883a 	mov	r5,r2
    27d4:	e13fa617 	ldw	r4,-360(fp)
    27d8:	0003ea00 	call	3ea0 <vectorAdd>
								printf("R%i: done %i\n",depth,i);
							#endif
						}
					}

					for(int d = 1;d<=4;d++)
    27dc:	e0bfa317 	ldw	r2,-372(fp)
    27e0:	10800044 	addi	r2,r2,1
    27e4:	e0bfa315 	stw	r2,-372(fp)
    27e8:	e0bfa317 	ldw	r2,-372(fp)
    27ec:	10800150 	cmplti	r2,r2,5
    27f0:	103fb71e 	bne	r2,zero,26d0 <__alt_data_end+0xfc0026d0>
	{
		Vector * scoreList = vectorInit();

		for(unsigned char row = 0; row < 10; row++)
		{
			for(unsigned char field = 0; field < 10; field++)
    27f4:	e0bf9843 	ldbu	r2,-415(fp)
    27f8:	10800044 	addi	r2,r2,1
    27fc:	e0bf9845 	stb	r2,-415(fp)
    2800:	e0bf9843 	ldbu	r2,-415(fp)
    2804:	108002b0 	cmpltui	r2,r2,10
    2808:	103e461e 	bne	r2,zero,2124 <__alt_data_end+0xfc002124>

	if(depth > 0)
	{
		Vector * scoreList = vectorInit();

		for(unsigned char row = 0; row < 10; row++)
    280c:	e0bf9803 	ldbu	r2,-416(fp)
    2810:	10800044 	addi	r2,r2,1
    2814:	e0bf9805 	stb	r2,-416(fp)
    2818:	e0bf9803 	ldbu	r2,-416(fp)
    281c:	108002b0 	cmpltui	r2,r2,10
    2820:	103e3e1e 	bne	r2,zero,211c <__alt_data_end+0xfc00211c>
					}
				}
			}
		}

		if(direction == FRIENDLYDIRECTION) bestScore = -1000;
    2824:	e0bfff07 	ldb	r2,-4(fp)
    2828:	10bfffd8 	cmpnei	r2,r2,-1
    282c:	1000031e 	bne	r2,zero,283c <minimaxAlgorithmRecursive+0x790>
    2830:	00bf0604 	movi	r2,-1000
    2834:	e0bf9715 	stw	r2,-420(fp)
    2838:	00000206 	br	2844 <minimaxAlgorithmRecursive+0x798>
		else bestScore = 1000;
    283c:	0080fa04 	movi	r2,1000
    2840:	e0bf9715 	stw	r2,-420(fp)

		for(int count = 0; count < vectorCount(scoreList);count++)
    2844:	e03fa415 	stw	zero,-368(fp)
    2848:	00001806 	br	28ac <minimaxAlgorithmRecursive+0x800>
		{
			int thisScore = (int)vectorGet(scoreList,count);
    284c:	e17fa417 	ldw	r5,-368(fp)
    2850:	e13fa617 	ldw	r4,-360(fp)
    2854:	00040200 	call	4020 <vectorGet>
    2858:	e0bfad15 	stw	r2,-332(fp)
			#if DEBUG
				printf("thisScore: %i\n",thisScore);
			#endif
			if(direction == FRIENDLYDIRECTION && thisScore > bestScore)
    285c:	e0bfff07 	ldb	r2,-4(fp)
    2860:	10bfffd8 	cmpnei	r2,r2,-1
    2864:	1000061e 	bne	r2,zero,2880 <minimaxAlgorithmRecursive+0x7d4>
    2868:	e0bfad17 	ldw	r2,-332(fp)
    286c:	e0ff9717 	ldw	r3,-420(fp)
    2870:	1880030e 	bge	r3,r2,2880 <minimaxAlgorithmRecursive+0x7d4>
			{
				#if DEBUG
					printf("score %i is bigger than best score %i, overwriting\n",thisScore,bestScore);
				#endif
				bestScore = thisScore;
    2874:	e0bfad17 	ldw	r2,-332(fp)
    2878:	e0bf9715 	stw	r2,-420(fp)
    287c:	00000806 	br	28a0 <minimaxAlgorithmRecursive+0x7f4>
			}
			else if(direction == ENEMYDIRECTION && thisScore < bestScore)
    2880:	e0bfff07 	ldb	r2,-4(fp)
    2884:	10800058 	cmpnei	r2,r2,1
    2888:	1000051e 	bne	r2,zero,28a0 <minimaxAlgorithmRecursive+0x7f4>
    288c:	e0ffad17 	ldw	r3,-332(fp)
    2890:	e0bf9717 	ldw	r2,-420(fp)
    2894:	1880020e 	bge	r3,r2,28a0 <minimaxAlgorithmRecursive+0x7f4>
			{
				#if DEBUG
					printf("score %i is smaller than best score %i, overwriting\n",thisScore,bestScore);
				#endif
				bestScore = thisScore;
    2898:	e0bfad17 	ldw	r2,-332(fp)
    289c:	e0bf9715 	stw	r2,-420(fp)
		}

		if(direction == FRIENDLYDIRECTION) bestScore = -1000;
		else bestScore = 1000;

		for(int count = 0; count < vectorCount(scoreList);count++)
    28a0:	e0bfa417 	ldw	r2,-368(fp)
    28a4:	10800044 	addi	r2,r2,1
    28a8:	e0bfa415 	stw	r2,-368(fp)
    28ac:	e13fa617 	ldw	r4,-360(fp)
    28b0:	0003e780 	call	3e78 <vectorCount>
    28b4:	1007883a 	mov	r3,r2
    28b8:	e0bfa417 	ldw	r2,-368(fp)
    28bc:	10ffe316 	blt	r2,r3,284c <__alt_data_end+0xfc00284c>
					printf("score %i is not better than best score %i, not overwriting\n",thisScore,bestScore);
				}
			#endif
		}

		vectorFree(scoreList);
    28c0:	e13fa617 	ldw	r4,-360(fp)
    28c4:	00041ac0 	call	41ac <vectorFree>
    28c8:	00005006 	br	2a0c <minimaxAlgorithmRecursive+0x960>
	}
	else
	{
		bestScore = 0;
    28cc:	e03f9715 	stw	zero,-420(fp)
		//calculate score to return
		for(unsigned char row = 0;row<10;row++)
    28d0:	e03fa505 	stb	zero,-364(fp)
    28d4:	00004a06 	br	2a00 <minimaxAlgorithmRecursive+0x954>
		{
			for(unsigned char field = 0;field<10;field++)
    28d8:	e03fa545 	stb	zero,-363(fp)
    28dc:	00004206 	br	29e8 <minimaxAlgorithmRecursive+0x93c>
			{
				if(b[row][field] == FRIENDLY)		bestScore = bestScore + (9-row);
    28e0:	e0ffa503 	ldbu	r3,-364(fp)
    28e4:	e0bfa543 	ldbu	r2,-363(fp)
    28e8:	18c002a4 	muli	r3,r3,10
    28ec:	e13f9704 	addi	r4,fp,-420
    28f0:	20c7883a 	add	r3,r4,r3
    28f4:	1885883a 	add	r2,r3,r2
    28f8:	10801704 	addi	r2,r2,92
    28fc:	10800003 	ldbu	r2,0(r2)
    2900:	10803fcc 	andi	r2,r2,255
    2904:	10800098 	cmpnei	r2,r2,2
    2908:	1000071e 	bne	r2,zero,2928 <minimaxAlgorithmRecursive+0x87c>
    290c:	e0bfa503 	ldbu	r2,-364(fp)
    2910:	00c00244 	movi	r3,9
    2914:	1885c83a 	sub	r2,r3,r2
    2918:	e0ff9717 	ldw	r3,-420(fp)
    291c:	1885883a 	add	r2,r3,r2
    2920:	e0bf9715 	stw	r2,-420(fp)
    2924:	00002d06 	br	29dc <minimaxAlgorithmRecursive+0x930>
				else if(b[row][field] == FRIENDLYKING)	bestScore = bestScore + 9;
    2928:	e0ffa503 	ldbu	r3,-364(fp)
    292c:	e0bfa543 	ldbu	r2,-363(fp)
    2930:	18c002a4 	muli	r3,r3,10
    2934:	e13f9704 	addi	r4,fp,-420
    2938:	20c7883a 	add	r3,r4,r3
    293c:	1885883a 	add	r2,r3,r2
    2940:	10801704 	addi	r2,r2,92
    2944:	10800003 	ldbu	r2,0(r2)
    2948:	10803fcc 	andi	r2,r2,255
    294c:	108000d8 	cmpnei	r2,r2,3
    2950:	1000041e 	bne	r2,zero,2964 <minimaxAlgorithmRecursive+0x8b8>
    2954:	e0bf9717 	ldw	r2,-420(fp)
    2958:	10800244 	addi	r2,r2,9
    295c:	e0bf9715 	stw	r2,-420(fp)
    2960:	00001e06 	br	29dc <minimaxAlgorithmRecursive+0x930>
				else if(b[row][field] == ENEMY)		bestScore = bestScore - row;
    2964:	e0ffa503 	ldbu	r3,-364(fp)
    2968:	e0bfa543 	ldbu	r2,-363(fp)
    296c:	18c002a4 	muli	r3,r3,10
    2970:	e13f9704 	addi	r4,fp,-420
    2974:	20c7883a 	add	r3,r4,r3
    2978:	1885883a 	add	r2,r3,r2
    297c:	10801704 	addi	r2,r2,92
    2980:	10800003 	ldbu	r2,0(r2)
    2984:	10803fcc 	andi	r2,r2,255
    2988:	10800118 	cmpnei	r2,r2,4
    298c:	1000051e 	bne	r2,zero,29a4 <minimaxAlgorithmRecursive+0x8f8>
    2990:	e0bfa503 	ldbu	r2,-364(fp)
    2994:	e0ff9717 	ldw	r3,-420(fp)
    2998:	1885c83a 	sub	r2,r3,r2
    299c:	e0bf9715 	stw	r2,-420(fp)
    29a0:	00000e06 	br	29dc <minimaxAlgorithmRecursive+0x930>
				else if(b[row][field] == ENEMYKING)	bestScore = bestScore - 9;
    29a4:	e0ffa503 	ldbu	r3,-364(fp)
    29a8:	e0bfa543 	ldbu	r2,-363(fp)
    29ac:	18c002a4 	muli	r3,r3,10
    29b0:	e13f9704 	addi	r4,fp,-420
    29b4:	20c7883a 	add	r3,r4,r3
    29b8:	1885883a 	add	r2,r3,r2
    29bc:	10801704 	addi	r2,r2,92
    29c0:	10800003 	ldbu	r2,0(r2)
    29c4:	10803fcc 	andi	r2,r2,255
    29c8:	10800158 	cmpnei	r2,r2,5
    29cc:	1000031e 	bne	r2,zero,29dc <minimaxAlgorithmRecursive+0x930>
    29d0:	e0bf9717 	ldw	r2,-420(fp)
    29d4:	10bffdc4 	addi	r2,r2,-9
    29d8:	e0bf9715 	stw	r2,-420(fp)
	{
		bestScore = 0;
		//calculate score to return
		for(unsigned char row = 0;row<10;row++)
		{
			for(unsigned char field = 0;field<10;field++)
    29dc:	e0bfa543 	ldbu	r2,-363(fp)
    29e0:	10800044 	addi	r2,r2,1
    29e4:	e0bfa545 	stb	r2,-363(fp)
    29e8:	e0bfa543 	ldbu	r2,-363(fp)
    29ec:	108002b0 	cmpltui	r2,r2,10
    29f0:	103fbb1e 	bne	r2,zero,28e0 <__alt_data_end+0xfc0028e0>
	}
	else
	{
		bestScore = 0;
		//calculate score to return
		for(unsigned char row = 0;row<10;row++)
    29f4:	e0bfa503 	ldbu	r2,-364(fp)
    29f8:	10800044 	addi	r2,r2,1
    29fc:	e0bfa505 	stb	r2,-364(fp)
    2a00:	e0bfa503 	ldbu	r2,-364(fp)
    2a04:	108002b0 	cmpltui	r2,r2,10
    2a08:	103fb31e 	bne	r2,zero,28d8 <__alt_data_end+0xfc0028d8>
		#if DEBUG
			printf("R%i: calculated score: %i\n",depth,bestScore);
		#endif
	}

	return bestScore;
    2a0c:	e0bf9717 	ldw	r2,-420(fp)
}
    2a10:	e037883a 	mov	sp,fp
    2a14:	dfc00117 	ldw	ra,4(sp)
    2a18:	df000017 	ldw	fp,0(sp)
    2a1c:	dec00204 	addi	sp,sp,8
    2a20:	f800283a 	ret

00002a24 <minimaxAlgorithm>:
	unsigned char isCapture;
	struct Move * kingCaptureMoveList;
};

int minimaxAlgorithm(unsigned char * tempBoard[], unsigned char friendly, unsigned char friendlyKing, unsigned char enemy, unsigned char enemyKing, signed char direction, int depth)
{
    2a24:	deff8504 	addi	sp,sp,-492
    2a28:	dfc07a15 	stw	ra,488(sp)
    2a2c:	df007915 	stw	fp,484(sp)
    2a30:	df007904 	addi	fp,sp,484
    2a34:	e13ffa15 	stw	r4,-24(fp)
    2a38:	2811883a 	mov	r8,r5
    2a3c:	300b883a 	mov	r5,r6
    2a40:	3809883a 	mov	r4,r7
    2a44:	e0c00217 	ldw	r3,8(fp)
    2a48:	e0800317 	ldw	r2,12(fp)
    2a4c:	e23ffb05 	stb	r8,-20(fp)
    2a50:	e17ffc05 	stb	r5,-16(fp)
    2a54:	e13ffd05 	stb	r4,-12(fp)
    2a58:	e0fffe05 	stb	r3,-8(fp)
    2a5c:	e0bfff05 	stb	r2,-4(fp)
	createKing((unsigned char **)tempBoard);
    2a60:	e13ffa17 	ldw	r4,-24(fp)
    2a64:	0001fd80 	call	1fd8 <createKing>

	unsigned char b[10][10];
	memcpy(b,tempBoard,100);
    2a68:	e0bfab04 	addi	r2,fp,-340
    2a6c:	01801904 	movi	r6,100
    2a70:	e17ffa17 	ldw	r5,-24(fp)
    2a74:	1009883a 	mov	r4,r2
    2a78:	00054340 	call	5434 <memcpy>

	Vector * scoreList = vectorInit();
    2a7c:	0003e2c0 	call	3e2c <vectorInit>
    2a80:	e0bf8c15 	stw	r2,-464(fp)

	int thereAreFriendliesLeft = 0;
    2a84:	e03f8d15 	stw	zero,-460(fp)

	for(unsigned char row = 0; row < 10; row++)
    2a88:	e03f8e05 	stb	zero,-456(fp)
    2a8c:	00023406 	br	3360 <minimaxAlgorithm+0x93c>
	{
		for(unsigned char field = 0; field < 10; field++)
    2a90:	e03f8e45 	stb	zero,-455(fp)
    2a94:	00022c06 	br	3348 <minimaxAlgorithm+0x924>
		{
			if(b[row][field] == friendly)
    2a98:	e0ff8e03 	ldbu	r3,-456(fp)
    2a9c:	e0bf8e43 	ldbu	r2,-455(fp)
    2aa0:	18c002a4 	muli	r3,r3,10
    2aa4:	e13f8c04 	addi	r4,fp,-464
    2aa8:	20c7883a 	add	r3,r4,r3
    2aac:	1885883a 	add	r2,r3,r2
    2ab0:	10801f04 	addi	r2,r2,124
    2ab4:	10800003 	ldbu	r2,0(r2)
    2ab8:	10c03fcc 	andi	r3,r2,255
    2abc:	e0bffb03 	ldbu	r2,-20(fp)
    2ac0:	1880de1e 	bne	r3,r2,2e3c <minimaxAlgorithm+0x418>
			{
				thereAreFriendliesLeft = 1;
    2ac4:	00800044 	movi	r2,1
    2ac8:	e0bf8d15 	stw	r2,-460(fp)
				int nextDirection;
				if(direction == FRIENDLYDIRECTION) nextDirection = ENEMYDIRECTION;
    2acc:	e0bfff07 	ldb	r2,-4(fp)
    2ad0:	10bfffd8 	cmpnei	r2,r2,-1
    2ad4:	1000021e 	bne	r2,zero,2ae0 <minimaxAlgorithm+0xbc>
    2ad8:	00800044 	movi	r2,1
    2adc:	e0bf8f15 	stw	r2,-452(fp)
				if(direction == ENEMYDIRECTION) nextDirection = FRIENDLYDIRECTION;
    2ae0:	e0bfff07 	ldb	r2,-4(fp)
    2ae4:	10800058 	cmpnei	r2,r2,1
    2ae8:	1000021e 	bne	r2,zero,2af4 <minimaxAlgorithm+0xd0>
    2aec:	00bfffc4 	movi	r2,-1
    2af0:	e0bf8f15 	stw	r2,-452(fp)

				unsigned char newBoard[10][10];
				memcpy(newBoard,b,100);
    2af4:	e0bfe084 	addi	r2,fp,-126
    2af8:	e0ffab04 	addi	r3,fp,-340
    2afc:	01001904 	movi	r4,100
    2b00:	200d883a 	mov	r6,r4
    2b04:	180b883a 	mov	r5,r3
    2b08:	1009883a 	mov	r4,r2
    2b0c:	00054340 	call	5434 <memcpy>

				int captured = manCapture((unsigned char **)newBoard, row, field, friendly, friendlyKing, enemy, enemyKing);
    2b10:	e17f8e03 	ldbu	r5,-456(fp)
    2b14:	e1bf8e43 	ldbu	r6,-455(fp)
    2b18:	e1fffb03 	ldbu	r7,-20(fp)
    2b1c:	e0bffc03 	ldbu	r2,-16(fp)
    2b20:	e0fffd03 	ldbu	r3,-12(fp)
    2b24:	e13ffe03 	ldbu	r4,-8(fp)
    2b28:	e23fe084 	addi	r8,fp,-126
    2b2c:	d9000215 	stw	r4,8(sp)
    2b30:	d8c00115 	stw	r3,4(sp)
    2b34:	d8800015 	stw	r2,0(sp)
    2b38:	4009883a 	mov	r4,r8
    2b3c:	00012200 	call	1220 <manCapture>
    2b40:	10803fcc 	andi	r2,r2,255
    2b44:	e0bf9f15 	stw	r2,-388(fp)
				if(captured)
    2b48:	e0bf9f17 	ldw	r2,-388(fp)
    2b4c:	10005d26 	beq	r2,zero,2cc4 <minimaxAlgorithm+0x2a0>
				{
					#if DEBUG
						printf("S : [%i][%i] can capture\n",row,field);
					#endif
					int enemiesLeft = 0;
    2b50:	e03f9015 	stw	zero,-448(fp)
					for(unsigned char r = 0; r < 10; r++)
    2b54:	e03f9105 	stb	zero,-444(fp)
    2b58:	00002306 	br	2be8 <minimaxAlgorithm+0x1c4>
					{
						for(unsigned char f = 0; f < 10; f++)
    2b5c:	e03f9145 	stb	zero,-443(fp)
    2b60:	00001b06 	br	2bd0 <minimaxAlgorithm+0x1ac>
						{
							if(newBoard[row][field] == enemy || newBoard[row][field] == enemyKing)
    2b64:	e0ff8e03 	ldbu	r3,-456(fp)
    2b68:	e0bf8e43 	ldbu	r2,-455(fp)
    2b6c:	18c002a4 	muli	r3,r3,10
    2b70:	e17f8c04 	addi	r5,fp,-464
    2b74:	28c7883a 	add	r3,r5,r3
    2b78:	1885883a 	add	r2,r3,r2
    2b7c:	10805484 	addi	r2,r2,338
    2b80:	10800003 	ldbu	r2,0(r2)
    2b84:	10c03fcc 	andi	r3,r2,255
    2b88:	e0bffd03 	ldbu	r2,-12(fp)
    2b8c:	18800b26 	beq	r3,r2,2bbc <minimaxAlgorithm+0x198>
    2b90:	e0ff8e03 	ldbu	r3,-456(fp)
    2b94:	e0bf8e43 	ldbu	r2,-455(fp)
    2b98:	18c002a4 	muli	r3,r3,10
    2b9c:	e13f8c04 	addi	r4,fp,-464
    2ba0:	20c7883a 	add	r3,r4,r3
    2ba4:	1885883a 	add	r2,r3,r2
    2ba8:	10805484 	addi	r2,r2,338
    2bac:	10800003 	ldbu	r2,0(r2)
    2bb0:	10c03fcc 	andi	r3,r2,255
    2bb4:	e0bffe03 	ldbu	r2,-8(fp)
    2bb8:	1880021e 	bne	r3,r2,2bc4 <minimaxAlgorithm+0x1a0>
							{
								enemiesLeft = 1;
    2bbc:	00800044 	movi	r2,1
    2bc0:	e0bf9015 	stw	r2,-448(fp)
						printf("S : [%i][%i] can capture\n",row,field);
					#endif
					int enemiesLeft = 0;
					for(unsigned char r = 0; r < 10; r++)
					{
						for(unsigned char f = 0; f < 10; f++)
    2bc4:	e0bf9143 	ldbu	r2,-443(fp)
    2bc8:	10800044 	addi	r2,r2,1
    2bcc:	e0bf9145 	stb	r2,-443(fp)
    2bd0:	e0bf9143 	ldbu	r2,-443(fp)
    2bd4:	108002b0 	cmpltui	r2,r2,10
    2bd8:	103fe21e 	bne	r2,zero,2b64 <__alt_data_end+0xfc002b64>
				{
					#if DEBUG
						printf("S : [%i][%i] can capture\n",row,field);
					#endif
					int enemiesLeft = 0;
					for(unsigned char r = 0; r < 10; r++)
    2bdc:	e0bf9103 	ldbu	r2,-444(fp)
    2be0:	10800044 	addi	r2,r2,1
    2be4:	e0bf9105 	stb	r2,-444(fp)
    2be8:	e0bf9103 	ldbu	r2,-444(fp)
    2bec:	108002b0 	cmpltui	r2,r2,10
    2bf0:	103fda1e 	bne	r2,zero,2b5c <__alt_data_end+0xfc002b5c>
					}
					#if DEBUG
						printf("enemiesLeft: %i\n",enemiesLeft);
					#endif
					int score;
					if(enemiesLeft == 1)
    2bf4:	e0bf9017 	ldw	r2,-448(fp)
    2bf8:	10800058 	cmpnei	r2,r2,1
    2bfc:	1000121e 	bne	r2,zero,2c48 <minimaxAlgorithm+0x224>
					{
						#if DEBUG
							printf("S : there are enemies left");
						#endif
						score = minimaxAlgorithmRecursive((unsigned char **)newBoard, enemy, enemyKing, friendly, friendlyKing, nextDirection, depth-1);
    2c00:	e17ffd03 	ldbu	r5,-12(fp)
    2c04:	e1bffe03 	ldbu	r6,-8(fp)
    2c08:	e1fffb03 	ldbu	r7,-20(fp)
    2c0c:	e0bffc03 	ldbu	r2,-16(fp)
    2c10:	e0ff8f17 	ldw	r3,-452(fp)
    2c14:	18c03fcc 	andi	r3,r3,255
    2c18:	18c0201c 	xori	r3,r3,128
    2c1c:	18ffe004 	addi	r3,r3,-128
    2c20:	e1000417 	ldw	r4,16(fp)
    2c24:	213fffc4 	addi	r4,r4,-1
    2c28:	e23fe084 	addi	r8,fp,-126
    2c2c:	d9000215 	stw	r4,8(sp)
    2c30:	d8c00115 	stw	r3,4(sp)
    2c34:	d8800015 	stw	r2,0(sp)
    2c38:	4009883a 	mov	r4,r8
    2c3c:	00020ac0 	call	20ac <minimaxAlgorithmRecursive>
    2c40:	e0bf9215 	stw	r2,-440(fp)
    2c44:	00000e06 	br	2c80 <minimaxAlgorithm+0x25c>
					{
						#if DEBUG
							printf("S : manCapture: there are no enemies left\n");
						#endif
						// if there are no enemies left
						score = minimaxAlgorithmRecursive((unsigned char **)newBoard, enemy, enemyKing, friendly, friendlyKing, nextDirection, 0);
    2c48:	e17ffd03 	ldbu	r5,-12(fp)
    2c4c:	e1bffe03 	ldbu	r6,-8(fp)
    2c50:	e1fffb03 	ldbu	r7,-20(fp)
    2c54:	e0bffc03 	ldbu	r2,-16(fp)
    2c58:	e0ff8f17 	ldw	r3,-452(fp)
    2c5c:	18c03fcc 	andi	r3,r3,255
    2c60:	18c0201c 	xori	r3,r3,128
    2c64:	18ffe004 	addi	r3,r3,-128
    2c68:	e13fe084 	addi	r4,fp,-126
    2c6c:	d8000215 	stw	zero,8(sp)
    2c70:	d8c00115 	stw	r3,4(sp)
    2c74:	d8800015 	stw	r2,0(sp)
    2c78:	00020ac0 	call	20ac <minimaxAlgorithmRecursive>
    2c7c:	e0bf9215 	stw	r2,-440(fp)
					#if DEBUG
						printf("S : manCapture: adding score %i to list\n",score);
					#endif

					struct nodeMove * currentMove;
					currentMove->score = score;
    2c80:	e0bfa017 	ldw	r2,-384(fp)
    2c84:	e0ff9217 	ldw	r3,-440(fp)
    2c88:	10c00015 	stw	r3,0(r2)
					currentMove->row = row;
    2c8c:	e0bfa017 	ldw	r2,-384(fp)
    2c90:	e0ff8e03 	ldbu	r3,-456(fp)
    2c94:	10c00105 	stb	r3,4(r2)
					currentMove->field = field;
    2c98:	e0bfa017 	ldw	r2,-384(fp)
    2c9c:	e0ff8e43 	ldbu	r3,-455(fp)
    2ca0:	10c00145 	stb	r3,5(r2)
					currentMove->dir = 0;
    2ca4:	e0bfa017 	ldw	r2,-384(fp)
    2ca8:	10000185 	stb	zero,6(r2)
					currentMove->isCapture = 1;
    2cac:	e0bfa017 	ldw	r2,-384(fp)
    2cb0:	00c00044 	movi	r3,1
    2cb4:	10c001c5 	stb	r3,7(r2)
					vectorAdd(scoreList,(void *)currentMove);
    2cb8:	e17fa017 	ldw	r5,-384(fp)
    2cbc:	e13f8c17 	ldw	r4,-464(fp)
    2cc0:	0003ea00 	call	3ea0 <vectorAdd>
				}

				for(int d = 1;d<=4;d++)
    2cc4:	00800044 	movi	r2,1
    2cc8:	e0bf9315 	stw	r2,-436(fp)
    2ccc:	00005706 	br	2e2c <minimaxAlgorithm+0x408>
				{
					if(checkIfCanMove((unsigned char **)b, row, field, d, friendly, friendlyKing, enemy, enemyKing, direction) == 1)
    2cd0:	e27f8e03 	ldbu	r9,-456(fp)
    2cd4:	e2bf8e43 	ldbu	r10,-455(fp)
    2cd8:	e0bffb03 	ldbu	r2,-20(fp)
    2cdc:	e0fffc03 	ldbu	r3,-16(fp)
    2ce0:	e13ffd03 	ldbu	r4,-12(fp)
    2ce4:	e17ffe03 	ldbu	r5,-8(fp)
    2ce8:	e1bfff07 	ldb	r6,-4(fp)
    2cec:	e23fab04 	addi	r8,fp,-340
    2cf0:	d9800415 	stw	r6,16(sp)
    2cf4:	d9400315 	stw	r5,12(sp)
    2cf8:	d9000215 	stw	r4,8(sp)
    2cfc:	d8c00115 	stw	r3,4(sp)
    2d00:	d8800015 	stw	r2,0(sp)
    2d04:	e1ff9317 	ldw	r7,-436(fp)
    2d08:	500d883a 	mov	r6,r10
    2d0c:	480b883a 	mov	r5,r9
    2d10:	4009883a 	mov	r4,r8
    2d14:	00014940 	call	1494 <checkIfCanMove>
    2d18:	10800058 	cmpnei	r2,r2,1
    2d1c:	1000401e 	bne	r2,zero,2e20 <minimaxAlgorithm+0x3fc>
					{
						#if DEBUG
							printf("S : [%i][%i] dir %i can move\n",row,field,d);
						#endif
						unsigned char newBoard[10][10];
						memcpy(newBoard,b,100);
    2d20:	e0bfc784 	addi	r2,fp,-226
    2d24:	e0ffab04 	addi	r3,fp,-340
    2d28:	01001904 	movi	r4,100
    2d2c:	200d883a 	mov	r6,r4
    2d30:	180b883a 	mov	r5,r3
    2d34:	1009883a 	mov	r4,r2
    2d38:	00054340 	call	5434 <memcpy>
						move((unsigned char **)newBoard, row, field, d, friendly, friendlyKing, enemy, enemyKing, direction);
    2d3c:	e27f8e03 	ldbu	r9,-456(fp)
    2d40:	e2bf8e43 	ldbu	r10,-455(fp)
    2d44:	e0bf9317 	ldw	r2,-436(fp)
    2d48:	11c03fcc 	andi	r7,r2,255
    2d4c:	e0bffb03 	ldbu	r2,-20(fp)
    2d50:	e0fffc03 	ldbu	r3,-16(fp)
    2d54:	e13ffd03 	ldbu	r4,-12(fp)
    2d58:	e17ffe03 	ldbu	r5,-8(fp)
    2d5c:	e1bfff07 	ldb	r6,-4(fp)
    2d60:	e23fc784 	addi	r8,fp,-226
    2d64:	d9800415 	stw	r6,16(sp)
    2d68:	d9400315 	stw	r5,12(sp)
    2d6c:	d9000215 	stw	r4,8(sp)
    2d70:	d8c00115 	stw	r3,4(sp)
    2d74:	d8800015 	stw	r2,0(sp)
    2d78:	500d883a 	mov	r6,r10
    2d7c:	480b883a 	mov	r5,r9
    2d80:	4009883a 	mov	r4,r8
    2d84:	0001e080 	call	1e08 <move>
						int score = minimaxAlgorithmRecursive((unsigned char **)newBoard, enemy, enemyKing, friendly, friendlyKing, nextDirection, depth-1);
    2d88:	e17ffd03 	ldbu	r5,-12(fp)
    2d8c:	e1bffe03 	ldbu	r6,-8(fp)
    2d90:	e1fffb03 	ldbu	r7,-20(fp)
    2d94:	e0bffc03 	ldbu	r2,-16(fp)
    2d98:	e0ff8f17 	ldw	r3,-452(fp)
    2d9c:	18c03fcc 	andi	r3,r3,255
    2da0:	18c0201c 	xori	r3,r3,128
    2da4:	18ffe004 	addi	r3,r3,-128
    2da8:	e1000417 	ldw	r4,16(fp)
    2dac:	213fffc4 	addi	r4,r4,-1
    2db0:	e23fc784 	addi	r8,fp,-226
    2db4:	d9000215 	stw	r4,8(sp)
    2db8:	d8c00115 	stw	r3,4(sp)
    2dbc:	d8800015 	stw	r2,0(sp)
    2dc0:	4009883a 	mov	r4,r8
    2dc4:	00020ac0 	call	20ac <minimaxAlgorithmRecursive>
    2dc8:	e0bfa115 	stw	r2,-380(fp)

						#if DEBUG
							printf("S : manMove: adding score %i to linked list HI\n",score);
						#endif

						struct nodeMove * currentMove = malloc(sizeof(struct nodeMove));
    2dcc:	01000304 	movi	r4,12
    2dd0:	0004b1c0 	call	4b1c <malloc>
    2dd4:	e0bfa215 	stw	r2,-376(fp)
						currentMove->score = score;
    2dd8:	e0bfa217 	ldw	r2,-376(fp)
    2ddc:	e0ffa117 	ldw	r3,-380(fp)
    2de0:	10c00015 	stw	r3,0(r2)
						currentMove->row = row;
    2de4:	e0bfa217 	ldw	r2,-376(fp)
    2de8:	e0ff8e03 	ldbu	r3,-456(fp)
    2dec:	10c00105 	stb	r3,4(r2)
						currentMove->field = field;
    2df0:	e0bfa217 	ldw	r2,-376(fp)
    2df4:	e0ff8e43 	ldbu	r3,-455(fp)
    2df8:	10c00145 	stb	r3,5(r2)
						currentMove->dir = d;
    2dfc:	e0bf9317 	ldw	r2,-436(fp)
    2e00:	1007883a 	mov	r3,r2
    2e04:	e0bfa217 	ldw	r2,-376(fp)
    2e08:	10c00185 	stb	r3,6(r2)
						currentMove->isCapture = 0;
    2e0c:	e0bfa217 	ldw	r2,-376(fp)
    2e10:	100001c5 	stb	zero,7(r2)

						#if DEBUG
							printf("S : manMove: calling vectorAdd\n");
						#endif

						vectorAdd(scoreList,(void *)currentMove);
    2e14:	e17fa217 	ldw	r5,-376(fp)
    2e18:	e13f8c17 	ldw	r4,-464(fp)
    2e1c:	0003ea00 	call	3ea0 <vectorAdd>
					currentMove->dir = 0;
					currentMove->isCapture = 1;
					vectorAdd(scoreList,(void *)currentMove);
				}

				for(int d = 1;d<=4;d++)
    2e20:	e0bf9317 	ldw	r2,-436(fp)
    2e24:	10800044 	addi	r2,r2,1
    2e28:	e0bf9315 	stw	r2,-436(fp)
    2e2c:	e0bf9317 	ldw	r2,-436(fp)
    2e30:	10800150 	cmplti	r2,r2,5
    2e34:	103fa61e 	bne	r2,zero,2cd0 <__alt_data_end+0xfc002cd0>
    2e38:	00014006 	br	333c <minimaxAlgorithm+0x918>
							printf("S : manMove: added score to list\n");
						#endif
					}
				}
			}
			else if(b[row][field] == friendlyKing)
    2e3c:	e0ff8e03 	ldbu	r3,-456(fp)
    2e40:	e0bf8e43 	ldbu	r2,-455(fp)
    2e44:	18c002a4 	muli	r3,r3,10
    2e48:	e17f8c04 	addi	r5,fp,-464
    2e4c:	28c7883a 	add	r3,r5,r3
    2e50:	1885883a 	add	r2,r3,r2
    2e54:	10801f04 	addi	r2,r2,124
    2e58:	10800003 	ldbu	r2,0(r2)
    2e5c:	10c03fcc 	andi	r3,r2,255
    2e60:	e0bffc03 	ldbu	r2,-16(fp)
    2e64:	1881351e 	bne	r3,r2,333c <minimaxAlgorithm+0x918>
			{
				thereAreFriendliesLeft = 1;
    2e68:	00800044 	movi	r2,1
    2e6c:	e0bf8d15 	stw	r2,-460(fp)
				int nextDirection;
				if(direction == FRIENDLYDIRECTION) nextDirection = ENEMYDIRECTION;
    2e70:	e0bfff07 	ldb	r2,-4(fp)
    2e74:	10bfffd8 	cmpnei	r2,r2,-1
    2e78:	1000021e 	bne	r2,zero,2e84 <minimaxAlgorithm+0x460>
    2e7c:	00800044 	movi	r2,1
    2e80:	e0bf9415 	stw	r2,-432(fp)
				if(direction == ENEMYDIRECTION) nextDirection = FRIENDLYDIRECTION;
    2e84:	e0bfff07 	ldb	r2,-4(fp)
    2e88:	10800058 	cmpnei	r2,r2,1
    2e8c:	1000021e 	bne	r2,zero,2e98 <minimaxAlgorithm+0x474>
    2e90:	00bfffc4 	movi	r2,-1
    2e94:	e0bf9415 	stw	r2,-432(fp)

				Location l;
				l.row = row;
    2e98:	e0bf8e03 	ldbu	r2,-456(fp)
    2e9c:	e0bfc745 	stb	r2,-227(fp)
				l.field = field;
    2ea0:	e0bf8e43 	ldbu	r2,-455(fp)
    2ea4:	e0bfc705 	stb	r2,-228(fp)
				Vector * captures = kingCapture(l,(unsigned char **)tempBoard, friendly, friendlyKing, enemy, enemyKing);
    2ea8:	e13ffb03 	ldbu	r4,-20(fp)
    2eac:	e17ffc03 	ldbu	r5,-16(fp)
    2eb0:	e0bffd03 	ldbu	r2,-12(fp)
    2eb4:	e0fffe03 	ldbu	r3,-8(fp)
    2eb8:	d8c00115 	stw	r3,4(sp)
    2ebc:	d8800015 	stw	r2,0(sp)
    2ec0:	280f883a 	mov	r7,r5
    2ec4:	200d883a 	mov	r6,r4
    2ec8:	e17ffa17 	ldw	r5,-24(fp)
    2ecc:	e13fc717 	ldw	r4,-228(fp)
    2ed0:	00006c00 	call	6c0 <kingCapture>
    2ed4:	e0bfa315 	stw	r2,-372(fp)

				if(captures->count != 0)
    2ed8:	e0bfa317 	ldw	r2,-372(fp)
    2edc:	10800217 	ldw	r2,8(r2)
    2ee0:	1000bc26 	beq	r2,zero,31d4 <minimaxAlgorithm+0x7b0>
				{
					#if DEBUG
						printf("S : [%i][%i] can capture\n",row,field);
					#endif

					stripCaptureVector(captures, 0);
    2ee4:	000b883a 	mov	r5,zero
    2ee8:	e13fa317 	ldw	r4,-372(fp)
    2eec:	0000c680 	call	c68 <stripCaptureVector>

					Vector * moveVector = vectorInit();
    2ef0:	0003e2c0 	call	3e2c <vectorInit>
    2ef4:	e0bfa415 	stw	r2,-368(fp)
					generateCaptureList(captures, NULL, moveVector, -1);
    2ef8:	01c03fc4 	movi	r7,255
    2efc:	e1bfa417 	ldw	r6,-368(fp)
    2f00:	000b883a 	mov	r5,zero
    2f04:	e13fa317 	ldw	r4,-372(fp)
    2f08:	000104c0 	call	104c <generateCaptureList>
					#if DEBUG
						printf("moveVector->count: %i\n",moveVector->count);
					#endif

					//for every S in V
					for(int i = 0; i < moveVector->count; i++)
    2f0c:	e03f9515 	stw	zero,-428(fp)
    2f10:	0000ac06 	br	31c4 <minimaxAlgorithm+0x7a0>
					{
						struct Move * moveList = (struct Move *)vectorGet(moveVector,i);
    2f14:	e17f9517 	ldw	r5,-428(fp)
    2f18:	e13fa417 	ldw	r4,-368(fp)
    2f1c:	00040200 	call	4020 <vectorGet>
    2f20:	e0bf9615 	stw	r2,-424(fp)
							printf("yes\n");
						#endif

						unsigned char newBoard[10][10];

						memcpy(newBoard, board, 100);
    2f24:	008000f4 	movhi	r2,3
    2f28:	10a1e604 	addi	r2,r2,-30824
    2f2c:	e0ffc784 	addi	r3,fp,-226
    2f30:	1009883a 	mov	r4,r2
    2f34:	00801904 	movi	r2,100
    2f38:	100d883a 	mov	r6,r2
    2f3c:	200b883a 	mov	r5,r4
    2f40:	1809883a 	mov	r4,r3
    2f44:	00054340 	call	5434 <memcpy>
						while(moveList->nextMove != NULL){
    2f48:	00003506 	br	3020 <minimaxAlgorithm+0x5fc>
							newBoard[moveList->newLocation.row][moveList->newLocation.field] = board[moveList->oldLocation.row][moveList->oldLocation.field];
    2f4c:	e0bf9617 	ldw	r2,-424(fp)
    2f50:	108000c3 	ldbu	r2,3(r2)
    2f54:	11403fcc 	andi	r5,r2,255
    2f58:	e0bf9617 	ldw	r2,-424(fp)
    2f5c:	10800083 	ldbu	r2,2(r2)
    2f60:	11003fcc 	andi	r4,r2,255
    2f64:	e0bf9617 	ldw	r2,-424(fp)
    2f68:	10800043 	ldbu	r2,1(r2)
    2f6c:	11803fcc 	andi	r6,r2,255
    2f70:	e0bf9617 	ldw	r2,-424(fp)
    2f74:	10800003 	ldbu	r2,0(r2)
    2f78:	10c03fcc 	andi	r3,r2,255
    2f7c:	008000f4 	movhi	r2,3
    2f80:	10a1e604 	addi	r2,r2,-30824
    2f84:	318002a4 	muli	r6,r6,10
    2f88:	1185883a 	add	r2,r2,r6
    2f8c:	10c5883a 	add	r2,r2,r3
    2f90:	10c00003 	ldbu	r3,0(r2)
    2f94:	288002a4 	muli	r2,r5,10
    2f98:	e17f8c04 	addi	r5,fp,-464
    2f9c:	2885883a 	add	r2,r5,r2
    2fa0:	1105883a 	add	r2,r2,r4
    2fa4:	10803b84 	addi	r2,r2,238
    2fa8:	10c00005 	stb	r3,0(r2)
							newBoard[moveList->oldLocation.row][moveList->oldLocation.field] = BLACK;
    2fac:	e0bf9617 	ldw	r2,-424(fp)
    2fb0:	10800043 	ldbu	r2,1(r2)
    2fb4:	10c03fcc 	andi	r3,r2,255
    2fb8:	e0bf9617 	ldw	r2,-424(fp)
    2fbc:	10800003 	ldbu	r2,0(r2)
    2fc0:	10803fcc 	andi	r2,r2,255
    2fc4:	18c002a4 	muli	r3,r3,10
    2fc8:	e13f8c04 	addi	r4,fp,-464
    2fcc:	20c7883a 	add	r3,r4,r3
    2fd0:	1885883a 	add	r2,r3,r2
    2fd4:	10803b84 	addi	r2,r2,238
    2fd8:	00c00044 	movi	r3,1
    2fdc:	10c00005 	stb	r3,0(r2)
							newBoard[moveList->capture.captureLocation.row][moveList->capture.captureLocation.field] = BLACK;
    2fe0:	e0bf9617 	ldw	r2,-424(fp)
    2fe4:	10800143 	ldbu	r2,5(r2)
    2fe8:	10c03fcc 	andi	r3,r2,255
    2fec:	e0bf9617 	ldw	r2,-424(fp)
    2ff0:	10800103 	ldbu	r2,4(r2)
    2ff4:	10803fcc 	andi	r2,r2,255
    2ff8:	18c002a4 	muli	r3,r3,10
    2ffc:	e17f8c04 	addi	r5,fp,-464
    3000:	28c7883a 	add	r3,r5,r3
    3004:	1885883a 	add	r2,r3,r2
    3008:	10803b84 	addi	r2,r2,238
    300c:	00c00044 	movi	r3,1
    3010:	10c00005 	stb	r3,0(r2)
							moveList = moveList->nextMove;
    3014:	e0bf9617 	ldw	r2,-424(fp)
    3018:	10800217 	ldw	r2,8(r2)
    301c:	e0bf9615 	stw	r2,-424(fp)
						#endif

						unsigned char newBoard[10][10];

						memcpy(newBoard, board, 100);
						while(moveList->nextMove != NULL){
    3020:	e0bf9617 	ldw	r2,-424(fp)
    3024:	10800217 	ldw	r2,8(r2)
    3028:	103fc81e 	bne	r2,zero,2f4c <__alt_data_end+0xfc002f4c>
							newBoard[moveList->oldLocation.row][moveList->oldLocation.field] = BLACK;
							newBoard[moveList->capture.captureLocation.row][moveList->capture.captureLocation.field] = BLACK;
							moveList = moveList->nextMove;
						}

						int enemiesLeft = 0;
    302c:	e03f9715 	stw	zero,-420(fp)
						for(unsigned char r = 0; r < 10; r++)
    3030:	e03f9805 	stb	zero,-416(fp)
    3034:	00002306 	br	30c4 <minimaxAlgorithm+0x6a0>
						{
							for(unsigned char f = 0; f < 10; f++)
    3038:	e03f9845 	stb	zero,-415(fp)
    303c:	00001b06 	br	30ac <minimaxAlgorithm+0x688>
							{
								if(newBoard[row][field] == enemy || newBoard[row][field] == enemyKing)
    3040:	e0ff8e03 	ldbu	r3,-456(fp)
    3044:	e0bf8e43 	ldbu	r2,-455(fp)
    3048:	18c002a4 	muli	r3,r3,10
    304c:	e13f8c04 	addi	r4,fp,-464
    3050:	20c7883a 	add	r3,r4,r3
    3054:	1885883a 	add	r2,r3,r2
    3058:	10803b84 	addi	r2,r2,238
    305c:	10800003 	ldbu	r2,0(r2)
    3060:	10c03fcc 	andi	r3,r2,255
    3064:	e0bffd03 	ldbu	r2,-12(fp)
    3068:	18800b26 	beq	r3,r2,3098 <minimaxAlgorithm+0x674>
    306c:	e0ff8e03 	ldbu	r3,-456(fp)
    3070:	e0bf8e43 	ldbu	r2,-455(fp)
    3074:	18c002a4 	muli	r3,r3,10
    3078:	e17f8c04 	addi	r5,fp,-464
    307c:	28c7883a 	add	r3,r5,r3
    3080:	1885883a 	add	r2,r3,r2
    3084:	10803b84 	addi	r2,r2,238
    3088:	10800003 	ldbu	r2,0(r2)
    308c:	10c03fcc 	andi	r3,r2,255
    3090:	e0bffe03 	ldbu	r2,-8(fp)
    3094:	1880021e 	bne	r3,r2,30a0 <minimaxAlgorithm+0x67c>
								{
									enemiesLeft = 1;
    3098:	00800044 	movi	r2,1
    309c:	e0bf9715 	stw	r2,-420(fp)
						}

						int enemiesLeft = 0;
						for(unsigned char r = 0; r < 10; r++)
						{
							for(unsigned char f = 0; f < 10; f++)
    30a0:	e0bf9843 	ldbu	r2,-415(fp)
    30a4:	10800044 	addi	r2,r2,1
    30a8:	e0bf9845 	stb	r2,-415(fp)
    30ac:	e0bf9843 	ldbu	r2,-415(fp)
    30b0:	108002b0 	cmpltui	r2,r2,10
    30b4:	103fe21e 	bne	r2,zero,3040 <__alt_data_end+0xfc003040>
							newBoard[moveList->capture.captureLocation.row][moveList->capture.captureLocation.field] = BLACK;
							moveList = moveList->nextMove;
						}

						int enemiesLeft = 0;
						for(unsigned char r = 0; r < 10; r++)
    30b8:	e0bf9803 	ldbu	r2,-416(fp)
    30bc:	10800044 	addi	r2,r2,1
    30c0:	e0bf9805 	stb	r2,-416(fp)
    30c4:	e0bf9803 	ldbu	r2,-416(fp)
    30c8:	108002b0 	cmpltui	r2,r2,10
    30cc:	103fda1e 	bne	r2,zero,3038 <__alt_data_end+0xfc003038>
						#if DEBUG
							printf("enemiesLeft: %i\n",enemiesLeft);
						#endif

						int score;
						if(enemiesLeft == 1)
    30d0:	e0bf9717 	ldw	r2,-420(fp)
    30d4:	10800058 	cmpnei	r2,r2,1
    30d8:	1000121e 	bne	r2,zero,3124 <minimaxAlgorithm+0x700>
						{
							#if DEBUG
								printf("S : there are enemies left\n");
							#endif
							score = minimaxAlgorithmRecursive((unsigned char **)newBoard, enemy, enemyKing, friendly, friendlyKing, nextDirection, depth-1);
    30dc:	e17ffd03 	ldbu	r5,-12(fp)
    30e0:	e1bffe03 	ldbu	r6,-8(fp)
    30e4:	e1fffb03 	ldbu	r7,-20(fp)
    30e8:	e0bffc03 	ldbu	r2,-16(fp)
    30ec:	e0ff9417 	ldw	r3,-432(fp)
    30f0:	18c03fcc 	andi	r3,r3,255
    30f4:	18c0201c 	xori	r3,r3,128
    30f8:	18ffe004 	addi	r3,r3,-128
    30fc:	e1000417 	ldw	r4,16(fp)
    3100:	213fffc4 	addi	r4,r4,-1
    3104:	e23fc784 	addi	r8,fp,-226
    3108:	d9000215 	stw	r4,8(sp)
    310c:	d8c00115 	stw	r3,4(sp)
    3110:	d8800015 	stw	r2,0(sp)
    3114:	4009883a 	mov	r4,r8
    3118:	00020ac0 	call	20ac <minimaxAlgorithmRecursive>
    311c:	e0bf9915 	stw	r2,-412(fp)
    3120:	00000e06 	br	315c <minimaxAlgorithm+0x738>
						{
							#if DEBUG
								printf("S : kingCapture: there are no enemies left\n");
							#endif
							// if there are no enemies left
							score = minimaxAlgorithmRecursive((unsigned char **)newBoard, enemy, enemyKing, friendly, friendlyKing, nextDirection, 0);
    3124:	e17ffd03 	ldbu	r5,-12(fp)
    3128:	e1bffe03 	ldbu	r6,-8(fp)
    312c:	e1fffb03 	ldbu	r7,-20(fp)
    3130:	e0bffc03 	ldbu	r2,-16(fp)
    3134:	e0ff9417 	ldw	r3,-432(fp)
    3138:	18c03fcc 	andi	r3,r3,255
    313c:	18c0201c 	xori	r3,r3,128
    3140:	18ffe004 	addi	r3,r3,-128
    3144:	e13fc784 	addi	r4,fp,-226
    3148:	d8000215 	stw	zero,8(sp)
    314c:	d8c00115 	stw	r3,4(sp)
    3150:	d8800015 	stw	r2,0(sp)
    3154:	00020ac0 	call	20ac <minimaxAlgorithmRecursive>
    3158:	e0bf9915 	stw	r2,-412(fp)
						#if DEBUG
							printf("S : kingCapture: adding score %i to list\n",score);
						#endif

						struct nodeMove * currentMove;
						currentMove->score = score;
    315c:	e0bfa517 	ldw	r2,-364(fp)
    3160:	e0ff9917 	ldw	r3,-412(fp)
    3164:	10c00015 	stw	r3,0(r2)
						currentMove->row = row;
    3168:	e0bfa517 	ldw	r2,-364(fp)
    316c:	e0ff8e03 	ldbu	r3,-456(fp)
    3170:	10c00105 	stb	r3,4(r2)
						currentMove->field = field;
    3174:	e0bfa517 	ldw	r2,-364(fp)
    3178:	e0ff8e43 	ldbu	r3,-455(fp)
    317c:	10c00145 	stb	r3,5(r2)
						currentMove->dir = 0;
    3180:	e0bfa517 	ldw	r2,-364(fp)
    3184:	10000185 	stb	zero,6(r2)
						currentMove->isCapture = 1;
    3188:	e0bfa517 	ldw	r2,-364(fp)
    318c:	00c00044 	movi	r3,1
    3190:	10c001c5 	stb	r3,7(r2)
						currentMove->kingCaptureMoveList = (struct Move *)vectorGet(moveVector,i);
    3194:	e17f9517 	ldw	r5,-428(fp)
    3198:	e13fa417 	ldw	r4,-368(fp)
    319c:	00040200 	call	4020 <vectorGet>
    31a0:	1007883a 	mov	r3,r2
    31a4:	e0bfa517 	ldw	r2,-364(fp)
    31a8:	10c00215 	stw	r3,8(r2)
						vectorAdd(scoreList,(void *)currentMove);
    31ac:	e17fa517 	ldw	r5,-364(fp)
    31b0:	e13f8c17 	ldw	r4,-464(fp)
    31b4:	0003ea00 	call	3ea0 <vectorAdd>
					#if DEBUG
						printf("moveVector->count: %i\n",moveVector->count);
					#endif

					//for every S in V
					for(int i = 0; i < moveVector->count; i++)
    31b8:	e0bf9517 	ldw	r2,-428(fp)
    31bc:	10800044 	addi	r2,r2,1
    31c0:	e0bf9515 	stw	r2,-428(fp)
    31c4:	e0bfa417 	ldw	r2,-368(fp)
    31c8:	10800217 	ldw	r2,8(r2)
    31cc:	e0ff9517 	ldw	r3,-428(fp)
    31d0:	18bf5016 	blt	r3,r2,2f14 <__alt_data_end+0xfc002f14>
						currentMove->kingCaptureMoveList = (struct Move *)vectorGet(moveVector,i);
						vectorAdd(scoreList,(void *)currentMove);
					}
				}

				for(int d = 1;d<=4;d++)
    31d4:	00800044 	movi	r2,1
    31d8:	e0bf9a15 	stw	r2,-408(fp)
    31dc:	00005406 	br	3330 <minimaxAlgorithm+0x90c>
				{
					if(checkIfCanMove((unsigned char **)b, row, field, d, friendly, friendlyKing, enemy, enemyKing, direction) == 1)
    31e0:	e27f8e03 	ldbu	r9,-456(fp)
    31e4:	e2bf8e43 	ldbu	r10,-455(fp)
    31e8:	e0bffb03 	ldbu	r2,-20(fp)
    31ec:	e0fffc03 	ldbu	r3,-16(fp)
    31f0:	e13ffd03 	ldbu	r4,-12(fp)
    31f4:	e17ffe03 	ldbu	r5,-8(fp)
    31f8:	e1bfff07 	ldb	r6,-4(fp)
    31fc:	e23fab04 	addi	r8,fp,-340
    3200:	d9800415 	stw	r6,16(sp)
    3204:	d9400315 	stw	r5,12(sp)
    3208:	d9000215 	stw	r4,8(sp)
    320c:	d8c00115 	stw	r3,4(sp)
    3210:	d8800015 	stw	r2,0(sp)
    3214:	e1ff9a17 	ldw	r7,-408(fp)
    3218:	500d883a 	mov	r6,r10
    321c:	480b883a 	mov	r5,r9
    3220:	4009883a 	mov	r4,r8
    3224:	00014940 	call	1494 <checkIfCanMove>
    3228:	10800058 	cmpnei	r2,r2,1
    322c:	10003d1e 	bne	r2,zero,3324 <minimaxAlgorithm+0x900>
					{
						#if DEBUG
							printf("S : [%i][%i] dir %i can move\n",row,field,d);
						#endif
						unsigned char newBoard[10][10];
						memcpy(newBoard,b,100);
    3230:	e0bfc784 	addi	r2,fp,-226
    3234:	e0ffab04 	addi	r3,fp,-340
    3238:	01001904 	movi	r4,100
    323c:	200d883a 	mov	r6,r4
    3240:	180b883a 	mov	r5,r3
    3244:	1009883a 	mov	r4,r2
    3248:	00054340 	call	5434 <memcpy>
						move((unsigned char **)newBoard, row, field, d, friendly, friendlyKing, enemy, enemyKing, direction);
    324c:	e27f8e03 	ldbu	r9,-456(fp)
    3250:	e2bf8e43 	ldbu	r10,-455(fp)
    3254:	e0bf9a17 	ldw	r2,-408(fp)
    3258:	11c03fcc 	andi	r7,r2,255
    325c:	e0bffb03 	ldbu	r2,-20(fp)
    3260:	e0fffc03 	ldbu	r3,-16(fp)
    3264:	e13ffd03 	ldbu	r4,-12(fp)
    3268:	e17ffe03 	ldbu	r5,-8(fp)
    326c:	e1bfff07 	ldb	r6,-4(fp)
    3270:	e23fc784 	addi	r8,fp,-226
    3274:	d9800415 	stw	r6,16(sp)
    3278:	d9400315 	stw	r5,12(sp)
    327c:	d9000215 	stw	r4,8(sp)
    3280:	d8c00115 	stw	r3,4(sp)
    3284:	d8800015 	stw	r2,0(sp)
    3288:	500d883a 	mov	r6,r10
    328c:	480b883a 	mov	r5,r9
    3290:	4009883a 	mov	r4,r8
    3294:	0001e080 	call	1e08 <move>
						int score = minimaxAlgorithmRecursive((unsigned char **)newBoard, enemy, enemyKing, friendly, friendlyKing, nextDirection, depth-1);
    3298:	e17ffd03 	ldbu	r5,-12(fp)
    329c:	e1bffe03 	ldbu	r6,-8(fp)
    32a0:	e1fffb03 	ldbu	r7,-20(fp)
    32a4:	e0bffc03 	ldbu	r2,-16(fp)
    32a8:	e0ff9417 	ldw	r3,-432(fp)
    32ac:	18c03fcc 	andi	r3,r3,255
    32b0:	18c0201c 	xori	r3,r3,128
    32b4:	18ffe004 	addi	r3,r3,-128
    32b8:	e1000417 	ldw	r4,16(fp)
    32bc:	213fffc4 	addi	r4,r4,-1
    32c0:	e23fc784 	addi	r8,fp,-226
    32c4:	d9000215 	stw	r4,8(sp)
    32c8:	d8c00115 	stw	r3,4(sp)
    32cc:	d8800015 	stw	r2,0(sp)
    32d0:	4009883a 	mov	r4,r8
    32d4:	00020ac0 	call	20ac <minimaxAlgorithmRecursive>
    32d8:	e0bfa615 	stw	r2,-360(fp)
						#if DEBUG
							printf("S : kingMove: adding score %i to linked list\n",score);
						#endif

						struct nodeMove * currentMove;
						currentMove->score = score;
    32dc:	e0bfa717 	ldw	r2,-356(fp)
    32e0:	e0ffa617 	ldw	r3,-360(fp)
    32e4:	10c00015 	stw	r3,0(r2)
						currentMove->row = row;
    32e8:	e0bfa717 	ldw	r2,-356(fp)
    32ec:	e0ff8e03 	ldbu	r3,-456(fp)
    32f0:	10c00105 	stb	r3,4(r2)
						currentMove->field = field;
    32f4:	e0bfa717 	ldw	r2,-356(fp)
    32f8:	e0ff8e43 	ldbu	r3,-455(fp)
    32fc:	10c00145 	stb	r3,5(r2)
						currentMove->dir = d;
    3300:	e0bf9a17 	ldw	r2,-408(fp)
    3304:	1007883a 	mov	r3,r2
    3308:	e0bfa717 	ldw	r2,-356(fp)
    330c:	10c00185 	stb	r3,6(r2)
						currentMove->isCapture = 0;
    3310:	e0bfa717 	ldw	r2,-356(fp)
    3314:	100001c5 	stb	zero,7(r2)
						vectorAdd(scoreList,(void *)currentMove);
    3318:	e17fa717 	ldw	r5,-356(fp)
    331c:	e13f8c17 	ldw	r4,-464(fp)
    3320:	0003ea00 	call	3ea0 <vectorAdd>
						currentMove->kingCaptureMoveList = (struct Move *)vectorGet(moveVector,i);
						vectorAdd(scoreList,(void *)currentMove);
					}
				}

				for(int d = 1;d<=4;d++)
    3324:	e0bf9a17 	ldw	r2,-408(fp)
    3328:	10800044 	addi	r2,r2,1
    332c:	e0bf9a15 	stw	r2,-408(fp)
    3330:	e0bf9a17 	ldw	r2,-408(fp)
    3334:	10800150 	cmplti	r2,r2,5
    3338:	103fa91e 	bne	r2,zero,31e0 <__alt_data_end+0xfc0031e0>

	int thereAreFriendliesLeft = 0;

	for(unsigned char row = 0; row < 10; row++)
	{
		for(unsigned char field = 0; field < 10; field++)
    333c:	e0bf8e43 	ldbu	r2,-455(fp)
    3340:	10800044 	addi	r2,r2,1
    3344:	e0bf8e45 	stb	r2,-455(fp)
    3348:	e0bf8e43 	ldbu	r2,-455(fp)
    334c:	108002b0 	cmpltui	r2,r2,10
    3350:	103dd11e 	bne	r2,zero,2a98 <__alt_data_end+0xfc002a98>

	Vector * scoreList = vectorInit();

	int thereAreFriendliesLeft = 0;

	for(unsigned char row = 0; row < 10; row++)
    3354:	e0bf8e03 	ldbu	r2,-456(fp)
    3358:	10800044 	addi	r2,r2,1
    335c:	e0bf8e05 	stb	r2,-456(fp)
    3360:	e0bf8e03 	ldbu	r2,-456(fp)
    3364:	108002b0 	cmpltui	r2,r2,10
    3368:	103dc91e 	bne	r2,zero,2a90 <__alt_data_end+0xfc002a90>
				}
			}
		}
	}

	if(!thereAreFriendliesLeft)
    336c:	e0bf8d17 	ldw	r2,-460(fp)
    3370:	1000021e 	bne	r2,zero,337c <minimaxAlgorithm+0x958>
	{
		#if DEBUG
			printf("there are no friendlies left to move, returning 0\n");
		#endif
		return 0;
    3374:	0005883a 	mov	r2,zero
    3378:	0000b906 	br	3660 <minimaxAlgorithm+0xc3c>
	}

	struct nodeMove bestMove;

	if(direction == FRIENDLYDIRECTION) bestMove.score = -1000;
    337c:	e0bfff07 	ldb	r2,-4(fp)
    3380:	10bfffd8 	cmpnei	r2,r2,-1
    3384:	1000031e 	bne	r2,zero,3394 <minimaxAlgorithm+0x970>
    3388:	00bf0604 	movi	r2,-1000
    338c:	e0bfc415 	stw	r2,-240(fp)
    3390:	00000206 	br	339c <minimaxAlgorithm+0x978>
	else bestMove.score = 1000;
    3394:	0080fa04 	movi	r2,1000
    3398:	e0bfc415 	stw	r2,-240(fp)

	//if there are captures in the list, remove all non-captures
	int thereAreCaptures = 0;
    339c:	e03f9b15 	stw	zero,-404(fp)

	for(int count = 0; count < vectorCount(scoreList); count++)
    33a0:	e03f9c15 	stw	zero,-400(fp)
    33a4:	00000c06 	br	33d8 <minimaxAlgorithm+0x9b4>
	{
		if(((struct nodeMove *)vectorGet(scoreList,count))->isCapture == 1) thereAreCaptures = 1;
    33a8:	e17f9c17 	ldw	r5,-400(fp)
    33ac:	e13f8c17 	ldw	r4,-464(fp)
    33b0:	00040200 	call	4020 <vectorGet>
    33b4:	108001c3 	ldbu	r2,7(r2)
    33b8:	10803fcc 	andi	r2,r2,255
    33bc:	10800058 	cmpnei	r2,r2,1
    33c0:	1000021e 	bne	r2,zero,33cc <minimaxAlgorithm+0x9a8>
    33c4:	00800044 	movi	r2,1
    33c8:	e0bf9b15 	stw	r2,-404(fp)
	else bestMove.score = 1000;

	//if there are captures in the list, remove all non-captures
	int thereAreCaptures = 0;

	for(int count = 0; count < vectorCount(scoreList); count++)
    33cc:	e0bf9c17 	ldw	r2,-400(fp)
    33d0:	10800044 	addi	r2,r2,1
    33d4:	e0bf9c15 	stw	r2,-400(fp)
    33d8:	e13f8c17 	ldw	r4,-464(fp)
    33dc:	0003e780 	call	3e78 <vectorCount>
    33e0:	1007883a 	mov	r3,r2
    33e4:	e0bf9c17 	ldw	r2,-400(fp)
    33e8:	10ffef16 	blt	r2,r3,33a8 <__alt_data_end+0xfc0033a8>
	{
		if(((struct nodeMove *)vectorGet(scoreList,count))->isCapture == 1) thereAreCaptures = 1;
	}

	//stuff to do if there are in fact captures in the list
	if(thereAreCaptures)
    33ec:	e0bf9b17 	ldw	r2,-404(fp)
    33f0:	10001c26 	beq	r2,zero,3464 <minimaxAlgorithm+0xa40>
	{
		#if DEBUG
			printf("S : it seems like there are captures in this list\n");
		#endif

		Vector * cScoreList = vectorInit();
    33f4:	0003e2c0 	call	3e2c <vectorInit>
    33f8:	e0bfa815 	stw	r2,-352(fp)

		for(int count = 0; count < vectorCount(scoreList); count++)
    33fc:	e03f9d15 	stw	zero,-396(fp)
    3400:	00000f06 	br	3440 <minimaxAlgorithm+0xa1c>
		{
			struct nodeMove * cNodeMove = ((struct nodeMove *)vectorGet(scoreList,count));
    3404:	e17f9d17 	ldw	r5,-396(fp)
    3408:	e13f8c17 	ldw	r4,-464(fp)
    340c:	00040200 	call	4020 <vectorGet>
    3410:	e0bfa915 	stw	r2,-348(fp)

			if(cNodeMove->isCapture == 1)
    3414:	e0bfa917 	ldw	r2,-348(fp)
    3418:	108001c3 	ldbu	r2,7(r2)
    341c:	10803fcc 	andi	r2,r2,255
    3420:	10800058 	cmpnei	r2,r2,1
    3424:	1000031e 	bne	r2,zero,3434 <minimaxAlgorithm+0xa10>
			{
				vectorAdd(cScoreList,(void *)cNodeMove);
    3428:	e17fa917 	ldw	r5,-348(fp)
    342c:	e13fa817 	ldw	r4,-352(fp)
    3430:	0003ea00 	call	3ea0 <vectorAdd>
			printf("S : it seems like there are captures in this list\n");
		#endif

		Vector * cScoreList = vectorInit();

		for(int count = 0; count < vectorCount(scoreList); count++)
    3434:	e0bf9d17 	ldw	r2,-396(fp)
    3438:	10800044 	addi	r2,r2,1
    343c:	e0bf9d15 	stw	r2,-396(fp)
    3440:	e13f8c17 	ldw	r4,-464(fp)
    3444:	0003e780 	call	3e78 <vectorCount>
    3448:	1007883a 	mov	r3,r2
    344c:	e0bf9d17 	ldw	r2,-396(fp)
    3450:	10ffec16 	blt	r2,r3,3404 <__alt_data_end+0xfc003404>
				vectorAdd(cScoreList,(void *)cNodeMove);
			}
		}

		//capture vector becomes the normal vector
		scoreList = cScoreList;
    3454:	e0bfa817 	ldw	r2,-352(fp)
    3458:	e0bf8c15 	stw	r2,-464(fp)

		vectorFree(cScoreList);
    345c:	e13fa817 	ldw	r4,-352(fp)
    3460:	00041ac0 	call	41ac <vectorFree>
	}

	for(int count = 0; count < vectorCount(scoreList); count++)
    3464:	e03f9e15 	stw	zero,-392(fp)
    3468:	00003406 	br	353c <minimaxAlgorithm+0xb18>
	{
		struct nodeMove * currentnm = ((struct nodeMove *)vectorGet(scoreList,count));
    346c:	e17f9e17 	ldw	r5,-392(fp)
    3470:	e13f8c17 	ldw	r4,-464(fp)
    3474:	00040200 	call	4020 <vectorGet>
    3478:	e0bfaa15 	stw	r2,-344(fp)

		if(direction == FRIENDLYDIRECTION && currentnm->score > bestMove.score && !(currentnm->row == 0 && currentnm->field == 0))
    347c:	e0bfff07 	ldb	r2,-4(fp)
    3480:	10bfffd8 	cmpnei	r2,r2,-1
    3484:	1000141e 	bne	r2,zero,34d8 <minimaxAlgorithm+0xab4>
    3488:	e0bfaa17 	ldw	r2,-344(fp)
    348c:	10800017 	ldw	r2,0(r2)
    3490:	e0ffc417 	ldw	r3,-240(fp)
    3494:	1880100e 	bge	r3,r2,34d8 <minimaxAlgorithm+0xab4>
    3498:	e0bfaa17 	ldw	r2,-344(fp)
    349c:	10800103 	ldbu	r2,4(r2)
    34a0:	10803fcc 	andi	r2,r2,255
    34a4:	1000041e 	bne	r2,zero,34b8 <minimaxAlgorithm+0xa94>
    34a8:	e0bfaa17 	ldw	r2,-344(fp)
    34ac:	10800143 	ldbu	r2,5(r2)
    34b0:	10803fcc 	andi	r2,r2,255
    34b4:	10000826 	beq	r2,zero,34d8 <minimaxAlgorithm+0xab4>
		{
			#if DEBUG
				printf("S : score %i is bigger than best score %i, overwriting\n",currentnm->score,bestMove.score);
			#endif
			bestMove = * currentnm;
    34b8:	e0bfaa17 	ldw	r2,-344(fp)
    34bc:	10c00017 	ldw	r3,0(r2)
    34c0:	e0ffc415 	stw	r3,-240(fp)
    34c4:	10c00117 	ldw	r3,4(r2)
    34c8:	e0ffc515 	stw	r3,-236(fp)
    34cc:	10800217 	ldw	r2,8(r2)
    34d0:	e0bfc615 	stw	r2,-232(fp)
    34d4:	00001606 	br	3530 <minimaxAlgorithm+0xb0c>
		}
		else if(direction == ENEMYDIRECTION && currentnm->score < bestMove.score && !(currentnm->row == 0 && currentnm->field == 0))
    34d8:	e0bfff07 	ldb	r2,-4(fp)
    34dc:	10800058 	cmpnei	r2,r2,1
    34e0:	1000131e 	bne	r2,zero,3530 <minimaxAlgorithm+0xb0c>
    34e4:	e0bfaa17 	ldw	r2,-344(fp)
    34e8:	10c00017 	ldw	r3,0(r2)
    34ec:	e0bfc417 	ldw	r2,-240(fp)
    34f0:	18800f0e 	bge	r3,r2,3530 <minimaxAlgorithm+0xb0c>
    34f4:	e0bfaa17 	ldw	r2,-344(fp)
    34f8:	10800103 	ldbu	r2,4(r2)
    34fc:	10803fcc 	andi	r2,r2,255
    3500:	1000041e 	bne	r2,zero,3514 <minimaxAlgorithm+0xaf0>
    3504:	e0bfaa17 	ldw	r2,-344(fp)
    3508:	10800143 	ldbu	r2,5(r2)
    350c:	10803fcc 	andi	r2,r2,255
    3510:	10000726 	beq	r2,zero,3530 <minimaxAlgorithm+0xb0c>
		{
			#if DEBUG
				printf("S : score %i is smaller than best score %i, overwriting\n",currentnm->score,bestMove.score);
			#endif
			bestMove = * currentnm;
    3514:	e0bfaa17 	ldw	r2,-344(fp)
    3518:	10c00017 	ldw	r3,0(r2)
    351c:	e0ffc415 	stw	r3,-240(fp)
    3520:	10c00117 	ldw	r3,4(r2)
    3524:	e0ffc515 	stw	r3,-236(fp)
    3528:	10800217 	ldw	r2,8(r2)
    352c:	e0bfc615 	stw	r2,-232(fp)
		scoreList = cScoreList;

		vectorFree(cScoreList);
	}

	for(int count = 0; count < vectorCount(scoreList); count++)
    3530:	e0bf9e17 	ldw	r2,-392(fp)
    3534:	10800044 	addi	r2,r2,1
    3538:	e0bf9e15 	stw	r2,-392(fp)
    353c:	e13f8c17 	ldw	r4,-464(fp)
    3540:	0003e780 	call	3e78 <vectorCount>
    3544:	1007883a 	mov	r3,r2
    3548:	e0bf9e17 	ldw	r2,-392(fp)
    354c:	10ffc716 	blt	r2,r3,346c <__alt_data_end+0xfc00346c>
		#if DEBUG
			else printf("S : score %i is not better than best score %i, not overwriting\n",currentnm->score,bestMove.score);
		#endif
	}

	vectorFree(scoreList);
    3550:	e13f8c17 	ldw	r4,-464(fp)
    3554:	00041ac0 	call	41ac <vectorFree>

	#if DEBUG
		printf("S : bestMove\nscore: %i\nrow: %i\nfield: %i\ndir: %i\nisCapture: %i\n\n",bestMove.score,bestMove.row,bestMove.field,bestMove.dir,bestMove.isCapture);
	#endif

	if(bestMove.isCapture == 1)
    3558:	e0bfc5c3 	ldbu	r2,-233(fp)
    355c:	10803fcc 	andi	r2,r2,255
    3560:	10800058 	cmpnei	r2,r2,1
    3564:	10001c1e 	bne	r2,zero,35d8 <minimaxAlgorithm+0xbb4>
	{
		if(board[bestMove.row][bestMove.field] == friendly)
    3568:	e0bfc503 	ldbu	r2,-236(fp)
    356c:	11003fcc 	andi	r4,r2,255
    3570:	e0bfc543 	ldbu	r2,-235(fp)
    3574:	10c03fcc 	andi	r3,r2,255
    3578:	008000f4 	movhi	r2,3
    357c:	10a1e604 	addi	r2,r2,-30824
    3580:	210002a4 	muli	r4,r4,10
    3584:	1105883a 	add	r2,r2,r4
    3588:	10c5883a 	add	r2,r2,r3
    358c:	10800003 	ldbu	r2,0(r2)
    3590:	10c03fcc 	andi	r3,r2,255
    3594:	e0bffb03 	ldbu	r2,-20(fp)
    3598:	1880241e 	bne	r3,r2,362c <minimaxAlgorithm+0xc08>
			manCapture((unsigned char **)board, bestMove.row, bestMove.field, friendly, friendlyKing, enemy, enemyKing);
    359c:	e0bfc503 	ldbu	r2,-236(fp)
    35a0:	11403fcc 	andi	r5,r2,255
    35a4:	e0bfc543 	ldbu	r2,-235(fp)
    35a8:	11803fcc 	andi	r6,r2,255
    35ac:	e1fffb03 	ldbu	r7,-20(fp)
    35b0:	e0bffc03 	ldbu	r2,-16(fp)
    35b4:	e0fffd03 	ldbu	r3,-12(fp)
    35b8:	e13ffe03 	ldbu	r4,-8(fp)
    35bc:	d9000215 	stw	r4,8(sp)
    35c0:	d8c00115 	stw	r3,4(sp)
    35c4:	d8800015 	stw	r2,0(sp)
    35c8:	010000f4 	movhi	r4,3
    35cc:	2121e604 	addi	r4,r4,-30824
    35d0:	00012200 	call	1220 <manCapture>
    35d4:	00001506 	br	362c <minimaxAlgorithm+0xc08>
			//Vector * captured = kingCapture((unsigned char **)board, bestMove->row, bestMove->field, friendly, friendlyKing, enemy, enemyKing);
		}
	}
	else
	{
		move((unsigned char **)board, bestMove.row, bestMove.field, bestMove.dir, friendly, friendlyKing, enemy, enemyKing, direction);
    35d8:	e0bfc503 	ldbu	r2,-236(fp)
    35dc:	12003fcc 	andi	r8,r2,255
    35e0:	e0bfc543 	ldbu	r2,-235(fp)
    35e4:	12403fcc 	andi	r9,r2,255
    35e8:	e0bfc583 	ldbu	r2,-234(fp)
    35ec:	11c03fcc 	andi	r7,r2,255
    35f0:	e0bffb03 	ldbu	r2,-20(fp)
    35f4:	e0fffc03 	ldbu	r3,-16(fp)
    35f8:	e13ffd03 	ldbu	r4,-12(fp)
    35fc:	e17ffe03 	ldbu	r5,-8(fp)
    3600:	e1bfff07 	ldb	r6,-4(fp)
    3604:	d9800415 	stw	r6,16(sp)
    3608:	d9400315 	stw	r5,12(sp)
    360c:	d9000215 	stw	r4,8(sp)
    3610:	d8c00115 	stw	r3,4(sp)
    3614:	d8800015 	stw	r2,0(sp)
    3618:	480d883a 	mov	r6,r9
    361c:	400b883a 	mov	r5,r8
    3620:	010000f4 	movhi	r4,3
    3624:	2121e604 	addi	r4,r4,-30824
    3628:	0001e080 	call	1e08 <move>
	}

	//TODO: make this look prettier?
	printBoard((unsigned char **)board, bestMove.row, bestMove.field,100,100);
    362c:	e0bfc503 	ldbu	r2,-236(fp)
    3630:	10c03fcc 	andi	r3,r2,255
    3634:	e0bfc543 	ldbu	r2,-235(fp)
    3638:	11003fcc 	andi	r4,r2,255
    363c:	00801904 	movi	r2,100
    3640:	d8800015 	stw	r2,0(sp)
    3644:	01c01904 	movi	r7,100
    3648:	200d883a 	mov	r6,r4
    364c:	180b883a 	mov	r5,r3
    3650:	010000f4 	movhi	r4,3
    3654:	2121e604 	addi	r4,r4,-30824
    3658:	00004bc0 	call	4bc <printBoard>

	return 1;
    365c:	00800044 	movi	r2,1
}
    3660:	e037883a 	mov	sp,fp
    3664:	dfc00117 	ldw	ra,4(sp)
    3668:	df000017 	ldw	fp,0(sp)
    366c:	dec00204 	addi	sp,sp,8
    3670:	f800283a 	ret

00003674 <playerInput>:
	return 0;
}
*/

unsigned char playerInput()
{
    3674:	deffd704 	addi	sp,sp,-164
    3678:	dfc02815 	stw	ra,160(sp)
    367c:	df002715 	stw	fp,156(sp)
    3680:	df002704 	addi	fp,sp,156
	int stuffToDo = 0;
    3684:	e03fde15 	stw	zero,-136(fp)

	//Check if we can capture, capture and check if we can still make moves all in one loop :)
	for(int row = 0; row < 10; row++)
    3688:	e03fdf15 	stw	zero,-132(fp)
    368c:	00004006 	br	3790 <playerInput+0x11c>
	{
		for(int field = 0; field < 10; field++)
    3690:	e03fe015 	stw	zero,-128(fp)
    3694:	00003806 	br	3778 <playerInput+0x104>
		{
			if(board[row][field] == FRIENDLY)
    3698:	008000f4 	movhi	r2,3
    369c:	10a1e604 	addi	r2,r2,-30824
    36a0:	e0ffdf17 	ldw	r3,-132(fp)
    36a4:	18c002a4 	muli	r3,r3,10
    36a8:	10c7883a 	add	r3,r2,r3
    36ac:	e0bfe017 	ldw	r2,-128(fp)
    36b0:	1885883a 	add	r2,r3,r2
    36b4:	10800003 	ldbu	r2,0(r2)
    36b8:	10803fcc 	andi	r2,r2,255
    36bc:	10800098 	cmpnei	r2,r2,2
    36c0:	1000161e 	bne	r2,zero,371c <playerInput+0xa8>
			{
				stuffToDo = 1;
    36c4:	00800044 	movi	r2,1
    36c8:	e0bfde15 	stw	r2,-136(fp)
				if(manCapture((unsigned char **)board, row, field, FRIENDLY, FRIENDLYKING, ENEMY, ENEMYKING)) return 1;
    36cc:	e0bfdf17 	ldw	r2,-132(fp)
    36d0:	10c03fcc 	andi	r3,r2,255
    36d4:	e0bfe017 	ldw	r2,-128(fp)
    36d8:	11003fcc 	andi	r4,r2,255
    36dc:	00800144 	movi	r2,5
    36e0:	d8800215 	stw	r2,8(sp)
    36e4:	00800104 	movi	r2,4
    36e8:	d8800115 	stw	r2,4(sp)
    36ec:	008000c4 	movi	r2,3
    36f0:	d8800015 	stw	r2,0(sp)
    36f4:	01c00084 	movi	r7,2
    36f8:	200d883a 	mov	r6,r4
    36fc:	180b883a 	mov	r5,r3
    3700:	010000f4 	movhi	r4,3
    3704:	2121e604 	addi	r4,r4,-30824
    3708:	00012200 	call	1220 <manCapture>
    370c:	10803fcc 	andi	r2,r2,255
    3710:	10001626 	beq	r2,zero,376c <playerInput+0xf8>
    3714:	00800044 	movi	r2,1
    3718:	0000fa06 	br	3b04 <playerInput+0x490>
			}
			else if(board[row][field] == FRIENDLYKING)
    371c:	008000f4 	movhi	r2,3
    3720:	10a1e604 	addi	r2,r2,-30824
    3724:	e0ffdf17 	ldw	r3,-132(fp)
    3728:	18c002a4 	muli	r3,r3,10
    372c:	10c7883a 	add	r3,r2,r3
    3730:	e0bfe017 	ldw	r2,-128(fp)
    3734:	1885883a 	add	r2,r3,r2
    3738:	10800003 	ldbu	r2,0(r2)
    373c:	10803fcc 	andi	r2,r2,255
    3740:	108000d8 	cmpnei	r2,r2,3
    3744:	1000091e 	bne	r2,zero,376c <playerInput+0xf8>
			{
				stuffToDo = 1;
    3748:	00800044 	movi	r2,1
    374c:	e0bfde15 	stw	r2,-136(fp)
				if(capture(row, field, 1)) return 1;
    3750:	01800044 	movi	r6,1
    3754:	e17fe017 	ldw	r5,-128(fp)
    3758:	e13fdf17 	ldw	r4,-132(fp)
    375c:	000181c0 	call	181c <capture>
    3760:	10000226 	beq	r2,zero,376c <playerInput+0xf8>
    3764:	00800044 	movi	r2,1
    3768:	0000e606 	br	3b04 <playerInput+0x490>
	int stuffToDo = 0;

	//Check if we can capture, capture and check if we can still make moves all in one loop :)
	for(int row = 0; row < 10; row++)
	{
		for(int field = 0; field < 10; field++)
    376c:	e0bfe017 	ldw	r2,-128(fp)
    3770:	10800044 	addi	r2,r2,1
    3774:	e0bfe015 	stw	r2,-128(fp)
    3778:	e0bfe017 	ldw	r2,-128(fp)
    377c:	10800290 	cmplti	r2,r2,10
    3780:	103fc51e 	bne	r2,zero,3698 <__alt_data_end+0xfc003698>
unsigned char playerInput()
{
	int stuffToDo = 0;

	//Check if we can capture, capture and check if we can still make moves all in one loop :)
	for(int row = 0; row < 10; row++)
    3784:	e0bfdf17 	ldw	r2,-132(fp)
    3788:	10800044 	addi	r2,r2,1
    378c:	e0bfdf15 	stw	r2,-132(fp)
    3790:	e0bfdf17 	ldw	r2,-132(fp)
    3794:	10800290 	cmplti	r2,r2,10
    3798:	103fbd1e 	bne	r2,zero,3690 <__alt_data_end+0xfc003690>
				if(capture(row, field, 1)) return 1;
			}
		}
	}

	createKing((unsigned char **)board);
    379c:	010000f4 	movhi	r4,3
    37a0:	2121e604 	addi	r4,r4,-30824
    37a4:	0001fd80 	call	1fd8 <createKing>

	//If there are no friendly units on the board, return 0, which will end the game.
	if(!stuffToDo) return 0;
    37a8:	e0bfde17 	ldw	r2,-136(fp)
    37ac:	1000021e 	bne	r2,zero,37b8 <playerInput+0x144>
    37b0:	0005883a 	mov	r2,zero
    37b4:	0000d306 	br	3b04 <playerInput+0x490>

	int pRow = -1;
    37b8:	00bfffc4 	movi	r2,-1
    37bc:	e0bfe115 	stw	r2,-124(fp)
	int pField = -1;
    37c0:	00bfffc4 	movi	r2,-1
    37c4:	e0bfe215 	stw	r2,-120(fp)

	printf("Row to select: ");
    37c8:	010000b4 	movhi	r4,2
    37cc:	21116704 	addi	r4,r4,17820
    37d0:	00056d40 	call	56d4 <printf>

	char *p, s[100];
    	while (fgets(s, sizeof(s), stdin)) {
    37d4:	00001406 	br	3828 <playerInput+0x1b4>
    	    pRow = strtol(s, &p, 10);
    37d8:	e0ffe504 	addi	r3,fp,-108
    37dc:	e0bfe604 	addi	r2,fp,-104
    37e0:	01800284 	movi	r6,10
    37e4:	180b883a 	mov	r5,r3
    37e8:	1009883a 	mov	r4,r2
    37ec:	000643c0 	call	643c <strtol>
    37f0:	e0bfe115 	stw	r2,-124(fp)
    	    if (p == s || *p != '\n') {
    37f4:	e0ffe517 	ldw	r3,-108(fp)
    37f8:	e0bfe604 	addi	r2,fp,-104
    37fc:	18800726 	beq	r3,r2,381c <playerInput+0x1a8>
    3800:	e0bfe517 	ldw	r2,-108(fp)
    3804:	10800003 	ldbu	r2,0(r2)
    3808:	10803fcc 	andi	r2,r2,255
    380c:	1080201c 	xori	r2,r2,128
    3810:	10bfe004 	addi	r2,r2,-128
    3814:	108002a0 	cmpeqi	r2,r2,10
    3818:	10000b1e 	bne	r2,zero,3848 <playerInput+0x1d4>
    	        printf("Please enter a number: ");
    381c:	010000b4 	movhi	r4,2
    3820:	21116b04 	addi	r4,r4,17836
    3824:	00056d40 	call	56d4 <printf>
	int pField = -1;

	printf("Row to select: ");

	char *p, s[100];
    	while (fgets(s, sizeof(s), stdin)) {
    3828:	d0a00117 	ldw	r2,-32764(gp)
    382c:	10c00117 	ldw	r3,4(r2)
    3830:	e0bfe604 	addi	r2,fp,-104
    3834:	180d883a 	mov	r6,r3
    3838:	01401904 	movi	r5,100
    383c:	1009883a 	mov	r4,r2
    3840:	00045d80 	call	45d8 <fgets>
    3844:	103fe41e 	bne	r2,zero,37d8 <__alt_data_end+0xfc0037d8>
    	    if (p == s || *p != '\n') {
    	        printf("Please enter a number: ");
    	    } else break;
    	}

    	if(pRow < 0 || pRow > 9){
    3848:	e0bfe117 	ldw	r2,-124(fp)
    384c:	10000316 	blt	r2,zero,385c <playerInput+0x1e8>
    3850:	e0bfe117 	ldw	r2,-124(fp)
    3854:	10800290 	cmplti	r2,r2,10
    3858:	1000051e 	bne	r2,zero,3870 <playerInput+0x1fc>

    		printf("Invalid number, try again\n");
    385c:	010000b4 	movhi	r4,2
    3860:	21117104 	addi	r4,r4,17860
    3864:	00057f00 	call	57f0 <puts>
    		return playerInput();
    3868:	00036740 	call	3674 <playerInput>
    386c:	0000a506 	br	3b04 <playerInput+0x490>
    	}

	printf("Field to select: ");
    3870:	010000b4 	movhi	r4,2
    3874:	21117804 	addi	r4,r4,17888
    3878:	00056d40 	call	56d4 <printf>

    	while (fgets(s, sizeof(s), stdin)) {
    387c:	00001406 	br	38d0 <playerInput+0x25c>
    	    pField = strtol(s, &p, 10);
    3880:	e0ffe504 	addi	r3,fp,-108
    3884:	e0bfe604 	addi	r2,fp,-104
    3888:	01800284 	movi	r6,10
    388c:	180b883a 	mov	r5,r3
    3890:	1009883a 	mov	r4,r2
    3894:	000643c0 	call	643c <strtol>
    3898:	e0bfe215 	stw	r2,-120(fp)
    	    if (p == s || *p != '\n') {
    389c:	e0ffe517 	ldw	r3,-108(fp)
    38a0:	e0bfe604 	addi	r2,fp,-104
    38a4:	18800726 	beq	r3,r2,38c4 <playerInput+0x250>
    38a8:	e0bfe517 	ldw	r2,-108(fp)
    38ac:	10800003 	ldbu	r2,0(r2)
    38b0:	10803fcc 	andi	r2,r2,255
    38b4:	1080201c 	xori	r2,r2,128
    38b8:	10bfe004 	addi	r2,r2,-128
    38bc:	108002a0 	cmpeqi	r2,r2,10
    38c0:	10000b1e 	bne	r2,zero,38f0 <playerInput+0x27c>
    	        printf("Please enter a number: ");
    38c4:	010000b4 	movhi	r4,2
    38c8:	21116b04 	addi	r4,r4,17836
    38cc:	00056d40 	call	56d4 <printf>
    		return playerInput();
    	}

	printf("Field to select: ");

    	while (fgets(s, sizeof(s), stdin)) {
    38d0:	d0a00117 	ldw	r2,-32764(gp)
    38d4:	10c00117 	ldw	r3,4(r2)
    38d8:	e0bfe604 	addi	r2,fp,-104
    38dc:	180d883a 	mov	r6,r3
    38e0:	01401904 	movi	r5,100
    38e4:	1009883a 	mov	r4,r2
    38e8:	00045d80 	call	45d8 <fgets>
    38ec:	103fe41e 	bne	r2,zero,3880 <__alt_data_end+0xfc003880>
    	    if (p == s || *p != '\n') {
    	        printf("Please enter a number: ");
    	    } else break;
    	}

    	if(pField < 0 || pField > 9){
    38f0:	e0bfe217 	ldw	r2,-120(fp)
    38f4:	10000316 	blt	r2,zero,3904 <playerInput+0x290>
    38f8:	e0bfe217 	ldw	r2,-120(fp)
    38fc:	10800290 	cmplti	r2,r2,10
    3900:	1000051e 	bne	r2,zero,3918 <playerInput+0x2a4>

    		printf("Invalid number, try again\n");
    3904:	010000b4 	movhi	r4,2
    3908:	21117104 	addi	r4,r4,17860
    390c:	00057f00 	call	57f0 <puts>
    		return playerInput();
    3910:	00036740 	call	3674 <playerInput>
    3914:	00007b06 	br	3b04 <playerInput+0x490>
    	}

	int stone = board[pRow][pField];
    3918:	008000f4 	movhi	r2,3
    391c:	10a1e604 	addi	r2,r2,-30824
    3920:	e0ffe117 	ldw	r3,-124(fp)
    3924:	18c002a4 	muli	r3,r3,10
    3928:	10c7883a 	add	r3,r2,r3
    392c:	e0bfe217 	ldw	r2,-120(fp)
    3930:	1885883a 	add	r2,r3,r2
    3934:	10800003 	ldbu	r2,0(r2)
    3938:	10803fcc 	andi	r2,r2,255
    393c:	e0bfe315 	stw	r2,-116(fp)

	if(stone == FRIENDLY || stone == FRIENDLYKING){
    3940:	e0bfe317 	ldw	r2,-116(fp)
    3944:	108000a0 	cmpeqi	r2,r2,2
    3948:	1000031e 	bne	r2,zero,3958 <playerInput+0x2e4>
    394c:	e0bfe317 	ldw	r2,-116(fp)
    3950:	108000d8 	cmpnei	r2,r2,3
    3954:	1000671e 	bne	r2,zero,3af4 <playerInput+0x480>

		int isKing;
		if(stone == FRIENDLYKING) isKing = 1;
    3958:	e0bfe317 	ldw	r2,-116(fp)
    395c:	108000d8 	cmpnei	r2,r2,3
    3960:	1000031e 	bne	r2,zero,3970 <playerInput+0x2fc>
    3964:	00800044 	movi	r2,1
    3968:	e0bfe415 	stw	r2,-112(fp)
    396c:	00000106 	br	3974 <playerInput+0x300>
		else isKing = 0;
    3970:	e03fe415 	stw	zero,-112(fp)

		printf("\n1   2\n");
    3974:	010000b4 	movhi	r4,2
    3978:	21117d04 	addi	r4,r4,17908
    397c:	00057f00 	call	57f0 <puts>
		printf(" \\ /\n");
    3980:	010000b4 	movhi	r4,2
    3984:	21117f04 	addi	r4,r4,17916
    3988:	00057f00 	call	57f0 <puts>
		printf("  x\n");
    398c:	010000b4 	movhi	r4,2
    3990:	21118104 	addi	r4,r4,17924
    3994:	00057f00 	call	57f0 <puts>
		printf(" / \\ \n");
    3998:	010000b4 	movhi	r4,2
    399c:	21118204 	addi	r4,r4,17928
    39a0:	00057f00 	call	57f0 <puts>
		printf("3   4\n\n");
    39a4:	010000b4 	movhi	r4,2
    39a8:	21118404 	addi	r4,r4,17936
    39ac:	00057f00 	call	57f0 <puts>

		printf("Select a direction: ");
    39b0:	010000b4 	movhi	r4,2
    39b4:	21118604 	addi	r4,r4,17944
    39b8:	00056d40 	call	56d4 <printf>
		int pDir = -1;
    39bc:	00bfffc4 	movi	r2,-1
    39c0:	e0bfff15 	stw	r2,-4(fp)
		scanf("%i", &pDir);
    39c4:	e0bfff04 	addi	r2,fp,-4
    39c8:	100b883a 	mov	r5,r2
    39cc:	010000b4 	movhi	r4,2
    39d0:	21118c04 	addi	r4,r4,17968
    39d4:	0005fc40 	call	5fc4 <scanf>
		printf("\n");
    39d8:	01000284 	movi	r4,10
    39dc:	00057180 	call	5718 <putchar>

		printf("\npRow: %d\npField: %d\npDir: %d\n\n",pRow,pField,pDir);
    39e0:	e0bfff17 	ldw	r2,-4(fp)
    39e4:	100f883a 	mov	r7,r2
    39e8:	e1bfe217 	ldw	r6,-120(fp)
    39ec:	e17fe117 	ldw	r5,-124(fp)
    39f0:	010000b4 	movhi	r4,2
    39f4:	21118d04 	addi	r4,r4,17972
    39f8:	00056d40 	call	56d4 <printf>

		if(checkIfCanMove((unsigned char **)board,pRow,pField,pDir, FRIENDLY, FRIENDLYKING, ENEMY, ENEMYKING, FRIENDLYDIRECTION)){
    39fc:	e0ffff17 	ldw	r3,-4(fp)
    3a00:	00bfffc4 	movi	r2,-1
    3a04:	d8800415 	stw	r2,16(sp)
    3a08:	00800144 	movi	r2,5
    3a0c:	d8800315 	stw	r2,12(sp)
    3a10:	00800104 	movi	r2,4
    3a14:	d8800215 	stw	r2,8(sp)
    3a18:	008000c4 	movi	r2,3
    3a1c:	d8800115 	stw	r2,4(sp)
    3a20:	00800084 	movi	r2,2
    3a24:	d8800015 	stw	r2,0(sp)
    3a28:	180f883a 	mov	r7,r3
    3a2c:	e1bfe217 	ldw	r6,-120(fp)
    3a30:	e17fe117 	ldw	r5,-124(fp)
    3a34:	010000f4 	movhi	r4,3
    3a38:	2121e604 	addi	r4,r4,-30824
    3a3c:	00014940 	call	1494 <checkIfCanMove>
    3a40:	10002726 	beq	r2,zero,3ae0 <playerInput+0x46c>
			move((unsigned char **)board,pRow,pField,pDir, FRIENDLY, FRIENDLYKING, ENEMY, ENEMYKING, FRIENDLYDIRECTION);
    3a44:	e0bfe117 	ldw	r2,-124(fp)
    3a48:	10c03fcc 	andi	r3,r2,255
    3a4c:	e0bfe217 	ldw	r2,-120(fp)
    3a50:	11003fcc 	andi	r4,r2,255
    3a54:	e0bfff17 	ldw	r2,-4(fp)
    3a58:	11403fcc 	andi	r5,r2,255
    3a5c:	00bfffc4 	movi	r2,-1
    3a60:	d8800415 	stw	r2,16(sp)
    3a64:	00800144 	movi	r2,5
    3a68:	d8800315 	stw	r2,12(sp)
    3a6c:	00800104 	movi	r2,4
    3a70:	d8800215 	stw	r2,8(sp)
    3a74:	008000c4 	movi	r2,3
    3a78:	d8800115 	stw	r2,4(sp)
    3a7c:	00800084 	movi	r2,2
    3a80:	d8800015 	stw	r2,0(sp)
    3a84:	280f883a 	mov	r7,r5
    3a88:	200d883a 	mov	r6,r4
    3a8c:	180b883a 	mov	r5,r3
    3a90:	010000f4 	movhi	r4,3
    3a94:	2121e604 	addi	r4,r4,-30824
    3a98:	0001e080 	call	1e08 <move>
			createKing((unsigned char **)board);
    3a9c:	010000f4 	movhi	r4,3
    3aa0:	2121e604 	addi	r4,r4,-30824
    3aa4:	0001fd80 	call	1fd8 <createKing>
			printBoard((unsigned char **)board,pRow,pField,100,100);
    3aa8:	e0bfe117 	ldw	r2,-124(fp)
    3aac:	10c03fcc 	andi	r3,r2,255
    3ab0:	e0bfe217 	ldw	r2,-120(fp)
    3ab4:	11003fcc 	andi	r4,r2,255
    3ab8:	00801904 	movi	r2,100
    3abc:	d8800015 	stw	r2,0(sp)
    3ac0:	01c01904 	movi	r7,100
    3ac4:	200d883a 	mov	r6,r4
    3ac8:	180b883a 	mov	r5,r3
    3acc:	010000f4 	movhi	r4,3
    3ad0:	2121e604 	addi	r4,r4,-30824
    3ad4:	00004bc0 	call	4bc <printBoard>
			return 1;
    3ad8:	00800044 	movi	r2,1
    3adc:	00000906 	br	3b04 <playerInput+0x490>
		}else{
			printf("Can't move to that field! Try again.\n");
    3ae0:	010000b4 	movhi	r4,2
    3ae4:	21119504 	addi	r4,r4,18004
    3ae8:	00057f00 	call	57f0 <puts>
			return playerInput();
    3aec:	00036740 	call	3674 <playerInput>
    3af0:	00000406 	br	3b04 <playerInput+0x490>
		}
	}else{
		printf("Wrong piece selected, try again\n");
    3af4:	010000b4 	movhi	r4,2
    3af8:	21119f04 	addi	r4,r4,18044
    3afc:	00057f00 	call	57f0 <puts>
		return playerInput();
    3b00:	00036740 	call	3674 <playerInput>
	}
}
    3b04:	e037883a 	mov	sp,fp
    3b08:	dfc00117 	ldw	ra,4(sp)
    3b0c:	df000017 	ldw	fp,0(sp)
    3b10:	dec00204 	addi	sp,sp,8
    3b14:	f800283a 	ret

00003b18 <play>:

void play(){
    3b18:	defffa04 	addi	sp,sp,-24
    3b1c:	dfc00515 	stw	ra,20(sp)
    3b20:	df000415 	stw	fp,16(sp)
    3b24:	df000404 	addi	fp,sp,16
	unsigned char friendlyMoved = 1;
    3b28:	00800044 	movi	r2,1
    3b2c:	e0bfff05 	stb	r2,-4(fp)
	unsigned char enemyMoved = 1;
    3b30:	00800044 	movi	r2,1
    3b34:	e0bfff45 	stb	r2,-3(fp)
	unsigned char turn = 0;
    3b38:	e03fff85 	stb	zero,-2(fp)
	unsigned char turnCounter = 0;
    3b3c:	e03fffc5 	stb	zero,-1(fp)

	while(friendlyMoved == 1 && enemyMoved == 1){
    3b40:	00002906 	br	3be8 <play+0xd0>
		if(turn == 0){
    3b44:	e0bfff83 	ldbu	r2,-2(fp)
    3b48:	1000131e 	bne	r2,zero,3b98 <play+0x80>
			printf("FRIENDLY TURN\n");
    3b4c:	010000b4 	movhi	r4,2
    3b50:	2111a704 	addi	r4,r4,18076
    3b54:	00057f00 	call	57f0 <puts>
			if(PLAYER_INPUT){
				friendlyMoved = playerInput();
			}else{
				//friendlyMoved = bfAlgorithm(FRIENDLY, FRIENDLYKING, ENEMY, ENEMYKING, FRIENDLYDIRECTION);
				friendlyMoved = minimaxAlgorithm((unsigned char **)board,FRIENDLY, FRIENDLYKING, ENEMY, ENEMYKING, FRIENDLYDIRECTION,2);
    3b58:	00800084 	movi	r2,2
    3b5c:	d8800215 	stw	r2,8(sp)
    3b60:	00bfffc4 	movi	r2,-1
    3b64:	d8800115 	stw	r2,4(sp)
    3b68:	00800144 	movi	r2,5
    3b6c:	d8800015 	stw	r2,0(sp)
    3b70:	01c00104 	movi	r7,4
    3b74:	018000c4 	movi	r6,3
    3b78:	01400084 	movi	r5,2
    3b7c:	010000f4 	movhi	r4,3
    3b80:	2121e604 	addi	r4,r4,-30824
    3b84:	0002a240 	call	2a24 <minimaxAlgorithm>
    3b88:	e0bfff05 	stb	r2,-4(fp)
				//friendlyMoved = 1;
				//friendlyMoved = algorithm(FRIENDLY, FRIENDLYKING, ENEMY, ENEMYKING, FRIENDLYDIRECTION);
			}
			turn = 1;
    3b8c:	00800044 	movi	r2,1
    3b90:	e0bfff85 	stb	r2,-2(fp)
    3b94:	00001106 	br	3bdc <play+0xc4>
		}else{
			printf("ENEMY TURN\n");
    3b98:	010000b4 	movhi	r4,2
    3b9c:	2111ab04 	addi	r4,r4,18092
    3ba0:	00057f00 	call	57f0 <puts>
			//enemyMoved = bfAlgorithm(ENEMY, ENEMYKING, FRIENDLY, FRIENDLYKING, ENEMYDIRECTION);
			enemyMoved = minimaxAlgorithm((unsigned char **)board,ENEMY, ENEMYKING, FRIENDLY, FRIENDLYKING, ENEMYDIRECTION,2);
    3ba4:	00800084 	movi	r2,2
    3ba8:	d8800215 	stw	r2,8(sp)
    3bac:	00800044 	movi	r2,1
    3bb0:	d8800115 	stw	r2,4(sp)
    3bb4:	008000c4 	movi	r2,3
    3bb8:	d8800015 	stw	r2,0(sp)
    3bbc:	01c00084 	movi	r7,2
    3bc0:	01800144 	movi	r6,5
    3bc4:	01400104 	movi	r5,4
    3bc8:	010000f4 	movhi	r4,3
    3bcc:	2121e604 	addi	r4,r4,-30824
    3bd0:	0002a240 	call	2a24 <minimaxAlgorithm>
    3bd4:	e0bfff45 	stb	r2,-3(fp)
			//enemyMoved = 1;
			//enemyMoved = algorithm(ENEMY, ENEMYKING, FRIENDLY, FRIENDLYKING, ENEMYDIRECTION);
			turn = 0;
    3bd8:	e03fff85 	stb	zero,-2(fp)
		}
		turnCounter++;
    3bdc:	e0bfffc3 	ldbu	r2,-1(fp)
    3be0:	10800044 	addi	r2,r2,1
    3be4:	e0bfffc5 	stb	r2,-1(fp)
	unsigned char friendlyMoved = 1;
	unsigned char enemyMoved = 1;
	unsigned char turn = 0;
	unsigned char turnCounter = 0;

	while(friendlyMoved == 1 && enemyMoved == 1){
    3be8:	e0bfff03 	ldbu	r2,-4(fp)
    3bec:	10800058 	cmpnei	r2,r2,1
    3bf0:	1000031e 	bne	r2,zero,3c00 <play+0xe8>
    3bf4:	e0bfff43 	ldbu	r2,-3(fp)
    3bf8:	10800060 	cmpeqi	r2,r2,1
    3bfc:	103fd11e 	bne	r2,zero,3b44 <__alt_data_end+0xfc003b44>
			turn = 0;
		}
		turnCounter++;
	}

	if(friendlyMoved == 0){
    3c00:	e0bfff03 	ldbu	r2,-4(fp)
    3c04:	1000041e 	bne	r2,zero,3c18 <play+0x100>
		printf("YOU LOST\n");
    3c08:	010000b4 	movhi	r4,2
    3c0c:	2111ae04 	addi	r4,r4,18104
    3c10:	00057f00 	call	57f0 <puts>
    3c14:	00000306 	br	3c24 <play+0x10c>
	}else{
		printf("YOU WON\n");
    3c18:	010000b4 	movhi	r4,2
    3c1c:	2111b104 	addi	r4,r4,18116
    3c20:	00057f00 	call	57f0 <puts>
	}
	turnCounter--;
    3c24:	e0bfffc3 	ldbu	r2,-1(fp)
    3c28:	10bfffc4 	addi	r2,r2,-1
    3c2c:	e0bfffc5 	stb	r2,-1(fp)
	printf("the game lasted for %i turns\n",turnCounter);
    3c30:	e0bfffc3 	ldbu	r2,-1(fp)
    3c34:	100b883a 	mov	r5,r2
    3c38:	010000b4 	movhi	r4,2
    3c3c:	2111b304 	addi	r4,r4,18124
    3c40:	00056d40 	call	56d4 <printf>
}
    3c44:	0001883a 	nop
    3c48:	e037883a 	mov	sp,fp
    3c4c:	dfc00117 	ldw	ra,4(sp)
    3c50:	df000017 	ldw	fp,0(sp)
    3c54:	dec00204 	addi	sp,sp,8
    3c58:	f800283a 	ret

00003c5c <createBoard>:

void createBoard(){
    3c5c:	defffe04 	addi	sp,sp,-8
    3c60:	df000115 	stw	fp,4(sp)
    3c64:	df000104 	addi	fp,sp,4
	unsigned char x = 1;
    3c68:	00800044 	movi	r2,1
    3c6c:	e0bfff05 	stb	r2,-4(fp)
	unsigned char y = 0;
    3c70:	e03fff45 	stb	zero,-3(fp)
	unsigned char even = 1;
    3c74:	00800044 	movi	r2,1
    3c78:	e0bfff85 	stb	r2,-2(fp)

	while(y < 10){
    3c7c:	00003506 	br	3d54 <createBoard+0xf8>
		board[y][x] = BLACK;
    3c80:	e13fff43 	ldbu	r4,-3(fp)
    3c84:	e0ffff03 	ldbu	r3,-4(fp)
    3c88:	008000f4 	movhi	r2,3
    3c8c:	10a1e604 	addi	r2,r2,-30824
    3c90:	210002a4 	muli	r4,r4,10
    3c94:	1105883a 	add	r2,r2,r4
    3c98:	10c5883a 	add	r2,r2,r3
    3c9c:	00c00044 	movi	r3,1
    3ca0:	10c00005 	stb	r3,0(r2)
		if(y < 4){
    3ca4:	e0bfff43 	ldbu	r2,-3(fp)
    3ca8:	10800128 	cmpgeui	r2,r2,4
    3cac:	1000091e 	bne	r2,zero,3cd4 <createBoard+0x78>
			board[y][x] = ENEMY;
    3cb0:	e13fff43 	ldbu	r4,-3(fp)
    3cb4:	e0ffff03 	ldbu	r3,-4(fp)
    3cb8:	008000f4 	movhi	r2,3
    3cbc:	10a1e604 	addi	r2,r2,-30824
    3cc0:	210002a4 	muli	r4,r4,10
    3cc4:	1105883a 	add	r2,r2,r4
    3cc8:	10c5883a 	add	r2,r2,r3
    3ccc:	00c00104 	movi	r3,4
    3cd0:	10c00005 	stb	r3,0(r2)

		}
		if(y > 5){
    3cd4:	e0bfff43 	ldbu	r2,-3(fp)
    3cd8:	108001b0 	cmpltui	r2,r2,6
    3cdc:	1000091e 	bne	r2,zero,3d04 <createBoard+0xa8>
			board[y][x] = FRIENDLY;
    3ce0:	e13fff43 	ldbu	r4,-3(fp)
    3ce4:	e0ffff03 	ldbu	r3,-4(fp)
    3ce8:	008000f4 	movhi	r2,3
    3cec:	10a1e604 	addi	r2,r2,-30824
    3cf0:	210002a4 	muli	r4,r4,10
    3cf4:	1105883a 	add	r2,r2,r4
    3cf8:	10c5883a 	add	r2,r2,r3
    3cfc:	00c00084 	movi	r3,2
    3d00:	10c00005 	stb	r3,0(r2)
		}

		if(x + 2 < 10 ){
    3d04:	e0bfff03 	ldbu	r2,-4(fp)
    3d08:	10800084 	addi	r2,r2,2
    3d0c:	10800288 	cmpgei	r2,r2,10
    3d10:	1000041e 	bne	r2,zero,3d24 <createBoard+0xc8>
			x = x + 2;
    3d14:	e0bfff03 	ldbu	r2,-4(fp)
    3d18:	10800084 	addi	r2,r2,2
    3d1c:	e0bfff05 	stb	r2,-4(fp)
    3d20:	00000c06 	br	3d54 <createBoard+0xf8>
		}else{
			y++;
    3d24:	e0bfff43 	ldbu	r2,-3(fp)
    3d28:	10800044 	addi	r2,r2,1
    3d2c:	e0bfff45 	stb	r2,-3(fp)
			x = 0;
    3d30:	e03fff05 	stb	zero,-4(fp)
			even = !even;
    3d34:	e0bfff83 	ldbu	r2,-2(fp)
    3d38:	1005003a 	cmpeq	r2,r2,zero
    3d3c:	e0bfff85 	stb	r2,-2(fp)
			if(even > 0){
    3d40:	e0bfff83 	ldbu	r2,-2(fp)
    3d44:	10000326 	beq	r2,zero,3d54 <createBoard+0xf8>
				x++;
    3d48:	e0bfff03 	ldbu	r2,-4(fp)
    3d4c:	10800044 	addi	r2,r2,1
    3d50:	e0bfff05 	stb	r2,-4(fp)
void createBoard(){
	unsigned char x = 1;
	unsigned char y = 0;
	unsigned char even = 1;

	while(y < 10){
    3d54:	e0bfff43 	ldbu	r2,-3(fp)
    3d58:	108002b0 	cmpltui	r2,r2,10
    3d5c:	103fc81e 	bne	r2,zero,3c80 <__alt_data_end+0xfc003c80>
			if(even > 0){
				x++;
			}
		}
	}
}
    3d60:	0001883a 	nop
    3d64:	e037883a 	mov	sp,fp
    3d68:	df000017 	ldw	fp,0(sp)
    3d6c:	dec00104 	addi	sp,sp,4
    3d70:	f800283a 	ret

00003d74 <createEmptyBoard>:

void createEmptyBoard()
{
    3d74:	defffe04 	addi	sp,sp,-8
    3d78:	df000115 	stw	fp,4(sp)
    3d7c:	df000104 	addi	fp,sp,4
	unsigned char x = 1;
    3d80:	00800044 	movi	r2,1
    3d84:	e0bfff05 	stb	r2,-4(fp)
	unsigned char y = 0;
    3d88:	e03fff45 	stb	zero,-3(fp)
	unsigned char even = 1;
    3d8c:	00800044 	movi	r2,1
    3d90:	e0bfff85 	stb	r2,-2(fp)

	while(y < 10){
    3d94:	00001d06 	br	3e0c <createEmptyBoard+0x98>
		board[y][x] = BLACK;
    3d98:	e13fff43 	ldbu	r4,-3(fp)
    3d9c:	e0ffff03 	ldbu	r3,-4(fp)
    3da0:	008000f4 	movhi	r2,3
    3da4:	10a1e604 	addi	r2,r2,-30824
    3da8:	210002a4 	muli	r4,r4,10
    3dac:	1105883a 	add	r2,r2,r4
    3db0:	10c5883a 	add	r2,r2,r3
    3db4:	00c00044 	movi	r3,1
    3db8:	10c00005 	stb	r3,0(r2)

		if(x + 2 < 10 ){
    3dbc:	e0bfff03 	ldbu	r2,-4(fp)
    3dc0:	10800084 	addi	r2,r2,2
    3dc4:	10800288 	cmpgei	r2,r2,10
    3dc8:	1000041e 	bne	r2,zero,3ddc <createEmptyBoard+0x68>
			x = x + 2;
    3dcc:	e0bfff03 	ldbu	r2,-4(fp)
    3dd0:	10800084 	addi	r2,r2,2
    3dd4:	e0bfff05 	stb	r2,-4(fp)
    3dd8:	00000c06 	br	3e0c <createEmptyBoard+0x98>
		}else{
			y++;
    3ddc:	e0bfff43 	ldbu	r2,-3(fp)
    3de0:	10800044 	addi	r2,r2,1
    3de4:	e0bfff45 	stb	r2,-3(fp)
			x = 0;
    3de8:	e03fff05 	stb	zero,-4(fp)
			even = !even;
    3dec:	e0bfff83 	ldbu	r2,-2(fp)
    3df0:	1005003a 	cmpeq	r2,r2,zero
    3df4:	e0bfff85 	stb	r2,-2(fp)
			if(even > 0){
    3df8:	e0bfff83 	ldbu	r2,-2(fp)
    3dfc:	10000326 	beq	r2,zero,3e0c <createEmptyBoard+0x98>
				x++;
    3e00:	e0bfff03 	ldbu	r2,-4(fp)
    3e04:	10800044 	addi	r2,r2,1
    3e08:	e0bfff05 	stb	r2,-4(fp)
{
	unsigned char x = 1;
	unsigned char y = 0;
	unsigned char even = 1;

	while(y < 10){
    3e0c:	e0bfff43 	ldbu	r2,-3(fp)
    3e10:	108002b0 	cmpltui	r2,r2,10
    3e14:	103fe01e 	bne	r2,zero,3d98 <__alt_data_end+0xfc003d98>
			if(even > 0){
				x++;
			}
		}
	}
}
    3e18:	0001883a 	nop
    3e1c:	e037883a 	mov	sp,fp
    3e20:	df000017 	ldw	fp,0(sp)
    3e24:	dec00104 	addi	sp,sp,4
    3e28:	f800283a 	ret

00003e2c <vectorInit>:
#include <string.h>

#include "vector.h"

Vector * vectorInit()
{
    3e2c:	defffd04 	addi	sp,sp,-12
    3e30:	dfc00215 	stw	ra,8(sp)
    3e34:	df000115 	stw	fp,4(sp)
    3e38:	df000104 	addi	fp,sp,4
	Vector *v = malloc(sizeof(Vector));
    3e3c:	01000304 	movi	r4,12
    3e40:	0004b1c0 	call	4b1c <malloc>
    3e44:	e0bfff15 	stw	r2,-4(fp)
	v->data = NULL;
    3e48:	e0bfff17 	ldw	r2,-4(fp)
    3e4c:	10000015 	stw	zero,0(r2)
	v->size = 0;
    3e50:	e0bfff17 	ldw	r2,-4(fp)
    3e54:	10000115 	stw	zero,4(r2)
	v->count = 0;
    3e58:	e0bfff17 	ldw	r2,-4(fp)
    3e5c:	10000215 	stw	zero,8(r2)
	return v;
    3e60:	e0bfff17 	ldw	r2,-4(fp)
}
    3e64:	e037883a 	mov	sp,fp
    3e68:	dfc00117 	ldw	ra,4(sp)
    3e6c:	df000017 	ldw	fp,0(sp)
    3e70:	dec00204 	addi	sp,sp,8
    3e74:	f800283a 	ret

00003e78 <vectorCount>:

int vectorCount(Vector * v)
{
    3e78:	defffe04 	addi	sp,sp,-8
    3e7c:	df000115 	stw	fp,4(sp)
    3e80:	df000104 	addi	fp,sp,4
    3e84:	e13fff15 	stw	r4,-4(fp)
	return v->count;
    3e88:	e0bfff17 	ldw	r2,-4(fp)
    3e8c:	10800217 	ldw	r2,8(r2)
}
    3e90:	e037883a 	mov	sp,fp
    3e94:	df000017 	ldw	fp,0(sp)
    3e98:	dec00104 	addi	sp,sp,4
    3e9c:	f800283a 	ret

00003ea0 <vectorAdd>:

void vectorAdd(Vector * v, void * e)
{
    3ea0:	defffc04 	addi	sp,sp,-16
    3ea4:	dfc00315 	stw	ra,12(sp)
    3ea8:	df000215 	stw	fp,8(sp)
    3eac:	df000204 	addi	fp,sp,8
    3eb0:	e13ffe15 	stw	r4,-8(fp)
    3eb4:	e17fff15 	stw	r5,-4(fp)
	if (v->size == 0) {
    3eb8:	e0bffe17 	ldw	r2,-8(fp)
    3ebc:	10800117 	ldw	r2,4(r2)
    3ec0:	1000141e 	bne	r2,zero,3f14 <vectorAdd+0x74>
		v->size = 10;
    3ec4:	e0bffe17 	ldw	r2,-8(fp)
    3ec8:	00c00284 	movi	r3,10
    3ecc:	10c00115 	stw	r3,4(r2)
		v->data = malloc(sizeof(void*) * v->size);
    3ed0:	e0bffe17 	ldw	r2,-8(fp)
    3ed4:	10800117 	ldw	r2,4(r2)
    3ed8:	1085883a 	add	r2,r2,r2
    3edc:	1085883a 	add	r2,r2,r2
    3ee0:	1009883a 	mov	r4,r2
    3ee4:	0004b1c0 	call	4b1c <malloc>
    3ee8:	1007883a 	mov	r3,r2
    3eec:	e0bffe17 	ldw	r2,-8(fp)
    3ef0:	10c00015 	stw	r3,0(r2)
		memset(v->data, NULL, sizeof(void) * v->size);
    3ef4:	e0bffe17 	ldw	r2,-8(fp)
    3ef8:	10c00017 	ldw	r3,0(r2)
    3efc:	e0bffe17 	ldw	r2,-8(fp)
    3f00:	10800117 	ldw	r2,4(r2)
    3f04:	100d883a 	mov	r6,r2
    3f08:	000b883a 	mov	r5,zero
    3f0c:	1809883a 	mov	r4,r3
    3f10:	000557c0 	call	557c <memset>
	}

	// condition to increase v->data:
	// last slot exhausted
	if (v->size == v->count) {
    3f14:	e0bffe17 	ldw	r2,-8(fp)
    3f18:	10c00117 	ldw	r3,4(r2)
    3f1c:	e0bffe17 	ldw	r2,-8(fp)
    3f20:	10800217 	ldw	r2,8(r2)
    3f24:	1880121e 	bne	r3,r2,3f70 <vectorAdd+0xd0>
		v->size *= 2;
    3f28:	e0bffe17 	ldw	r2,-8(fp)
    3f2c:	10800117 	ldw	r2,4(r2)
    3f30:	1085883a 	add	r2,r2,r2
    3f34:	1007883a 	mov	r3,r2
    3f38:	e0bffe17 	ldw	r2,-8(fp)
    3f3c:	10c00115 	stw	r3,4(r2)
		v->data = realloc(v->data, sizeof(void*) * v->size);
    3f40:	e0bffe17 	ldw	r2,-8(fp)
    3f44:	10c00017 	ldw	r3,0(r2)
    3f48:	e0bffe17 	ldw	r2,-8(fp)
    3f4c:	10800117 	ldw	r2,4(r2)
    3f50:	1085883a 	add	r2,r2,r2
    3f54:	1085883a 	add	r2,r2,r2
    3f58:	100b883a 	mov	r5,r2
    3f5c:	1809883a 	mov	r4,r3
    3f60:	00058040 	call	5804 <realloc>
    3f64:	1007883a 	mov	r3,r2
    3f68:	e0bffe17 	ldw	r2,-8(fp)
    3f6c:	10c00015 	stw	r3,0(r2)
	}

	v->data[v->count] = e;
    3f70:	e0bffe17 	ldw	r2,-8(fp)
    3f74:	10c00017 	ldw	r3,0(r2)
    3f78:	e0bffe17 	ldw	r2,-8(fp)
    3f7c:	10800217 	ldw	r2,8(r2)
    3f80:	1085883a 	add	r2,r2,r2
    3f84:	1085883a 	add	r2,r2,r2
    3f88:	1885883a 	add	r2,r3,r2
    3f8c:	e0ffff17 	ldw	r3,-4(fp)
    3f90:	10c00015 	stw	r3,0(r2)
	v->count++;
    3f94:	e0bffe17 	ldw	r2,-8(fp)
    3f98:	10800217 	ldw	r2,8(r2)
    3f9c:	10c00044 	addi	r3,r2,1
    3fa0:	e0bffe17 	ldw	r2,-8(fp)
    3fa4:	10c00215 	stw	r3,8(r2)
}
    3fa8:	0001883a 	nop
    3fac:	e037883a 	mov	sp,fp
    3fb0:	dfc00117 	ldw	ra,4(sp)
    3fb4:	df000017 	ldw	fp,0(sp)
    3fb8:	dec00204 	addi	sp,sp,8
    3fbc:	f800283a 	ret

00003fc0 <vectorSet>:

void vectorSet(Vector *v, int index, void *e)
{
    3fc0:	defffc04 	addi	sp,sp,-16
    3fc4:	df000315 	stw	fp,12(sp)
    3fc8:	df000304 	addi	fp,sp,12
    3fcc:	e13ffd15 	stw	r4,-12(fp)
    3fd0:	e17ffe15 	stw	r5,-8(fp)
    3fd4:	e1bfff15 	stw	r6,-4(fp)
	if (index >= v->count) {
    3fd8:	e0bffd17 	ldw	r2,-12(fp)
    3fdc:	10800217 	ldw	r2,8(r2)
    3fe0:	e0fffe17 	ldw	r3,-8(fp)
    3fe4:	1880090e 	bge	r3,r2,400c <vectorSet+0x4c>
		return;
	}

	v->data[index] = e;
    3fe8:	e0bffd17 	ldw	r2,-12(fp)
    3fec:	10c00017 	ldw	r3,0(r2)
    3ff0:	e0bffe17 	ldw	r2,-8(fp)
    3ff4:	1085883a 	add	r2,r2,r2
    3ff8:	1085883a 	add	r2,r2,r2
    3ffc:	1885883a 	add	r2,r3,r2
    4000:	e0ffff17 	ldw	r3,-4(fp)
    4004:	10c00015 	stw	r3,0(r2)
    4008:	00000106 	br	4010 <vectorSet+0x50>
}

void vectorSet(Vector *v, int index, void *e)
{
	if (index >= v->count) {
		return;
    400c:	0001883a 	nop
	}

	v->data[index] = e;
}
    4010:	e037883a 	mov	sp,fp
    4014:	df000017 	ldw	fp,0(sp)
    4018:	dec00104 	addi	sp,sp,4
    401c:	f800283a 	ret

00004020 <vectorGet>:

void * vectorGet(Vector *v, int index)
{
    4020:	defffd04 	addi	sp,sp,-12
    4024:	df000215 	stw	fp,8(sp)
    4028:	df000204 	addi	fp,sp,8
    402c:	e13ffe15 	stw	r4,-8(fp)
    4030:	e17fff15 	stw	r5,-4(fp)
	if (index >= v->count) {
    4034:	e0bffe17 	ldw	r2,-8(fp)
    4038:	10800217 	ldw	r2,8(r2)
    403c:	e0ffff17 	ldw	r3,-4(fp)
    4040:	18800216 	blt	r3,r2,404c <vectorGet+0x2c>
		return NULL;
    4044:	0005883a 	mov	r2,zero
    4048:	00000706 	br	4068 <vectorGet+0x48>
	}

	return v->data[index];
    404c:	e0bffe17 	ldw	r2,-8(fp)
    4050:	10c00017 	ldw	r3,0(r2)
    4054:	e0bfff17 	ldw	r2,-4(fp)
    4058:	1085883a 	add	r2,r2,r2
    405c:	1085883a 	add	r2,r2,r2
    4060:	1885883a 	add	r2,r3,r2
    4064:	10800017 	ldw	r2,0(r2)
}
    4068:	e037883a 	mov	sp,fp
    406c:	df000017 	ldw	fp,0(sp)
    4070:	dec00104 	addi	sp,sp,4
    4074:	f800283a 	ret

00004078 <vectorDelete>:

void vectorDelete(Vector *v, int index)
{
    4078:	defff904 	addi	sp,sp,-28
    407c:	dfc00615 	stw	ra,24(sp)
    4080:	df000515 	stw	fp,20(sp)
    4084:	df000504 	addi	fp,sp,20
    4088:	e13ffe15 	stw	r4,-8(fp)
    408c:	e17fff15 	stw	r5,-4(fp)
	if (index >= v->count) {
    4090:	e0bffe17 	ldw	r2,-8(fp)
    4094:	10800217 	ldw	r2,8(r2)
    4098:	e0ffff17 	ldw	r3,-4(fp)
    409c:	18803d0e 	bge	r3,r2,4194 <vectorDelete+0x11c>
		return;
	}

	v->data[index] = NULL;
    40a0:	e0bffe17 	ldw	r2,-8(fp)
    40a4:	10c00017 	ldw	r3,0(r2)
    40a8:	e0bfff17 	ldw	r2,-4(fp)
    40ac:	1085883a 	add	r2,r2,r2
    40b0:	1085883a 	add	r2,r2,r2
    40b4:	1885883a 	add	r2,r3,r2
    40b8:	10000015 	stw	zero,0(r2)

	int i, j;
	void **newarr = (void**)malloc(sizeof(void*) * v->count * 2);
    40bc:	e0bffe17 	ldw	r2,-8(fp)
    40c0:	10800217 	ldw	r2,8(r2)
    40c4:	100490fa 	slli	r2,r2,3
    40c8:	1009883a 	mov	r4,r2
    40cc:	0004b1c0 	call	4b1c <malloc>
    40d0:	e0bffd15 	stw	r2,-12(fp)
	for (i = 0, j = 0; i < v->count; i++) {
    40d4:	e03ffb15 	stw	zero,-20(fp)
    40d8:	e03ffc15 	stw	zero,-16(fp)
    40dc:	00001c06 	br	4150 <vectorDelete+0xd8>
		if (v->data[i] != NULL) {
    40e0:	e0bffe17 	ldw	r2,-8(fp)
    40e4:	10c00017 	ldw	r3,0(r2)
    40e8:	e0bffb17 	ldw	r2,-20(fp)
    40ec:	1085883a 	add	r2,r2,r2
    40f0:	1085883a 	add	r2,r2,r2
    40f4:	1885883a 	add	r2,r3,r2
    40f8:	10800017 	ldw	r2,0(r2)
    40fc:	10001126 	beq	r2,zero,4144 <vectorDelete+0xcc>
			newarr[j] = v->data[i];
    4100:	e0bffc17 	ldw	r2,-16(fp)
    4104:	1085883a 	add	r2,r2,r2
    4108:	1085883a 	add	r2,r2,r2
    410c:	1007883a 	mov	r3,r2
    4110:	e0bffd17 	ldw	r2,-12(fp)
    4114:	10c7883a 	add	r3,r2,r3
    4118:	e0bffe17 	ldw	r2,-8(fp)
    411c:	11000017 	ldw	r4,0(r2)
    4120:	e0bffb17 	ldw	r2,-20(fp)
    4124:	1085883a 	add	r2,r2,r2
    4128:	1085883a 	add	r2,r2,r2
    412c:	2085883a 	add	r2,r4,r2
    4130:	10800017 	ldw	r2,0(r2)
    4134:	18800015 	stw	r2,0(r3)
			j++;
    4138:	e0bffc17 	ldw	r2,-16(fp)
    413c:	10800044 	addi	r2,r2,1
    4140:	e0bffc15 	stw	r2,-16(fp)

	v->data[index] = NULL;

	int i, j;
	void **newarr = (void**)malloc(sizeof(void*) * v->count * 2);
	for (i = 0, j = 0; i < v->count; i++) {
    4144:	e0bffb17 	ldw	r2,-20(fp)
    4148:	10800044 	addi	r2,r2,1
    414c:	e0bffb15 	stw	r2,-20(fp)
    4150:	e0bffe17 	ldw	r2,-8(fp)
    4154:	10800217 	ldw	r2,8(r2)
    4158:	e0fffb17 	ldw	r3,-20(fp)
    415c:	18bfe016 	blt	r3,r2,40e0 <__alt_data_end+0xfc0040e0>
			newarr[j] = v->data[i];
			j++;
		}
	}

	free(v->data);
    4160:	e0bffe17 	ldw	r2,-8(fp)
    4164:	10800017 	ldw	r2,0(r2)
    4168:	1009883a 	mov	r4,r2
    416c:	0004b300 	call	4b30 <free>

	v->data = newarr;
    4170:	e0bffe17 	ldw	r2,-8(fp)
    4174:	e0fffd17 	ldw	r3,-12(fp)
    4178:	10c00015 	stw	r3,0(r2)
	v->count--;
    417c:	e0bffe17 	ldw	r2,-8(fp)
    4180:	10800217 	ldw	r2,8(r2)
    4184:	10ffffc4 	addi	r3,r2,-1
    4188:	e0bffe17 	ldw	r2,-8(fp)
    418c:	10c00215 	stw	r3,8(r2)
    4190:	00000106 	br	4198 <vectorDelete+0x120>
}

void vectorDelete(Vector *v, int index)
{
	if (index >= v->count) {
		return;
    4194:	0001883a 	nop

	free(v->data);

	v->data = newarr;
	v->count--;
}
    4198:	e037883a 	mov	sp,fp
    419c:	dfc00117 	ldw	ra,4(sp)
    41a0:	df000017 	ldw	fp,0(sp)
    41a4:	dec00204 	addi	sp,sp,8
    41a8:	f800283a 	ret

000041ac <vectorFree>:

void vectorFree(Vector *v)
{
    41ac:	defffd04 	addi	sp,sp,-12
    41b0:	dfc00215 	stw	ra,8(sp)
    41b4:	df000115 	stw	fp,4(sp)
    41b8:	df000104 	addi	fp,sp,4
    41bc:	e13fff15 	stw	r4,-4(fp)
	free(v->data);
    41c0:	e0bfff17 	ldw	r2,-4(fp)
    41c4:	10800017 	ldw	r2,0(r2)
    41c8:	1009883a 	mov	r4,r2
    41cc:	0004b300 	call	4b30 <free>
}
    41d0:	0001883a 	nop
    41d4:	e037883a 	mov	sp,fp
    41d8:	dfc00117 	ldw	ra,4(sp)
    41dc:	df000017 	ldw	fp,0(sp)
    41e0:	dec00204 	addi	sp,sp,8
    41e4:	f800283a 	ret

000041e8 <printLocation>:

void vectorFree(Vector *vector) {
	free(vector->captures);
}*/

void printLocation(Location *location){
    41e8:	defffd04 	addi	sp,sp,-12
    41ec:	dfc00215 	stw	ra,8(sp)
    41f0:	df000115 	stw	fp,4(sp)
    41f4:	df000104 	addi	fp,sp,4
    41f8:	e13fff15 	stw	r4,-4(fp)
	printf("Row: %d Field: %d\n", location->row, location->field);
    41fc:	e0bfff17 	ldw	r2,-4(fp)
    4200:	10800043 	ldbu	r2,1(r2)
    4204:	10c03fcc 	andi	r3,r2,255
    4208:	e0bfff17 	ldw	r2,-4(fp)
    420c:	10800003 	ldbu	r2,0(r2)
    4210:	10803fcc 	andi	r2,r2,255
    4214:	100d883a 	mov	r6,r2
    4218:	180b883a 	mov	r5,r3
    421c:	010000b4 	movhi	r4,2
    4220:	2111bb04 	addi	r4,r4,18156
    4224:	00056d40 	call	56d4 <printf>
}
    4228:	0001883a 	nop
    422c:	e037883a 	mov	sp,fp
    4230:	dfc00117 	ldw	ra,4(sp)
    4234:	df000017 	ldw	fp,0(sp)
    4238:	dec00204 	addi	sp,sp,8
    423c:	f800283a 	ret

00004240 <printCapture>:

void printCapture(VectorCapture *capture){
    4240:	defffd04 	addi	sp,sp,-12
    4244:	dfc00215 	stw	ra,8(sp)
    4248:	df000115 	stw	fp,4(sp)
    424c:	df000104 	addi	fp,sp,4
    4250:	e13fff15 	stw	r4,-4(fp)
	printf("Old ");
    4254:	010000b4 	movhi	r4,2
    4258:	2111c004 	addi	r4,r4,18176
    425c:	00056d40 	call	56d4 <printf>
	printLocation(&capture->oldLocation);
    4260:	e0bfff17 	ldw	r2,-4(fp)
    4264:	10800104 	addi	r2,r2,4
    4268:	1009883a 	mov	r4,r2
    426c:	00041e80 	call	41e8 <printLocation>
	printf("Capture ");
    4270:	010000b4 	movhi	r4,2
    4274:	2111c204 	addi	r4,r4,18184
    4278:	00056d40 	call	56d4 <printf>
	printLocation(&capture->captureLocation);
    427c:	e0bfff17 	ldw	r2,-4(fp)
    4280:	10800184 	addi	r2,r2,6
    4284:	1009883a 	mov	r4,r2
    4288:	00041e80 	call	41e8 <printLocation>
	printf("New ");
    428c:	010000b4 	movhi	r4,2
    4290:	2111c504 	addi	r4,r4,18196
    4294:	00056d40 	call	56d4 <printf>
	printLocation(&capture->newLocation);
    4298:	e0bfff17 	ldw	r2,-4(fp)
    429c:	10800204 	addi	r2,r2,8
    42a0:	1009883a 	mov	r4,r2
    42a4:	00041e80 	call	41e8 <printLocation>
	printf("Piece: ");
    42a8:	010000b4 	movhi	r4,2
    42ac:	2111c704 	addi	r4,r4,18204
    42b0:	00056d40 	call	56d4 <printf>
	switch(capture->piece){
    42b4:	e0bfff17 	ldw	r2,-4(fp)
    42b8:	10800283 	ldbu	r2,10(r2)
    42bc:	10803fcc 	andi	r2,r2,255
    42c0:	10c000e0 	cmpeqi	r3,r2,3
    42c4:	1800141e 	bne	r3,zero,4318 <printCapture+0xd8>
    42c8:	10c00108 	cmpgei	r3,r2,4
    42cc:	1800031e 	bne	r3,zero,42dc <printCapture+0x9c>
    42d0:	108000a0 	cmpeqi	r2,r2,2
    42d4:	10000d1e 	bne	r2,zero,430c <printCapture+0xcc>
    42d8:	00001306 	br	4328 <printCapture+0xe8>
    42dc:	10c00120 	cmpeqi	r3,r2,4
    42e0:	1800031e 	bne	r3,zero,42f0 <printCapture+0xb0>
    42e4:	10800160 	cmpeqi	r2,r2,5
    42e8:	1000041e 	bne	r2,zero,42fc <printCapture+0xbc>
    42ec:	00000e06 	br	4328 <printCapture+0xe8>
		case ENEMY :
			printf("E");
    42f0:	01001144 	movi	r4,69
    42f4:	00057180 	call	5718 <putchar>
			break;
    42f8:	00000b06 	br	4328 <printCapture+0xe8>
		case ENEMYKING :
			printf("EK");
    42fc:	010000b4 	movhi	r4,2
    4300:	2111c904 	addi	r4,r4,18212
    4304:	00056d40 	call	56d4 <printf>
			break;
    4308:	00000706 	br	4328 <printCapture+0xe8>
		case FRIENDLY :
			printf("F");
    430c:	01001184 	movi	r4,70
    4310:	00057180 	call	5718 <putchar>
			break;
    4314:	00000406 	br	4328 <printCapture+0xe8>
		case FRIENDLYKING :
			printf("FK");
    4318:	010000b4 	movhi	r4,2
    431c:	2111ca04 	addi	r4,r4,18216
    4320:	00056d40 	call	56d4 <printf>
			break;
    4324:	0001883a 	nop
	}
	printf("\n\n");
    4328:	010000b4 	movhi	r4,2
    432c:	2111cb04 	addi	r4,r4,18220
    4330:	00057f00 	call	57f0 <puts>
}
    4334:	0001883a 	nop
    4338:	e037883a 	mov	sp,fp
    433c:	dfc00117 	ldw	ra,4(sp)
    4340:	df000017 	ldw	fp,0(sp)
    4344:	dec00204 	addi	sp,sp,8
    4348:	f800283a 	ret

0000434c <printVector>:

void printVector(Vector *vector, unsigned char depth){
    434c:	defffa04 	addi	sp,sp,-24
    4350:	dfc00515 	stw	ra,20(sp)
    4354:	df000415 	stw	fp,16(sp)
    4358:	df000404 	addi	fp,sp,16
    435c:	e13ffe15 	stw	r4,-8(fp)
    4360:	2805883a 	mov	r2,r5
    4364:	e0bfff05 	stb	r2,-4(fp)
	depth++;
    4368:	e0bfff03 	ldbu	r2,-4(fp)
    436c:	10800044 	addi	r2,r2,1
    4370:	e0bfff05 	stb	r2,-4(fp)
	printf("Count: %d\n Capacity: %d\n", vector->count, vector->size);
    4374:	e0bffe17 	ldw	r2,-8(fp)
    4378:	10c00217 	ldw	r3,8(r2)
    437c:	e0bffe17 	ldw	r2,-8(fp)
    4380:	10800117 	ldw	r2,4(r2)
    4384:	100d883a 	mov	r6,r2
    4388:	180b883a 	mov	r5,r3
    438c:	010000b4 	movhi	r4,2
    4390:	2111cc04 	addi	r4,r4,18224
    4394:	00056d40 	call	56d4 <printf>
	for(unsigned char i = 0; i < vector->count; i++){
    4398:	e03ffc05 	stb	zero,-16(fp)
    439c:	00003006 	br	4460 <printVector+0x114>
		if(vector->data[i] != NULL){
    43a0:	e0bffe17 	ldw	r2,-8(fp)
    43a4:	10c00017 	ldw	r3,0(r2)
