Archive member included to satisfy reference by file (symbol)

c:/intelfpga_lite/16.1/nios2eds/bin/gnu/h-x86_64-mingw32/bin/../lib/gcc/nios2-elf/5.3.0/../../../../../H-x86_64-mingw32/nios2-elf/lib/mhw-mulx\libc.a(lib_a-puts.o)
                              obj/default/hello_ucosii.o (puts)
c:/intelfpga_lite/16.1/nios2eds/bin/gnu/h-x86_64-mingw32/bin/../lib/gcc/nios2-elf/5.3.0/../../../../../H-x86_64-mingw32/nios2-elf/lib/mhw-mulx\libc.a(lib_a-strlen.o)
                              c:/intelfpga_lite/16.1/nios2eds/bin/gnu/h-x86_64-mingw32/bin/../lib/gcc/nios2-elf/5.3.0/../../../../../H-x86_64-mingw32/nios2-elf/lib/mhw-mulx\libc.a(lib_a-puts.o) (strlen)
c:/intelfpga_lite/16.1/nios2eds/bin/gnu/h-x86_64-mingw32/bin/../lib/gcc/nios2-elf/5.3.0/../../../../../H-x86_64-mingw32/nios2-elf/lib/mhw-mulx\libc.a(lib_a-findfp.o)
                              c:/intelfpga_lite/16.1/nios2eds/bin/gnu/h-x86_64-mingw32/bin/../lib/gcc/nios2-elf/5.3.0/../../../../../H-x86_64-mingw32/nios2-elf/lib/mhw-mulx\libc.a(lib_a-puts.o) (__sinit)
c:/intelfpga_lite/16.1/nios2eds/bin/gnu/h-x86_64-mingw32/bin/../lib/gcc/nios2-elf/5.3.0/../../../../../H-x86_64-mingw32/nios2-elf/lib/mhw-mulx\libc.a(lib_a-fvwrite.o)
                              c:/intelfpga_lite/16.1/nios2eds/bin/gnu/h-x86_64-mingw32/bin/../lib/gcc/nios2-elf/5.3.0/../../../../../H-x86_64-mingw32/nios2-elf/lib/mhw-mulx\libc.a(lib_a-puts.o) (__sfvwrite_r)
c:/intelfpga_lite/16.1/nios2eds/bin/gnu/h-x86_64-mingw32/bin/../lib/gcc/nios2-elf/5.3.0/../../../../../H-x86_64-mingw32/nios2-elf/lib/mhw-mulx\libc.a(lib_a-fwalk.o)
                              c:/intelfpga_lite/16.1/nios2eds/bin/gnu/h-x86_64-mingw32/bin/../lib/gcc/nios2-elf/5.3.0/../../../../../H-x86_64-mingw32/nios2-elf/lib/mhw-mulx\libc.a(lib_a-findfp.o) (_fwalk)
c:/intelfpga_lite/16.1/nios2eds/bin/gnu/h-x86_64-mingw32/bin/../lib/gcc/nios2-elf/5.3.0/../../../../../H-x86_64-mingw32/nios2-elf/lib/mhw-mulx\libc.a(lib_a-impure.o)
                              c:/intelfpga_lite/16.1/nios2eds/bin/gnu/h-x86_64-mingw32/bin/../lib/gcc/nios2-elf/5.3.0/../../../../../H-x86_64-mingw32/nios2-elf/lib/mhw-mulx\libc.a(lib_a-findfp.o) (_global_impure_ptr)
c:/intelfpga_lite/16.1/nios2eds/bin/gnu/h-x86_64-mingw32/bin/../lib/gcc/nios2-elf/5.3.0/../../../../../H-x86_64-mingw32/nios2-elf/lib/mhw-mulx\libc.a(lib_a-mallocr.o)
                              c:/intelfpga_lite/16.1/nios2eds/bin/gnu/h-x86_64-mingw32/bin/../lib/gcc/nios2-elf/5.3.0/../../../../../H-x86_64-mingw32/nios2-elf/lib/mhw-mulx\libc.a(lib_a-findfp.o) (_malloc_r)
c:/intelfpga_lite/16.1/nios2eds/bin/gnu/h-x86_64-mingw32/bin/../lib/gcc/nios2-elf/5.3.0/../../../../../H-x86_64-mingw32/nios2-elf/lib/mhw-mulx\libc.a(lib_a-memchr.o)
                              c:/intelfpga_lite/16.1/nios2eds/bin/gnu/h-x86_64-mingw32/bin/../lib/gcc/nios2-elf/5.3.0/../../../../../H-x86_64-mingw32/nios2-elf/lib/mhw-mulx\libc.a(lib_a-fvwrite.o) (memchr)
c:/intelfpga_lite/16.1/nios2eds/bin/gnu/h-x86_64-mingw32/bin/../lib/gcc/nios2-elf/5.3.0/../../../../../H-x86_64-mingw32/nios2-elf/lib/mhw-mulx\libc.a(lib_a-memcpy.o)
                              c:/intelfpga_lite/16.1/nios2eds/bin/gnu/h-x86_64-mingw32/bin/../lib/gcc/nios2-elf/5.3.0/../../../../../H-x86_64-mingw32/nios2-elf/lib/mhw-mulx\libc.a(lib_a-fvwrite.o) (memcpy)
c:/intelfpga_lite/16.1/nios2eds/bin/gnu/h-x86_64-mingw32/bin/../lib/gcc/nios2-elf/5.3.0/../../../../../H-x86_64-mingw32/nios2-elf/lib/mhw-mulx\libc.a(lib_a-memmove.o)
                              c:/intelfpga_lite/16.1/nios2eds/bin/gnu/h-x86_64-mingw32/bin/../lib/gcc/nios2-elf/5.3.0/../../../../../H-x86_64-mingw32/nios2-elf/lib/mhw-mulx\libc.a(lib_a-fvwrite.o) (memmove)
c:/intelfpga_lite/16.1/nios2eds/bin/gnu/h-x86_64-mingw32/bin/../lib/gcc/nios2-elf/5.3.0/../../../../../H-x86_64-mingw32/nios2-elf/lib/mhw-mulx\libc.a(lib_a-memset.o)
                              c:/intelfpga_lite/16.1/nios2eds/bin/gnu/h-x86_64-mingw32/bin/../lib/gcc/nios2-elf/5.3.0/../../../../../H-x86_64-mingw32/nios2-elf/lib/mhw-mulx\libc.a(lib_a-findfp.o) (memset)
c:/intelfpga_lite/16.1/nios2eds/bin/gnu/h-x86_64-mingw32/bin/../lib/gcc/nios2-elf/5.3.0/../../../../../H-x86_64-mingw32/nios2-elf/lib/mhw-mulx\libc.a(lib_a-reallocr.o)
                              c:/intelfpga_lite/16.1/nios2eds/bin/gnu/h-x86_64-mingw32/bin/../lib/gcc/nios2-elf/5.3.0/../../../../../H-x86_64-mingw32/nios2-elf/lib/mhw-mulx\libc.a(lib_a-fvwrite.o) (_realloc_r)
c:/intelfpga_lite/16.1/nios2eds/bin/gnu/h-x86_64-mingw32/bin/../lib/gcc/nios2-elf/5.3.0/../../../../../H-x86_64-mingw32/nios2-elf/lib/mhw-mulx\libc.a(lib_a-sbrkr.o)
                              c:/intelfpga_lite/16.1/nios2eds/bin/gnu/h-x86_64-mingw32/bin/../lib/gcc/nios2-elf/5.3.0/../../../../../H-x86_64-mingw32/nios2-elf/lib/mhw-mulx\libc.a(lib_a-mallocr.o) (_sbrk_r)
c:/intelfpga_lite/16.1/nios2eds/bin/gnu/h-x86_64-mingw32/bin/../lib/gcc/nios2-elf/5.3.0/../../../../../H-x86_64-mingw32/nios2-elf/lib/mhw-mulx\libc.a(lib_a-stdio.o)
                              c:/intelfpga_lite/16.1/nios2eds/bin/gnu/h-x86_64-mingw32/bin/../lib/gcc/nios2-elf/5.3.0/../../../../../H-x86_64-mingw32/nios2-elf/lib/mhw-mulx\libc.a(lib_a-findfp.o) (__sread)
c:/intelfpga_lite/16.1/nios2eds/bin/gnu/h-x86_64-mingw32/bin/../lib/gcc/nios2-elf/5.3.0/../../../../../H-x86_64-mingw32/nios2-elf/lib/mhw-mulx\libc.a(lib_a-writer.o)
                              c:/intelfpga_lite/16.1/nios2eds/bin/gnu/h-x86_64-mingw32/bin/../lib/gcc/nios2-elf/5.3.0/../../../../../H-x86_64-mingw32/nios2-elf/lib/mhw-mulx\libc.a(lib_a-stdio.o) (_write_r)
c:/intelfpga_lite/16.1/nios2eds/bin/gnu/h-x86_64-mingw32/bin/../lib/gcc/nios2-elf/5.3.0/../../../../../H-x86_64-mingw32/nios2-elf/lib/mhw-mulx\libc.a(lib_a-wsetup.o)
                              c:/intelfpga_lite/16.1/nios2eds/bin/gnu/h-x86_64-mingw32/bin/../lib/gcc/nios2-elf/5.3.0/../../../../../H-x86_64-mingw32/nios2-elf/lib/mhw-mulx\libc.a(lib_a-fvwrite.o) (__swsetup_r)
c:/intelfpga_lite/16.1/nios2eds/bin/gnu/h-x86_64-mingw32/bin/../lib/gcc/nios2-elf/5.3.0/../../../../../H-x86_64-mingw32/nios2-elf/lib/mhw-mulx\libc.a(closer.o)
                              c:/intelfpga_lite/16.1/nios2eds/bin/gnu/h-x86_64-mingw32/bin/../lib/gcc/nios2-elf/5.3.0/../../../../../H-x86_64-mingw32/nios2-elf/lib/mhw-mulx\libc.a(lib_a-stdio.o) (_close_r)
c:/intelfpga_lite/16.1/nios2eds/bin/gnu/h-x86_64-mingw32/bin/../lib/gcc/nios2-elf/5.3.0/../../../../../H-x86_64-mingw32/nios2-elf/lib/mhw-mulx\libc.a(lib_a-fclose.o)
                              c:/intelfpga_lite/16.1/nios2eds/bin/gnu/h-x86_64-mingw32/bin/../lib/gcc/nios2-elf/5.3.0/../../../../../H-x86_64-mingw32/nios2-elf/lib/mhw-mulx\libc.a(lib_a-findfp.o) (_fclose_r)
c:/intelfpga_lite/16.1/nios2eds/bin/gnu/h-x86_64-mingw32/bin/../lib/gcc/nios2-elf/5.3.0/../../../../../H-x86_64-mingw32/nios2-elf/lib/mhw-mulx\libc.a(lib_a-fflush.o)
                              c:/intelfpga_lite/16.1/nios2eds/bin/gnu/h-x86_64-mingw32/bin/../lib/gcc/nios2-elf/5.3.0/../../../../../H-x86_64-mingw32/nios2-elf/lib/mhw-mulx\libc.a(lib_a-fclose.o) (__sflush_r)
c:/intelfpga_lite/16.1/nios2eds/bin/gnu/h-x86_64-mingw32/bin/../lib/gcc/nios2-elf/5.3.0/../../../../../H-x86_64-mingw32/nios2-elf/lib/mhw-mulx\libc.a(lib_a-freer.o)
                              c:/intelfpga_lite/16.1/nios2eds/bin/gnu/h-x86_64-mingw32/bin/../lib/gcc/nios2-elf/5.3.0/../../../../../H-x86_64-mingw32/nios2-elf/lib/mhw-mulx\libc.a(lib_a-fvwrite.o) (_free_r)
c:/intelfpga_lite/16.1/nios2eds/bin/gnu/h-x86_64-mingw32/bin/../lib/gcc/nios2-elf/5.3.0/../../../../../H-x86_64-mingw32/nios2-elf/lib/mhw-mulx\libc.a(lib_a-int_errno.o)
                              c:/intelfpga_lite/16.1/nios2eds/bin/gnu/h-x86_64-mingw32/bin/../lib/gcc/nios2-elf/5.3.0/../../../../../H-x86_64-mingw32/nios2-elf/lib/mhw-mulx\libc.a(lib_a-sbrkr.o) (errno)
c:/intelfpga_lite/16.1/nios2eds/bin/gnu/h-x86_64-mingw32/bin/../lib/gcc/nios2-elf/5.3.0/../../../../../H-x86_64-mingw32/nios2-elf/lib/mhw-mulx\libc.a(lib_a-lseekr.o)
                              c:/intelfpga_lite/16.1/nios2eds/bin/gnu/h-x86_64-mingw32/bin/../lib/gcc/nios2-elf/5.3.0/../../../../../H-x86_64-mingw32/nios2-elf/lib/mhw-mulx\libc.a(lib_a-stdio.o) (_lseek_r)
c:/intelfpga_lite/16.1/nios2eds/bin/gnu/h-x86_64-mingw32/bin/../lib/gcc/nios2-elf/5.3.0/../../../../../H-x86_64-mingw32/nios2-elf/lib/mhw-mulx\libc.a(lib_a-makebuf.o)
                              c:/intelfpga_lite/16.1/nios2eds/bin/gnu/h-x86_64-mingw32/bin/../lib/gcc/nios2-elf/5.3.0/../../../../../H-x86_64-mingw32/nios2-elf/lib/mhw-mulx\libc.a(lib_a-wsetup.o) (__smakebuf_r)
c:/intelfpga_lite/16.1/nios2eds/bin/gnu/h-x86_64-mingw32/bin/../lib/gcc/nios2-elf/5.3.0/../../../../../H-x86_64-mingw32/nios2-elf/lib/mhw-mulx\libc.a(lib_a-readr.o)
                              c:/intelfpga_lite/16.1/nios2eds/bin/gnu/h-x86_64-mingw32/bin/../lib/gcc/nios2-elf/5.3.0/../../../../../H-x86_64-mingw32/nios2-elf/lib/mhw-mulx\libc.a(lib_a-stdio.o) (_read_r)
c:/intelfpga_lite/16.1/nios2eds/bin/gnu/h-x86_64-mingw32/bin/../lib/gcc/nios2-elf/5.3.0/../../../../../H-x86_64-mingw32/nios2-elf/lib/mhw-mulx\libc.a(lib_a-fstatr.o)
                              c:/intelfpga_lite/16.1/nios2eds/bin/gnu/h-x86_64-mingw32/bin/../lib/gcc/nios2-elf/5.3.0/../../../../../H-x86_64-mingw32/nios2-elf/lib/mhw-mulx\libc.a(lib_a-makebuf.o) (_fstat_r)
c:/intelfpga_lite/16.1/nios2eds/bin/gnu/h-x86_64-mingw32/bin/../lib/gcc/nios2-elf/5.3.0/../../../../../H-x86_64-mingw32/nios2-elf/lib/mhw-mulx\libc.a(lib_a-isattyr.o)
                              c:/intelfpga_lite/16.1/nios2eds/bin/gnu/h-x86_64-mingw32/bin/../lib/gcc/nios2-elf/5.3.0/../../../../../H-x86_64-mingw32/nios2-elf/lib/mhw-mulx\libc.a(lib_a-makebuf.o) (_isatty_r)
c:/intelfpga_lite/16.1/nios2eds/bin/gnu/h-x86_64-mingw32/bin/../lib/gcc/nios2-elf/5.3.0/mhw-mulx\libgcc.a(lib2-divmod.o)
                              c:/intelfpga_lite/16.1/nios2eds/bin/gnu/h-x86_64-mingw32/bin/../lib/gcc/nios2-elf/5.3.0/../../../../../H-x86_64-mingw32/nios2-elf/lib/mhw-mulx\libc.a(lib_a-fvwrite.o) (__divsi3)
C:/Users/Artee/Documents/ESAKBS2/nioseclipse_bsp/\libucosii_bsp.a(alt_close.o)
                              c:/intelfpga_lite/16.1/nios2eds/bin/gnu/h-x86_64-mingw32/bin/../lib/gcc/nios2-elf/5.3.0/../../../../../H-x86_64-mingw32/nios2-elf/lib/mhw-mulx\libc.a(closer.o) (close)
C:/Users/Artee/Documents/ESAKBS2/nioseclipse_bsp/\libucosii_bsp.a(alt_dev.o)
                              C:/Users/Artee/Documents/ESAKBS2/nioseclipse_bsp/\libucosii_bsp.a(alt_close.o) (alt_fd_list)
C:/Users/Artee/Documents/ESAKBS2/nioseclipse_bsp/\libucosii_bsp.a(alt_errno.o)
                              C:/Users/Artee/Documents/ESAKBS2/nioseclipse_bsp/\libucosii_bsp.a(alt_close.o) (alt_errno)
C:/Users/Artee/Documents/ESAKBS2/nioseclipse_bsp/\libucosii_bsp.a(alt_fstat.o)
                              c:/intelfpga_lite/16.1/nios2eds/bin/gnu/h-x86_64-mingw32/bin/../lib/gcc/nios2-elf/5.3.0/../../../../../H-x86_64-mingw32/nios2-elf/lib/mhw-mulx\libc.a(lib_a-fstatr.o) (fstat)
C:/Users/Artee/Documents/ESAKBS2/nioseclipse_bsp/\libucosii_bsp.a(alt_isatty.o)
                              c:/intelfpga_lite/16.1/nios2eds/bin/gnu/h-x86_64-mingw32/bin/../lib/gcc/nios2-elf/5.3.0/../../../../../H-x86_64-mingw32/nios2-elf/lib/mhw-mulx\libc.a(lib_a-isattyr.o) (isatty)
C:/Users/Artee/Documents/ESAKBS2/nioseclipse_bsp/\libucosii_bsp.a(alt_load.o)
                              C:/Users/Artee/Documents/ESAKBS2/nioseclipse_bsp//obj/HAL/src/crt0.o (alt_load)
C:/Users/Artee/Documents/ESAKBS2/nioseclipse_bsp/\libucosii_bsp.a(alt_lseek.o)
                              c:/intelfpga_lite/16.1/nios2eds/bin/gnu/h-x86_64-mingw32/bin/../lib/gcc/nios2-elf/5.3.0/../../../../../H-x86_64-mingw32/nios2-elf/lib/mhw-mulx\libc.a(lib_a-lseekr.o) (lseek)
C:/Users/Artee/Documents/ESAKBS2/nioseclipse_bsp/\libucosii_bsp.a(alt_main.o)
                              C:/Users/Artee/Documents/ESAKBS2/nioseclipse_bsp//obj/HAL/src/crt0.o (alt_main)
C:/Users/Artee/Documents/ESAKBS2/nioseclipse_bsp/\libucosii_bsp.a(alt_read.o)
                              c:/intelfpga_lite/16.1/nios2eds/bin/gnu/h-x86_64-mingw32/bin/../lib/gcc/nios2-elf/5.3.0/../../../../../H-x86_64-mingw32/nios2-elf/lib/mhw-mulx\libc.a(lib_a-readr.o) (read)
C:/Users/Artee/Documents/ESAKBS2/nioseclipse_bsp/\libucosii_bsp.a(alt_release_fd.o)
                              C:/Users/Artee/Documents/ESAKBS2/nioseclipse_bsp/\libucosii_bsp.a(alt_close.o) (alt_release_fd)
C:/Users/Artee/Documents/ESAKBS2/nioseclipse_bsp/\libucosii_bsp.a(alt_sbrk.o)
                              c:/intelfpga_lite/16.1/nios2eds/bin/gnu/h-x86_64-mingw32/bin/../lib/gcc/nios2-elf/5.3.0/../../../../../H-x86_64-mingw32/nios2-elf/lib/mhw-mulx\libc.a(lib_a-sbrkr.o) (sbrk)
C:/Users/Artee/Documents/ESAKBS2/nioseclipse_bsp/\libucosii_bsp.a(alt_write.o)
                              c:/intelfpga_lite/16.1/nios2eds/bin/gnu/h-x86_64-mingw32/bin/../lib/gcc/nios2-elf/5.3.0/../../../../../H-x86_64-mingw32/nios2-elf/lib/mhw-mulx\libc.a(lib_a-writer.o) (write)
C:/Users/Artee/Documents/ESAKBS2/nioseclipse_bsp/\libucosii_bsp.a(alt_env_lock.o)
                              C:/Users/Artee/Documents/ESAKBS2/nioseclipse_bsp/\libucosii_bsp.a(alt_main.o) (alt_envsem)
C:/Users/Artee/Documents/ESAKBS2/nioseclipse_bsp/\libucosii_bsp.a(alt_malloc_lock.o)
                              C:/Users/Artee/Documents/ESAKBS2/nioseclipse_bsp/\libucosii_bsp.a(alt_main.o) (alt_heapsem)
C:/Users/Artee/Documents/ESAKBS2/nioseclipse_bsp/\libucosii_bsp.a(os_core.o)
                              C:/Users/Artee/Documents/ESAKBS2/nioseclipse_bsp/\libucosii_bsp.a(alt_malloc_lock.o) (OSRunning)
C:/Users/Artee/Documents/ESAKBS2/nioseclipse_bsp/\libucosii_bsp.a(os_dbg.o)
                              C:/Users/Artee/Documents/ESAKBS2/nioseclipse_bsp/\libucosii_bsp.a(os_core.o) (OSDebugInit)
C:/Users/Artee/Documents/ESAKBS2/nioseclipse_bsp/\libucosii_bsp.a(os_flag.o)
                              C:/Users/Artee/Documents/ESAKBS2/nioseclipse_bsp/\libucosii_bsp.a(os_core.o) (OS_FlagInit)
C:/Users/Artee/Documents/ESAKBS2/nioseclipse_bsp/\libucosii_bsp.a(os_mem.o)
                              C:/Users/Artee/Documents/ESAKBS2/nioseclipse_bsp/\libucosii_bsp.a(os_core.o) (OS_MemInit)
C:/Users/Artee/Documents/ESAKBS2/nioseclipse_bsp/\libucosii_bsp.a(os_q.o)
                              C:/Users/Artee/Documents/ESAKBS2/nioseclipse_bsp/\libucosii_bsp.a(os_core.o) (OS_QInit)
C:/Users/Artee/Documents/ESAKBS2/nioseclipse_bsp/\libucosii_bsp.a(os_sem.o)
                              C:/Users/Artee/Documents/ESAKBS2/nioseclipse_bsp/\libucosii_bsp.a(alt_main.o) (OSSemCreate)
C:/Users/Artee/Documents/ESAKBS2/nioseclipse_bsp/\libucosii_bsp.a(os_task.o)
                              obj/default/hello_ucosii.o (OSTaskCreateExt)
C:/Users/Artee/Documents/ESAKBS2/nioseclipse_bsp/\libucosii_bsp.a(os_time.o)
                              C:/Users/Artee/Documents/ESAKBS2/nioseclipse_bsp/\libucosii_bsp.a(os_core.o) (OSTimeDly)
C:/Users/Artee/Documents/ESAKBS2/nioseclipse_bsp/\libucosii_bsp.a(alt_sys_init.o)
                              C:/Users/Artee/Documents/ESAKBS2/nioseclipse_bsp/\libucosii_bsp.a(alt_main.o) (alt_irq_init)
C:/Users/Artee/Documents/ESAKBS2/nioseclipse_bsp/\libucosii_bsp.a(altera_avalon_jtag_uart_fd.o)
                              C:/Users/Artee/Documents/ESAKBS2/nioseclipse_bsp/\libucosii_bsp.a(alt_sys_init.o) (altera_avalon_jtag_uart_read_fd)
C:/Users/Artee/Documents/ESAKBS2/nioseclipse_bsp/\libucosii_bsp.a(altera_avalon_jtag_uart_init.o)
                              C:/Users/Artee/Documents/ESAKBS2/nioseclipse_bsp/\libucosii_bsp.a(alt_sys_init.o) (altera_avalon_jtag_uart_init)
C:/Users/Artee/Documents/ESAKBS2/nioseclipse_bsp/\libucosii_bsp.a(altera_avalon_jtag_uart_ioctl.o)
                              C:/Users/Artee/Documents/ESAKBS2/nioseclipse_bsp/\libucosii_bsp.a(altera_avalon_jtag_uart_fd.o) (altera_avalon_jtag_uart_ioctl)
C:/Users/Artee/Documents/ESAKBS2/nioseclipse_bsp/\libucosii_bsp.a(altera_avalon_jtag_uart_read.o)
                              C:/Users/Artee/Documents/ESAKBS2/nioseclipse_bsp/\libucosii_bsp.a(altera_avalon_jtag_uart_fd.o) (altera_avalon_jtag_uart_read)
C:/Users/Artee/Documents/ESAKBS2/nioseclipse_bsp/\libucosii_bsp.a(altera_avalon_jtag_uart_write.o)
                              C:/Users/Artee/Documents/ESAKBS2/nioseclipse_bsp/\libucosii_bsp.a(altera_avalon_jtag_uart_fd.o) (altera_avalon_jtag_uart_write)
C:/Users/Artee/Documents/ESAKBS2/nioseclipse_bsp/\libucosii_bsp.a(altera_avalon_timer_sc.o)
                              C:/Users/Artee/Documents/ESAKBS2/nioseclipse_bsp/\libucosii_bsp.a(alt_sys_init.o) (alt_avalon_timer_sc_init)
C:/Users/Artee/Documents/ESAKBS2/nioseclipse_bsp/\libucosii_bsp.a(altera_up_avalon_character_lcd.o)
                              C:/Users/Artee/Documents/ESAKBS2/nioseclipse_bsp/\libucosii_bsp.a(alt_sys_init.o) (alt_up_character_lcd_init)
C:/Users/Artee/Documents/ESAKBS2/nioseclipse_bsp/\libucosii_bsp.a(altera_up_avalon_irda.o)
                              C:/Users/Artee/Documents/ESAKBS2/nioseclipse_bsp/\libucosii_bsp.a(alt_sys_init.o) (alt_up_irda_read_fd)
C:/Users/Artee/Documents/ESAKBS2/nioseclipse_bsp/\libucosii_bsp.a(altera_up_avalon_ps2.o)
                              C:/Users/Artee/Documents/ESAKBS2/nioseclipse_bsp/\libucosii_bsp.a(alt_sys_init.o) (alt_up_ps2_init)
C:/Users/Artee/Documents/ESAKBS2/nioseclipse_bsp/\libucosii_bsp.a(altera_up_avalon_rs232.o)
                              C:/Users/Artee/Documents/ESAKBS2/nioseclipse_bsp/\libucosii_bsp.a(alt_sys_init.o) (alt_up_rs232_read_fd)
C:/Users/Artee/Documents/ESAKBS2/nioseclipse_bsp/\libucosii_bsp.a(alt_alarm_start.o)
                              C:/Users/Artee/Documents/ESAKBS2/nioseclipse_bsp/\libucosii_bsp.a(altera_avalon_jtag_uart_init.o) (alt_alarm_start)
C:/Users/Artee/Documents/ESAKBS2/nioseclipse_bsp/\libucosii_bsp.a(alt_dcache_flush_all.o)
                              C:/Users/Artee/Documents/ESAKBS2/nioseclipse_bsp/\libucosii_bsp.a(alt_load.o) (alt_dcache_flush_all)
C:/Users/Artee/Documents/ESAKBS2/nioseclipse_bsp/\libucosii_bsp.a(alt_dev_llist_insert.o)
                              C:/Users/Artee/Documents/ESAKBS2/nioseclipse_bsp/\libucosii_bsp.a(alt_sys_init.o) (alt_dev_llist_insert)
C:/Users/Artee/Documents/ESAKBS2/nioseclipse_bsp/\libucosii_bsp.a(alt_do_ctors.o)
                              C:/Users/Artee/Documents/ESAKBS2/nioseclipse_bsp/\libucosii_bsp.a(alt_main.o) (_do_ctors)
C:/Users/Artee/Documents/ESAKBS2/nioseclipse_bsp/\libucosii_bsp.a(alt_do_dtors.o)
                              C:/Users/Artee/Documents/ESAKBS2/nioseclipse_bsp/\libucosii_bsp.a(alt_main.o) (_do_dtors)
C:/Users/Artee/Documents/ESAKBS2/nioseclipse_bsp/\libucosii_bsp.a(alt_find_dev.o)
                              C:/Users/Artee/Documents/ESAKBS2/nioseclipse_bsp/\libucosii_bsp.a(altera_up_avalon_character_lcd.o) (alt_find_dev)
C:/Users/Artee/Documents/ESAKBS2/nioseclipse_bsp/\libucosii_bsp.a(alt_icache_flush_all.o)
                              C:/Users/Artee/Documents/ESAKBS2/nioseclipse_bsp/\libucosii_bsp.a(alt_load.o) (alt_icache_flush_all)
C:/Users/Artee/Documents/ESAKBS2/nioseclipse_bsp/\libucosii_bsp.a(alt_io_redirect.o)
                              C:/Users/Artee/Documents/ESAKBS2/nioseclipse_bsp/\libucosii_bsp.a(alt_main.o) (alt_io_redirect)
C:/Users/Artee/Documents/ESAKBS2/nioseclipse_bsp/\libucosii_bsp.a(alt_irq_register.o)
                              C:/Users/Artee/Documents/ESAKBS2/nioseclipse_bsp/\libucosii_bsp.a(altera_avalon_jtag_uart_init.o) (alt_irq_register)
C:/Users/Artee/Documents/ESAKBS2/nioseclipse_bsp/\libucosii_bsp.a(alt_irq_vars.o)
                              C:/Users/Artee/Documents/ESAKBS2/nioseclipse_bsp/\libucosii_bsp.a(alt_irq_register.o) (alt_irq_active)
C:/Users/Artee/Documents/ESAKBS2/nioseclipse_bsp/\libucosii_bsp.a(alt_open.o)
                              C:/Users/Artee/Documents/ESAKBS2/nioseclipse_bsp/\libucosii_bsp.a(alt_io_redirect.o) (open)
C:/Users/Artee/Documents/ESAKBS2/nioseclipse_bsp/\libucosii_bsp.a(alt_tick.o)
                              C:/Users/Artee/Documents/ESAKBS2/nioseclipse_bsp/\libucosii_bsp.a(altera_avalon_jtag_uart_init.o) (_alt_tick_rate)
C:/Users/Artee/Documents/ESAKBS2/nioseclipse_bsp/\libucosii_bsp.a(altera_nios2_gen2_irq.o)
                              C:/Users/Artee/Documents/ESAKBS2/nioseclipse_bsp/\libucosii_bsp.a(alt_sys_init.o) (altera_nios2_gen2_irq_init)
C:/Users/Artee/Documents/ESAKBS2/nioseclipse_bsp/\libucosii_bsp.a(os_cpu_a.o)
                              C:/Users/Artee/Documents/ESAKBS2/nioseclipse_bsp/\libucosii_bsp.a(os_core.o) (OSIntCtxSw)
C:/Users/Artee/Documents/ESAKBS2/nioseclipse_bsp/\libucosii_bsp.a(os_cpu_c.o)
                              C:/Users/Artee/Documents/ESAKBS2/nioseclipse_bsp/\libucosii_bsp.a(os_task.o) (OSTaskStkInit)
C:/Users/Artee/Documents/ESAKBS2/nioseclipse_bsp/\libucosii_bsp.a(alt_find_file.o)
                              C:/Users/Artee/Documents/ESAKBS2/nioseclipse_bsp/\libucosii_bsp.a(alt_open.o) (alt_find_file)
C:/Users/Artee/Documents/ESAKBS2/nioseclipse_bsp/\libucosii_bsp.a(alt_get_fd.o)
                              C:/Users/Artee/Documents/ESAKBS2/nioseclipse_bsp/\libucosii_bsp.a(alt_open.o) (alt_get_fd)
C:/Users/Artee/Documents/ESAKBS2/nioseclipse_bsp/\libucosii_bsp.a(alt_icache_flush.o)
                              C:/Users/Artee/Documents/ESAKBS2/nioseclipse_bsp/\libucosii_bsp.a(alt_icache_flush_all.o) (alt_icache_flush)
C:/Users/Artee/Documents/ESAKBS2/nioseclipse_bsp/\libucosii_bsp.a(alt_irq_entry.o)
                              C:/Users/Artee/Documents/ESAKBS2/nioseclipse_bsp/\libucosii_bsp.a(alt_irq_register.o) (alt_irq_entry)
C:/Users/Artee/Documents/ESAKBS2/nioseclipse_bsp/\libucosii_bsp.a(alt_irq_handler.o)
                              C:/Users/Artee/Documents/ESAKBS2/nioseclipse_bsp/\libucosii_bsp.a(alt_irq_register.o) (alt_irq)
C:/Users/Artee/Documents/ESAKBS2/nioseclipse_bsp/\libucosii_bsp.a(alt_exception_entry.o)
                              C:/Users/Artee/Documents/ESAKBS2/nioseclipse_bsp/\libucosii_bsp.a(alt_irq_entry.o) (alt_exception)
C:/Users/Artee/Documents/ESAKBS2/nioseclipse_bsp/\libucosii_bsp.a(alt_instruction_exception_entry.o)
                              C:/Users/Artee/Documents/ESAKBS2/nioseclipse_bsp/\libucosii_bsp.a(alt_exception_entry.o) (alt_instruction_exception_entry)
c:/intelfpga_lite/16.1/nios2eds/bin/gnu/h-x86_64-mingw32/bin/../lib/gcc/nios2-elf/5.3.0/../../../../../H-x86_64-mingw32/nios2-elf/lib/mhw-mulx\libc.a(lib_a-atexit.o)
                              C:/Users/Artee/Documents/ESAKBS2/nioseclipse_bsp/\libucosii_bsp.a(alt_main.o) (atexit)
c:/intelfpga_lite/16.1/nios2eds/bin/gnu/h-x86_64-mingw32/bin/../lib/gcc/nios2-elf/5.3.0/../../../../../H-x86_64-mingw32/nios2-elf/lib/mhw-mulx\libc.a(lib_a-exit.o)
                              C:/Users/Artee/Documents/ESAKBS2/nioseclipse_bsp/\libucosii_bsp.a(alt_main.o) (exit)
c:/intelfpga_lite/16.1/nios2eds/bin/gnu/h-x86_64-mingw32/bin/../lib/gcc/nios2-elf/5.3.0/../../../../../H-x86_64-mingw32/nios2-elf/lib/mhw-mulx\libc.a(lib_a-memcmp.o)
                              C:/Users/Artee/Documents/ESAKBS2/nioseclipse_bsp/\libucosii_bsp.a(alt_find_dev.o) (memcmp)
c:/intelfpga_lite/16.1/nios2eds/bin/gnu/h-x86_64-mingw32/bin/../lib/gcc/nios2-elf/5.3.0/../../../../../H-x86_64-mingw32/nios2-elf/lib/mhw-mulx\libc.a(lib_a-__atexit.o)
                              c:/intelfpga_lite/16.1/nios2eds/bin/gnu/h-x86_64-mingw32/bin/../lib/gcc/nios2-elf/5.3.0/../../../../../H-x86_64-mingw32/nios2-elf/lib/mhw-mulx\libc.a(lib_a-atexit.o) (__register_exitproc)
c:/intelfpga_lite/16.1/nios2eds/bin/gnu/h-x86_64-mingw32/bin/../lib/gcc/nios2-elf/5.3.0/../../../../../H-x86_64-mingw32/nios2-elf/lib/mhw-mulx\libc.a(lib_a-__call_atexit.o)
                              c:/intelfpga_lite/16.1/nios2eds/bin/gnu/h-x86_64-mingw32/bin/../lib/gcc/nios2-elf/5.3.0/../../../../../H-x86_64-mingw32/nios2-elf/lib/mhw-mulx\libc.a(lib_a-exit.o) (__call_exitprocs)
C:/Users/Artee/Documents/ESAKBS2/nioseclipse_bsp/\libucosii_bsp.a(alt_exit.o)
                              c:/intelfpga_lite/16.1/nios2eds/bin/gnu/h-x86_64-mingw32/bin/../lib/gcc/nios2-elf/5.3.0/../../../../../H-x86_64-mingw32/nios2-elf/lib/mhw-mulx\libc.a(lib_a-exit.o) (_exit)

Allocating common symbols
Common symbol       size              file

alt_irq             0x100             C:/Users/Artee/Documents/ESAKBS2/nioseclipse_bsp/\libucosii_bsp.a(alt_irq_handler.o)
task1_stk           0x2000            obj/default/hello_ucosii.o
OSLockNesting       0x1               C:/Users/Artee/Documents/ESAKBS2/nioseclipse_bsp/\libucosii_bsp.a(os_core.o)
OSRunning           0x1               C:/Users/Artee/Documents/ESAKBS2/nioseclipse_bsp/\libucosii_bsp.a(os_core.o)
OSIdleCtr           0x4               C:/Users/Artee/Documents/ESAKBS2/nioseclipse_bsp/\libucosii_bsp.a(os_core.o)
OSPrioHighRdy       0x1               C:/Users/Artee/Documents/ESAKBS2/nioseclipse_bsp/\libucosii_bsp.a(os_core.o)
errno               0x4               c:/intelfpga_lite/16.1/nios2eds/bin/gnu/h-x86_64-mingw32/bin/../lib/gcc/nios2-elf/5.3.0/../../../../../H-x86_64-mingw32/nios2-elf/lib/mhw-mulx\libc.a(lib_a-int_errno.o)
alt_heapsem         0x4               C:/Users/Artee/Documents/ESAKBS2/nioseclipse_bsp/\libucosii_bsp.a(alt_malloc_lock.o)
OSFlagTbl           0x370             C:/Users/Artee/Documents/ESAKBS2/nioseclipse_bsp/\libucosii_bsp.a(os_core.o)
OSPrioCur           0x1               C:/Users/Artee/Documents/ESAKBS2/nioseclipse_bsp/\libucosii_bsp.a(os_core.o)
OSTCBList           0x4               C:/Users/Artee/Documents/ESAKBS2/nioseclipse_bsp/\libucosii_bsp.a(os_core.o)
alt_fd_list_lock    0x4               C:/Users/Artee/Documents/ESAKBS2/nioseclipse_bsp/\libucosii_bsp.a(alt_dev.o)
OSMemTbl            0xc30             C:/Users/Artee/Documents/ESAKBS2/nioseclipse_bsp/\libucosii_bsp.a(os_core.o)
OSTickStepState     0x1               C:/Users/Artee/Documents/ESAKBS2/nioseclipse_bsp/\libucosii_bsp.a(os_core.o)
OSTaskStatStk       0x800             C:/Users/Artee/Documents/ESAKBS2/nioseclipse_bsp/\libucosii_bsp.a(os_core.o)
OSCtxSwCtr          0x4               C:/Users/Artee/Documents/ESAKBS2/nioseclipse_bsp/\libucosii_bsp.a(os_core.o)
OSIdleCtrMax        0x4               C:/Users/Artee/Documents/ESAKBS2/nioseclipse_bsp/\libucosii_bsp.a(os_core.o)
OSTCBFreeList       0x4               C:/Users/Artee/Documents/ESAKBS2/nioseclipse_bsp/\libucosii_bsp.a(os_core.o)
OSCPUUsage          0x1               C:/Users/Artee/Documents/ESAKBS2/nioseclipse_bsp/\libucosii_bsp.a(os_core.o)
OSTaskCtr           0x1               C:/Users/Artee/Documents/ESAKBS2/nioseclipse_bsp/\libucosii_bsp.a(os_core.o)
OSMemFreeList       0x4               C:/Users/Artee/Documents/ESAKBS2/nioseclipse_bsp/\libucosii_bsp.a(os_core.o)
OSQTbl              0x1e0             C:/Users/Artee/Documents/ESAKBS2/nioseclipse_bsp/\libucosii_bsp.a(os_core.o)
OSTCBHighRdy        0x4               C:/Users/Artee/Documents/ESAKBS2/nioseclipse_bsp/\libucosii_bsp.a(os_core.o)
OSQFreeList         0x4               C:/Users/Artee/Documents/ESAKBS2/nioseclipse_bsp/\libucosii_bsp.a(os_core.o)
OSRdyGrp            0x1               C:/Users/Artee/Documents/ESAKBS2/nioseclipse_bsp/\libucosii_bsp.a(os_core.o)
task2_stk           0x2000            obj/default/hello_ucosii.o
OSRdyTbl            0x3               C:/Users/Artee/Documents/ESAKBS2/nioseclipse_bsp/\libucosii_bsp.a(os_core.o)
OSEventFreeList     0x4               C:/Users/Artee/Documents/ESAKBS2/nioseclipse_bsp/\libucosii_bsp.a(os_core.o)
OSIntNesting        0x1               C:/Users/Artee/Documents/ESAKBS2/nioseclipse_bsp/\libucosii_bsp.a(os_core.o)
OSTCBCur            0x4               C:/Users/Artee/Documents/ESAKBS2/nioseclipse_bsp/\libucosii_bsp.a(os_core.o)
OSTime              0x4               C:/Users/Artee/Documents/ESAKBS2/nioseclipse_bsp/\libucosii_bsp.a(os_core.o)
OSTaskIdleStk       0x800             C:/Users/Artee/Documents/ESAKBS2/nioseclipse_bsp/\libucosii_bsp.a(os_core.o)
OSEventTbl          0xb40             C:/Users/Artee/Documents/ESAKBS2/nioseclipse_bsp/\libucosii_bsp.a(os_core.o)
OSTCBTbl            0x510             C:/Users/Artee/Documents/ESAKBS2/nioseclipse_bsp/\libucosii_bsp.a(os_core.o)
OSFlagFreeList      0x4               C:/Users/Artee/Documents/ESAKBS2/nioseclipse_bsp/\libucosii_bsp.a(os_core.o)
OSStatRdy           0x1               C:/Users/Artee/Documents/ESAKBS2/nioseclipse_bsp/\libucosii_bsp.a(os_core.o)
OSTCBPrioTbl        0x54              C:/Users/Artee/Documents/ESAKBS2/nioseclipse_bsp/\libucosii_bsp.a(os_core.o)
alt_envsem          0x4               C:/Users/Artee/Documents/ESAKBS2/nioseclipse_bsp/\libucosii_bsp.a(alt_env_lock.o)
OSIdleCtrRun        0x4               C:/Users/Artee/Documents/ESAKBS2/nioseclipse_bsp/\libucosii_bsp.a(os_core.o)

Memory Configuration

Name             Origin             Length             Attributes
reset            0x0000000000000000 0x0000000000000020
SDRAM            0x0000000000000020 0x0000000003ffffe0
VGA_Subsystem_Char_Buf_Subsystem_Onchip_SRAM 0x0000000009000000 0x0000000000002000
*default*        0x0000000000000000 0xffffffffffffffff

Linker script and memory map

LOAD C:/Users/Artee/Documents/ESAKBS2/nioseclipse_bsp//obj/HAL/src/crt0.o
LOAD obj/default/hello_ucosii.o
LOAD c:/intelfpga_lite/16.1/nios2eds/bin/gnu/h-x86_64-mingw32/bin/../lib/gcc/nios2-elf/5.3.0/../../../../../H-x86_64-mingw32/nios2-elf/lib/mhw-mulx\libstdc++.a
LOAD c:/intelfpga_lite/16.1/nios2eds/bin/gnu/h-x86_64-mingw32/bin/../lib/gcc/nios2-elf/5.3.0/../../../../../H-x86_64-mingw32/nios2-elf/lib/mhw-mulx\libm.a
LOAD c:/intelfpga_lite/16.1/nios2eds/bin/gnu/h-x86_64-mingw32/bin/../lib/gcc/nios2-elf/5.3.0/mhw-mulx\libgcc.a
START GROUP
LOAD c:/intelfpga_lite/16.1/nios2eds/bin/gnu/h-x86_64-mingw32/bin/../lib/gcc/nios2-elf/5.3.0/../../../../../H-x86_64-mingw32/nios2-elf/lib/mhw-mulx\libc.a
LOAD c:/intelfpga_lite/16.1/nios2eds/bin/gnu/h-x86_64-mingw32/bin/../lib/gcc/nios2-elf/5.3.0/mhw-mulx\libgcc.a
LOAD C:/Users/Artee/Documents/ESAKBS2/nioseclipse_bsp/\libucosii_bsp.a
LOAD c:/intelfpga_lite/16.1/nios2eds/bin/gnu/h-x86_64-mingw32/bin/../lib/gcc/nios2-elf/5.3.0/../../../../../H-x86_64-mingw32/nios2-elf/lib/mhw-mulx\libm.a
END GROUP
LOAD c:/intelfpga_lite/16.1/nios2eds/bin/gnu/h-x86_64-mingw32/bin/../lib/gcc/nios2-elf/5.3.0/mhw-mulx\libgcc.a
                0x0000000000000000                __alt_mem_SDRAM = 0x0
                0x0000000009000000                __alt_mem_VGA_Subsystem_Char_Buf_Subsystem_Onchip_SRAM = 0x9000000

.entry          0x0000000000000000       0x20
 *(.entry)
 .entry         0x0000000000000000       0x20 C:/Users/Artee/Documents/ESAKBS2/nioseclipse_bsp//obj/HAL/src/crt0.o
                0x0000000000000000                __reset

.exceptions     0x0000000000000020      0x228
                0x0000000000000020                PROVIDE (__ram_exceptions_start, ABSOLUTE (.))
                0x0000000000000020                . = ALIGN (0x20)
 *(.irq)
 *(.exceptions.entry.label)
 .exceptions.entry.label
                0x0000000000000020        0x0 C:/Users/Artee/Documents/ESAKBS2/nioseclipse_bsp/\libucosii_bsp.a(alt_irq_entry.o)
                0x0000000000000020                alt_irq_entry
 .exceptions.entry.label
                0x0000000000000020        0x0 C:/Users/Artee/Documents/ESAKBS2/nioseclipse_bsp/\libucosii_bsp.a(alt_exception_entry.o)
                0x0000000000000020                alt_exception
 *(.exceptions.entry.user)
 *(.exceptions.entry.ecc_fatal)
 *(.exceptions.entry)
 .exceptions.entry
                0x0000000000000020       0x54 C:/Users/Artee/Documents/ESAKBS2/nioseclipse_bsp/\libucosii_bsp.a(alt_exception_entry.o)
 *(.exceptions.irqtest.user)
 *(.exceptions.irqtest)
 .exceptions.irqtest
                0x0000000000000074       0x10 C:/Users/Artee/Documents/ESAKBS2/nioseclipse_bsp/\libucosii_bsp.a(alt_irq_entry.o)
 *(.exceptions.irqhandler.user)
 *(.exceptions.irqhandler)
 .exceptions.irqhandler
                0x0000000000000084        0x4 C:/Users/Artee/Documents/ESAKBS2/nioseclipse_bsp/\libucosii_bsp.a(alt_irq_entry.o)
 *(.exceptions.irqreturn.user)
 *(.exceptions.irqreturn)
 .exceptions.irqreturn
                0x0000000000000088        0x4 C:/Users/Artee/Documents/ESAKBS2/nioseclipse_bsp/\libucosii_bsp.a(alt_irq_entry.o)
 *(.exceptions.notirq.label)
 .exceptions.notirq.label
                0x000000000000008c        0x0 C:/Users/Artee/Documents/ESAKBS2/nioseclipse_bsp/\libucosii_bsp.a(alt_irq_entry.o)
 *(.exceptions.notirq.user)
 *(.exceptions.notirq)
 .exceptions.notirq
                0x000000000000008c        0x8 C:/Users/Artee/Documents/ESAKBS2/nioseclipse_bsp/\libucosii_bsp.a(alt_exception_entry.o)
 *(.exceptions.soft.user)
 *(.exceptions.soft)
 *(.exceptions.unknown.user)
 *(.exceptions.unknown)
 .exceptions.unknown
                0x0000000000000094       0x14 C:/Users/Artee/Documents/ESAKBS2/nioseclipse_bsp/\libucosii_bsp.a(alt_exception_entry.o)
 *(.exceptions.exit.label)
 .exceptions.exit.label
                0x00000000000000a8        0x0 C:/Users/Artee/Documents/ESAKBS2/nioseclipse_bsp/\libucosii_bsp.a(alt_irq_entry.o)
 .exceptions.exit.label
                0x00000000000000a8        0x0 C:/Users/Artee/Documents/ESAKBS2/nioseclipse_bsp/\libucosii_bsp.a(alt_exception_entry.o)
 *(.exceptions.exit.user)
 *(.exceptions.exit)
 .exceptions.exit
                0x00000000000000a8       0x54 C:/Users/Artee/Documents/ESAKBS2/nioseclipse_bsp/\libucosii_bsp.a(alt_exception_entry.o)
 *(.exceptions)
 .exceptions    0x00000000000000fc       0xd8 C:/Users/Artee/Documents/ESAKBS2/nioseclipse_bsp/\libucosii_bsp.a(alt_irq_handler.o)
                0x00000000000000fc                alt_irq_handler
 .exceptions    0x00000000000001d4       0x74 C:/Users/Artee/Documents/ESAKBS2/nioseclipse_bsp/\libucosii_bsp.a(alt_instruction_exception_entry.o)
                0x00000000000001d4                alt_instruction_exception_entry
                0x0000000000000248                PROVIDE (__ram_exceptions_end, ABSOLUTE (.))
                0x0000000000000020                PROVIDE (__flash_exceptions_start, LOADADDR (.exceptions))

.text           0x0000000000000248     0xf128
                [!provide]                        PROVIDE (stext, ABSOLUTE (.))
 *(.interp)
 *(.hash)
 *(.dynsym)
 *(.dynstr)
 *(.gnu.version)
 *(.gnu.version_d)
 *(.gnu.version_r)
 *(.rel.init)
 *(.rela.init)
 *(.rel.text .rel.text.* .rel.gnu.linkonce.t.*)
 *(.rela.text .rela.text.* .rela.gnu.linkonce.t.*)
 *(.rel.fini)
 *(.rela.fini)
 *(.rel.rodata .rel.rodata.* .rel.gnu.linkonce.r.*)
 *(.rela.rodata .rela.rodata.* .rela.gnu.linkonce.r.*)
 *(.rel.data .rel.data.* .rel.gnu.linkonce.d.*)
 *(.rela.data .rela.data.* .rela.gnu.linkonce.d.*)
 *(.rel.tdata .rel.tdata.* .rel.gnu.linkonce.td.*)
 *(.rela.tdata .rela.tdata.* .rela.gnu.linkonce.td.*)
 *(.rel.tbss .rel.tbss.* .rel.gnu.linkonce.tb.*)
 *(.rela.tbss .rela.tbss.* .rela.gnu.linkonce.tb.*)
 *(.rel.ctors)
 *(.rela.ctors)
 *(.rel.dtors)
 *(.rela.dtors)
 *(.rel.got)
 *(.rela.got)
 *(.rel.sdata .rel.sdata.* .rel.gnu.linkonce.s.*)
 *(.rela.sdata .rela.sdata.* .rela.gnu.linkonce.s.*)
 *(.rel.sbss .rel.sbss.* .rel.gnu.linkonce.sb.*)
 *(.rela.sbss .rela.sbss.* .rela.gnu.linkonce.sb.*)
 *(.rel.sdata2 .rel.sdata2.* .rel.gnu.linkonce.s2.*)
 *(.rela.sdata2 .rela.sdata2.* .rela.gnu.linkonce.s2.*)
 *(.rel.sbss2 .rel.sbss2.* .rel.gnu.linkonce.sb2.*)
 *(.rela.sbss2 .rela.sbss2.* .rela.gnu.linkonce.sb2.*)
 *(.rel.bss .rel.bss.* .rel.gnu.linkonce.b.*)
 *(.rela.bss .rela.bss.* .rela.gnu.linkonce.b.*)
 *(.rel.plt)
 *(.rela.plt)
 *(.rel.dyn)
 *(.init)
 *(.plt)
 *(.text .stub .text.* .gnu.linkonce.t.*)
 .text          0x0000000000000248       0x3c C:/Users/Artee/Documents/ESAKBS2/nioseclipse_bsp//obj/HAL/src/crt0.o
                0x0000000000000248                _start
 .text          0x0000000000000284      0x11c obj/default/hello_ucosii.o
                0x0000000000000284                task1
                0x00000000000002bc                task2
                0x00000000000002f4                main
 .text          0x00000000000003a0        0x0 c:/intelfpga_lite/16.1/nios2eds/bin/gnu/h-x86_64-mingw32/bin/../lib/gcc/nios2-elf/5.3.0/../../../../../H-x86_64-mingw32/nios2-elf/lib/mhw-mulx\libc.a(lib_a-puts.o)
 .text._puts_r  0x00000000000003a0       0xc0 c:/intelfpga_lite/16.1/nios2eds/bin/gnu/h-x86_64-mingw32/bin/../lib/gcc/nios2-elf/5.3.0/../../../../../H-x86_64-mingw32/nios2-elf/lib/mhw-mulx\libc.a(lib_a-puts.o)
                0x00000000000003a0                _puts_r
 .text.puts     0x0000000000000460       0x14 c:/intelfpga_lite/16.1/nios2eds/bin/gnu/h-x86_64-mingw32/bin/../lib/gcc/nios2-elf/5.3.0/../../../../../H-x86_64-mingw32/nios2-elf/lib/mhw-mulx\libc.a(lib_a-puts.o)
                0x0000000000000460                puts
 .text          0x0000000000000474        0x0 c:/intelfpga_lite/16.1/nios2eds/bin/gnu/h-x86_64-mingw32/bin/../lib/gcc/nios2-elf/5.3.0/../../../../../H-x86_64-mingw32/nios2-elf/lib/mhw-mulx\libc.a(lib_a-strlen.o)
 .text.strlen   0x0000000000000474       0x98 c:/intelfpga_lite/16.1/nios2eds/bin/gnu/h-x86_64-mingw32/bin/../lib/gcc/nios2-elf/5.3.0/../../../../../H-x86_64-mingw32/nios2-elf/lib/mhw-mulx\libc.a(lib_a-strlen.o)
                0x0000000000000474                strlen
 .text          0x000000000000050c        0x0 c:/intelfpga_lite/16.1/nios2eds/bin/gnu/h-x86_64-mingw32/bin/../lib/gcc/nios2-elf/5.3.0/../../../../../H-x86_64-mingw32/nios2-elf/lib/mhw-mulx\libc.a(lib_a-findfp.o)
 .text.__fp_unlock
                0x000000000000050c        0x8 c:/intelfpga_lite/16.1/nios2eds/bin/gnu/h-x86_64-mingw32/bin/../lib/gcc/nios2-elf/5.3.0/../../../../../H-x86_64-mingw32/nios2-elf/lib/mhw-mulx\libc.a(lib_a-findfp.o)
 .text._cleanup_r
                0x0000000000000514        0xc c:/intelfpga_lite/16.1/nios2eds/bin/gnu/h-x86_64-mingw32/bin/../lib/gcc/nios2-elf/5.3.0/../../../../../H-x86_64-mingw32/nios2-elf/lib/mhw-mulx\libc.a(lib_a-findfp.o)
                0x0000000000000514                _cleanup_r
 .text.__sinit.part.1
                0x0000000000000520      0x19c c:/intelfpga_lite/16.1/nios2eds/bin/gnu/h-x86_64-mingw32/bin/../lib/gcc/nios2-elf/5.3.0/../../../../../H-x86_64-mingw32/nios2-elf/lib/mhw-mulx\libc.a(lib_a-findfp.o)
 .text.__fp_lock
                0x00000000000006bc        0x8 c:/intelfpga_lite/16.1/nios2eds/bin/gnu/h-x86_64-mingw32/bin/../lib/gcc/nios2-elf/5.3.0/../../../../../H-x86_64-mingw32/nios2-elf/lib/mhw-mulx\libc.a(lib_a-findfp.o)
 .text.__sfmoreglue
                0x00000000000006c4       0x68 c:/intelfpga_lite/16.1/nios2eds/bin/gnu/h-x86_64-mingw32/bin/../lib/gcc/nios2-elf/5.3.0/../../../../../H-x86_64-mingw32/nios2-elf/lib/mhw-mulx\libc.a(lib_a-findfp.o)
                0x00000000000006c4                __sfmoreglue
 .text.__sfp    0x000000000000072c      0x118 c:/intelfpga_lite/16.1/nios2eds/bin/gnu/h-x86_64-mingw32/bin/../lib/gcc/nios2-elf/5.3.0/../../../../../H-x86_64-mingw32/nios2-elf/lib/mhw-mulx\libc.a(lib_a-findfp.o)
                0x000000000000072c                __sfp
 .text._cleanup
                0x0000000000000844       0x18 c:/intelfpga_lite/16.1/nios2eds/bin/gnu/h-x86_64-mingw32/bin/../lib/gcc/nios2-elf/5.3.0/../../../../../H-x86_64-mingw32/nios2-elf/lib/mhw-mulx\libc.a(lib_a-findfp.o)
                0x0000000000000844                _cleanup
 .text.__sinit  0x000000000000085c       0x10 c:/intelfpga_lite/16.1/nios2eds/bin/gnu/h-x86_64-mingw32/bin/../lib/gcc/nios2-elf/5.3.0/../../../../../H-x86_64-mingw32/nios2-elf/lib/mhw-mulx\libc.a(lib_a-findfp.o)
                0x000000000000085c                __sinit
 .text.__sfp_lock_acquire
                0x000000000000086c        0x4 c:/intelfpga_lite/16.1/nios2eds/bin/gnu/h-x86_64-mingw32/bin/../lib/gcc/nios2-elf/5.3.0/../../../../../H-x86_64-mingw32/nios2-elf/lib/mhw-mulx\libc.a(lib_a-findfp.o)
                0x000000000000086c                __sfp_lock_acquire
 .text.__sfp_lock_release
                0x0000000000000870        0x4 c:/intelfpga_lite/16.1/nios2eds/bin/gnu/h-x86_64-mingw32/bin/../lib/gcc/nios2-elf/5.3.0/../../../../../H-x86_64-mingw32/nios2-elf/lib/mhw-mulx\libc.a(lib_a-findfp.o)
                0x0000000000000870                __sfp_lock_release
 .text.__sinit_lock_acquire
                0x0000000000000874        0x4 c:/intelfpga_lite/16.1/nios2eds/bin/gnu/h-x86_64-mingw32/bin/../lib/gcc/nios2-elf/5.3.0/../../../../../H-x86_64-mingw32/nios2-elf/lib/mhw-mulx\libc.a(lib_a-findfp.o)
                0x0000000000000874                __sinit_lock_acquire
 .text.__sinit_lock_release
                0x0000000000000878        0x4 c:/intelfpga_lite/16.1/nios2eds/bin/gnu/h-x86_64-mingw32/bin/../lib/gcc/nios2-elf/5.3.0/../../../../../H-x86_64-mingw32/nios2-elf/lib/mhw-mulx\libc.a(lib_a-findfp.o)
                0x0000000000000878                __sinit_lock_release
 .text.__fp_lock_all
                0x000000000000087c       0x18 c:/intelfpga_lite/16.1/nios2eds/bin/gnu/h-x86_64-mingw32/bin/../lib/gcc/nios2-elf/5.3.0/../../../../../H-x86_64-mingw32/nios2-elf/lib/mhw-mulx\libc.a(lib_a-findfp.o)
                0x000000000000087c                __fp_lock_all
 .text.__fp_unlock_all
                0x0000000000000894       0x18 c:/intelfpga_lite/16.1/nios2eds/bin/gnu/h-x86_64-mingw32/bin/../lib/gcc/nios2-elf/5.3.0/../../../../../H-x86_64-mingw32/nios2-elf/lib/mhw-mulx\libc.a(lib_a-findfp.o)
                0x0000000000000894                __fp_unlock_all
 .text          0x00000000000008ac        0x0 c:/intelfpga_lite/16.1/nios2eds/bin/gnu/h-x86_64-mingw32/bin/../lib/gcc/nios2-elf/5.3.0/../../../../../H-x86_64-mingw32/nios2-elf/lib/mhw-mulx\libc.a(lib_a-fvwrite.o)
 .text.__sfvwrite_r
                0x00000000000008ac      0x4bc c:/intelfpga_lite/16.1/nios2eds/bin/gnu/h-x86_64-mingw32/bin/../lib/gcc/nios2-elf/5.3.0/../../../../../H-x86_64-mingw32/nios2-elf/lib/mhw-mulx\libc.a(lib_a-fvwrite.o)
                0x00000000000008ac                __sfvwrite_r
 .text          0x0000000000000d68        0x0 c:/intelfpga_lite/16.1/nios2eds/bin/gnu/h-x86_64-mingw32/bin/../lib/gcc/nios2-elf/5.3.0/../../../../../H-x86_64-mingw32/nios2-elf/lib/mhw-mulx\libc.a(lib_a-fwalk.o)
 .text._fwalk   0x0000000000000d68       0xc4 c:/intelfpga_lite/16.1/nios2eds/bin/gnu/h-x86_64-mingw32/bin/../lib/gcc/nios2-elf/5.3.0/../../../../../H-x86_64-mingw32/nios2-elf/lib/mhw-mulx\libc.a(lib_a-fwalk.o)
                0x0000000000000d68                _fwalk
 .text._fwalk_reent
                0x0000000000000e2c       0xc4 c:/intelfpga_lite/16.1/nios2eds/bin/gnu/h-x86_64-mingw32/bin/../lib/gcc/nios2-elf/5.3.0/../../../../../H-x86_64-mingw32/nios2-elf/lib/mhw-mulx\libc.a(lib_a-fwalk.o)
                0x0000000000000e2c                _fwalk_reent
 .text          0x0000000000000ef0        0x0 c:/intelfpga_lite/16.1/nios2eds/bin/gnu/h-x86_64-mingw32/bin/../lib/gcc/nios2-elf/5.3.0/../../../../../H-x86_64-mingw32/nios2-elf/lib/mhw-mulx\libc.a(lib_a-impure.o)
 .text          0x0000000000000ef0        0x0 c:/intelfpga_lite/16.1/nios2eds/bin/gnu/h-x86_64-mingw32/bin/../lib/gcc/nios2-elf/5.3.0/../../../../../H-x86_64-mingw32/nios2-elf/lib/mhw-mulx\libc.a(lib_a-mallocr.o)
 .text._malloc_r
                0x0000000000000ef0      0x80c c:/intelfpga_lite/16.1/nios2eds/bin/gnu/h-x86_64-mingw32/bin/../lib/gcc/nios2-elf/5.3.0/../../../../../H-x86_64-mingw32/nios2-elf/lib/mhw-mulx\libc.a(lib_a-mallocr.o)
                0x0000000000000ef0                _malloc_r
 .text          0x00000000000016fc        0x0 c:/intelfpga_lite/16.1/nios2eds/bin/gnu/h-x86_64-mingw32/bin/../lib/gcc/nios2-elf/5.3.0/../../../../../H-x86_64-mingw32/nios2-elf/lib/mhw-mulx\libc.a(lib_a-memchr.o)
 .text.memchr   0x00000000000016fc       0xe4 c:/intelfpga_lite/16.1/nios2eds/bin/gnu/h-x86_64-mingw32/bin/../lib/gcc/nios2-elf/5.3.0/../../../../../H-x86_64-mingw32/nios2-elf/lib/mhw-mulx\libc.a(lib_a-memchr.o)
                0x00000000000016fc                memchr
 .text          0x00000000000017e0        0x0 c:/intelfpga_lite/16.1/nios2eds/bin/gnu/h-x86_64-mingw32/bin/../lib/gcc/nios2-elf/5.3.0/../../../../../H-x86_64-mingw32/nios2-elf/lib/mhw-mulx\libc.a(lib_a-memcpy.o)
 .text.memcpy   0x00000000000017e0      0x148 c:/intelfpga_lite/16.1/nios2eds/bin/gnu/h-x86_64-mingw32/bin/../lib/gcc/nios2-elf/5.3.0/../../../../../H-x86_64-mingw32/nios2-elf/lib/mhw-mulx\libc.a(lib_a-memcpy.o)
                0x00000000000017e0                memcpy
 .text          0x0000000000001928        0x0 c:/intelfpga_lite/16.1/nios2eds/bin/gnu/h-x86_64-mingw32/bin/../lib/gcc/nios2-elf/5.3.0/../../../../../H-x86_64-mingw32/nios2-elf/lib/mhw-mulx\libc.a(lib_a-memmove.o)
 .text.memmove  0x0000000000001928      0x15c c:/intelfpga_lite/16.1/nios2eds/bin/gnu/h-x86_64-mingw32/bin/../lib/gcc/nios2-elf/5.3.0/../../../../../H-x86_64-mingw32/nios2-elf/lib/mhw-mulx\libc.a(lib_a-memmove.o)
                0x0000000000001928                memmove
 .text          0x0000000000001a84        0x0 c:/intelfpga_lite/16.1/nios2eds/bin/gnu/h-x86_64-mingw32/bin/../lib/gcc/nios2-elf/5.3.0/../../../../../H-x86_64-mingw32/nios2-elf/lib/mhw-mulx\libc.a(lib_a-memset.o)
 .text.memset   0x0000000000001a84      0x128 c:/intelfpga_lite/16.1/nios2eds/bin/gnu/h-x86_64-mingw32/bin/../lib/gcc/nios2-elf/5.3.0/../../../../../H-x86_64-mingw32/nios2-elf/lib/mhw-mulx\libc.a(lib_a-memset.o)
                0x0000000000001a84                memset
 .text          0x0000000000001bac        0x0 c:/intelfpga_lite/16.1/nios2eds/bin/gnu/h-x86_64-mingw32/bin/../lib/gcc/nios2-elf/5.3.0/../../../../../H-x86_64-mingw32/nios2-elf/lib/mhw-mulx\libc.a(lib_a-reallocr.o)
 .text._realloc_r
                0x0000000000001bac      0x564 c:/intelfpga_lite/16.1/nios2eds/bin/gnu/h-x86_64-mingw32/bin/../lib/gcc/nios2-elf/5.3.0/../../../../../H-x86_64-mingw32/nios2-elf/lib/mhw-mulx\libc.a(lib_a-reallocr.o)
                0x0000000000001bac                _realloc_r
 .text          0x0000000000002110        0x0 c:/intelfpga_lite/16.1/nios2eds/bin/gnu/h-x86_64-mingw32/bin/../lib/gcc/nios2-elf/5.3.0/../../../../../H-x86_64-mingw32/nios2-elf/lib/mhw-mulx\libc.a(lib_a-sbrkr.o)
 .text._sbrk_r  0x0000000000002110       0x54 c:/intelfpga_lite/16.1/nios2eds/bin/gnu/h-x86_64-mingw32/bin/../lib/gcc/nios2-elf/5.3.0/../../../../../H-x86_64-mingw32/nios2-elf/lib/mhw-mulx\libc.a(lib_a-sbrkr.o)
                0x0000000000002110                _sbrk_r
 .text          0x0000000000002164        0x0 c:/intelfpga_lite/16.1/nios2eds/bin/gnu/h-x86_64-mingw32/bin/../lib/gcc/nios2-elf/5.3.0/../../../../../H-x86_64-mingw32/nios2-elf/lib/mhw-mulx\libc.a(lib_a-stdio.o)
 .text.__sread  0x0000000000002164       0x54 c:/intelfpga_lite/16.1/nios2eds/bin/gnu/h-x86_64-mingw32/bin/../lib/gcc/nios2-elf/5.3.0/../../../../../H-x86_64-mingw32/nios2-elf/lib/mhw-mulx\libc.a(lib_a-stdio.o)
                0x0000000000002164                __sread
 .text.__seofread
                0x00000000000021b8        0x8 c:/intelfpga_lite/16.1/nios2eds/bin/gnu/h-x86_64-mingw32/bin/../lib/gcc/nios2-elf/5.3.0/../../../../../H-x86_64-mingw32/nios2-elf/lib/mhw-mulx\libc.a(lib_a-stdio.o)
                0x00000000000021b8                __seofread
 .text.__swrite
                0x00000000000021c0       0x7c c:/intelfpga_lite/16.1/nios2eds/bin/gnu/h-x86_64-mingw32/bin/../lib/gcc/nios2-elf/5.3.0/../../../../../H-x86_64-mingw32/nios2-elf/lib/mhw-mulx\libc.a(lib_a-stdio.o)
                0x00000000000021c0                __swrite
 .text.__sseek  0x000000000000223c       0x5c c:/intelfpga_lite/16.1/nios2eds/bin/gnu/h-x86_64-mingw32/bin/../lib/gcc/nios2-elf/5.3.0/../../../../../H-x86_64-mingw32/nios2-elf/lib/mhw-mulx\libc.a(lib_a-stdio.o)
                0x000000000000223c                __sseek
 .text.__sclose
                0x0000000000002298        0x8 c:/intelfpga_lite/16.1/nios2eds/bin/gnu/h-x86_64-mingw32/bin/../lib/gcc/nios2-elf/5.3.0/../../../../../H-x86_64-mingw32/nios2-elf/lib/mhw-mulx\libc.a(lib_a-stdio.o)
                0x0000000000002298                __sclose
 .text          0x00000000000022a0        0x0 c:/intelfpga_lite/16.1/nios2eds/bin/gnu/h-x86_64-mingw32/bin/../lib/gcc/nios2-elf/5.3.0/../../../../../H-x86_64-mingw32/nios2-elf/lib/mhw-mulx\libc.a(lib_a-writer.o)
 .text._write_r
                0x00000000000022a0       0x60 c:/intelfpga_lite/16.1/nios2eds/bin/gnu/h-x86_64-mingw32/bin/../lib/gcc/nios2-elf/5.3.0/../../../../../H-x86_64-mingw32/nios2-elf/lib/mhw-mulx\libc.a(lib_a-writer.o)
                0x00000000000022a0                _write_r
 .text          0x0000000000002300        0x0 c:/intelfpga_lite/16.1/nios2eds/bin/gnu/h-x86_64-mingw32/bin/../lib/gcc/nios2-elf/5.3.0/../../../../../H-x86_64-mingw32/nios2-elf/lib/mhw-mulx\libc.a(lib_a-wsetup.o)
 .text.__swsetup_r
                0x0000000000002300      0x154 c:/intelfpga_lite/16.1/nios2eds/bin/gnu/h-x86_64-mingw32/bin/../lib/gcc/nios2-elf/5.3.0/../../../../../H-x86_64-mingw32/nios2-elf/lib/mhw-mulx\libc.a(lib_a-wsetup.o)
                0x0000000000002300                __swsetup_r
 .text          0x0000000000002454        0x0 c:/intelfpga_lite/16.1/nios2eds/bin/gnu/h-x86_64-mingw32/bin/../lib/gcc/nios2-elf/5.3.0/../../../../../H-x86_64-mingw32/nios2-elf/lib/mhw-mulx\libc.a(closer.o)
 .text._close_r
                0x0000000000002454       0x54 c:/intelfpga_lite/16.1/nios2eds/bin/gnu/h-x86_64-mingw32/bin/../lib/gcc/nios2-elf/5.3.0/../../../../../H-x86_64-mingw32/nios2-elf/lib/mhw-mulx\libc.a(closer.o)
                0x0000000000002454                _close_r
 .text          0x00000000000024a8        0x0 c:/intelfpga_lite/16.1/nios2eds/bin/gnu/h-x86_64-mingw32/bin/../lib/gcc/nios2-elf/5.3.0/../../../../../H-x86_64-mingw32/nios2-elf/lib/mhw-mulx\libc.a(lib_a-fclose.o)
 .text._fclose_r
                0x00000000000024a8       0xf0 c:/intelfpga_lite/16.1/nios2eds/bin/gnu/h-x86_64-mingw32/bin/../lib/gcc/nios2-elf/5.3.0/../../../../../H-x86_64-mingw32/nios2-elf/lib/mhw-mulx\libc.a(lib_a-fclose.o)
                0x00000000000024a8                _fclose_r
 .text.fclose   0x0000000000002598       0x14 c:/intelfpga_lite/16.1/nios2eds/bin/gnu/h-x86_64-mingw32/bin/../lib/gcc/nios2-elf/5.3.0/../../../../../H-x86_64-mingw32/nios2-elf/lib/mhw-mulx\libc.a(lib_a-fclose.o)
                0x0000000000002598                fclose
 .text          0x00000000000025ac        0x0 c:/intelfpga_lite/16.1/nios2eds/bin/gnu/h-x86_64-mingw32/bin/../lib/gcc/nios2-elf/5.3.0/../../../../../H-x86_64-mingw32/nios2-elf/lib/mhw-mulx\libc.a(lib_a-fflush.o)
 .text.__sflush_r
                0x00000000000025ac      0x21c c:/intelfpga_lite/16.1/nios2eds/bin/gnu/h-x86_64-mingw32/bin/../lib/gcc/nios2-elf/5.3.0/../../../../../H-x86_64-mingw32/nios2-elf/lib/mhw-mulx\libc.a(lib_a-fflush.o)
                0x00000000000025ac                __sflush_r
 .text._fflush_r
                0x00000000000027c8       0x5c c:/intelfpga_lite/16.1/nios2eds/bin/gnu/h-x86_64-mingw32/bin/../lib/gcc/nios2-elf/5.3.0/../../../../../H-x86_64-mingw32/nios2-elf/lib/mhw-mulx\libc.a(lib_a-fflush.o)
                0x00000000000027c8                _fflush_r
 .text.fflush   0x0000000000002824       0x30 c:/intelfpga_lite/16.1/nios2eds/bin/gnu/h-x86_64-mingw32/bin/../lib/gcc/nios2-elf/5.3.0/../../../../../H-x86_64-mingw32/nios2-elf/lib/mhw-mulx\libc.a(lib_a-fflush.o)
                0x0000000000002824                fflush
 .text          0x0000000000002854        0x0 c:/intelfpga_lite/16.1/nios2eds/bin/gnu/h-x86_64-mingw32/bin/../lib/gcc/nios2-elf/5.3.0/../../../../../H-x86_64-mingw32/nios2-elf/lib/mhw-mulx\libc.a(lib_a-freer.o)
 .text._malloc_trim_r
                0x0000000000002854      0x124 c:/intelfpga_lite/16.1/nios2eds/bin/gnu/h-x86_64-mingw32/bin/../lib/gcc/nios2-elf/5.3.0/../../../../../H-x86_64-mingw32/nios2-elf/lib/mhw-mulx\libc.a(lib_a-freer.o)
                0x0000000000002854                _malloc_trim_r
 .text._free_r  0x0000000000002978      0x310 c:/intelfpga_lite/16.1/nios2eds/bin/gnu/h-x86_64-mingw32/bin/../lib/gcc/nios2-elf/5.3.0/../../../../../H-x86_64-mingw32/nios2-elf/lib/mhw-mulx\libc.a(lib_a-freer.o)
                0x0000000000002978                _free_r
 .text          0x0000000000002c88        0x0 c:/intelfpga_lite/16.1/nios2eds/bin/gnu/h-x86_64-mingw32/bin/../lib/gcc/nios2-elf/5.3.0/../../../../../H-x86_64-mingw32/nios2-elf/lib/mhw-mulx\libc.a(lib_a-int_errno.o)
 .text          0x0000000000002c88        0x0 c:/intelfpga_lite/16.1/nios2eds/bin/gnu/h-x86_64-mingw32/bin/../lib/gcc/nios2-elf/5.3.0/../../../../../H-x86_64-mingw32/nios2-elf/lib/mhw-mulx\libc.a(lib_a-lseekr.o)
 .text._lseek_r
                0x0000000000002c88       0x60 c:/intelfpga_lite/16.1/nios2eds/bin/gnu/h-x86_64-mingw32/bin/../lib/gcc/nios2-elf/5.3.0/../../../../../H-x86_64-mingw32/nios2-elf/lib/mhw-mulx\libc.a(lib_a-lseekr.o)
                0x0000000000002c88                _lseek_r
 .text          0x0000000000002ce8        0x0 c:/intelfpga_lite/16.1/nios2eds/bin/gnu/h-x86_64-mingw32/bin/../lib/gcc/nios2-elf/5.3.0/../../../../../H-x86_64-mingw32/nios2-elf/lib/mhw-mulx\libc.a(lib_a-makebuf.o)
 .text.__smakebuf_r
                0x0000000000002ce8      0x1bc c:/intelfpga_lite/16.1/nios2eds/bin/gnu/h-x86_64-mingw32/bin/../lib/gcc/nios2-elf/5.3.0/../../../../../H-x86_64-mingw32/nios2-elf/lib/mhw-mulx\libc.a(lib_a-makebuf.o)
                0x0000000000002ce8                __smakebuf_r
 .text          0x0000000000002ea4        0x0 c:/intelfpga_lite/16.1/nios2eds/bin/gnu/h-x86_64-mingw32/bin/../lib/gcc/nios2-elf/5.3.0/../../../../../H-x86_64-mingw32/nios2-elf/lib/mhw-mulx\libc.a(lib_a-readr.o)
 .text._read_r  0x0000000000002ea4       0x60 c:/intelfpga_lite/16.1/nios2eds/bin/gnu/h-x86_64-mingw32/bin/../lib/gcc/nios2-elf/5.3.0/../../../../../H-x86_64-mingw32/nios2-elf/lib/mhw-mulx\libc.a(lib_a-readr.o)
                0x0000000000002ea4                _read_r
 .text          0x0000000000002f04        0x0 c:/intelfpga_lite/16.1/nios2eds/bin/gnu/h-x86_64-mingw32/bin/../lib/gcc/nios2-elf/5.3.0/../../../../../H-x86_64-mingw32/nios2-elf/lib/mhw-mulx\libc.a(lib_a-fstatr.o)
 .text._fstat_r
                0x0000000000002f04       0x5c c:/intelfpga_lite/16.1/nios2eds/bin/gnu/h-x86_64-mingw32/bin/../lib/gcc/nios2-elf/5.3.0/../../../../../H-x86_64-mingw32/nios2-elf/lib/mhw-mulx\libc.a(lib_a-fstatr.o)
                0x0000000000002f04                _fstat_r
 .text          0x0000000000002f60        0x0 c:/intelfpga_lite/16.1/nios2eds/bin/gnu/h-x86_64-mingw32/bin/../lib/gcc/nios2-elf/5.3.0/../../../../../H-x86_64-mingw32/nios2-elf/lib/mhw-mulx\libc.a(lib_a-isattyr.o)
 .text._isatty_r
                0x0000000000002f60       0x54 c:/intelfpga_lite/16.1/nios2eds/bin/gnu/h-x86_64-mingw32/bin/../lib/gcc/nios2-elf/5.3.0/../../../../../H-x86_64-mingw32/nios2-elf/lib/mhw-mulx\libc.a(lib_a-isattyr.o)
                0x0000000000002f60                _isatty_r
 .text          0x0000000000002fb4      0x1b4 c:/intelfpga_lite/16.1/nios2eds/bin/gnu/h-x86_64-mingw32/bin/../lib/gcc/nios2-elf/5.3.0/mhw-mulx\libgcc.a(lib2-divmod.o)
                0x0000000000002fb4                __divsi3
                0x0000000000003038                __modsi3
                0x00000000000030ac                __udivsi3
                0x0000000000003110                __umodsi3
 .text          0x0000000000003168      0x10c C:/Users/Artee/Documents/ESAKBS2/nioseclipse_bsp/\libucosii_bsp.a(alt_close.o)
                0x00000000000031a4                close
 .text          0x0000000000003274       0x2c C:/Users/Artee/Documents/ESAKBS2/nioseclipse_bsp/\libucosii_bsp.a(alt_dev.o)
 .text          0x00000000000032a0        0x0 C:/Users/Artee/Documents/ESAKBS2/nioseclipse_bsp/\libucosii_bsp.a(alt_errno.o)
 .text          0x00000000000032a0       0xec C:/Users/Artee/Documents/ESAKBS2/nioseclipse_bsp/\libucosii_bsp.a(alt_fstat.o)
                0x00000000000032dc                fstat
 .text          0x000000000000338c       0xe0 C:/Users/Artee/Documents/ESAKBS2/nioseclipse_bsp/\libucosii_bsp.a(alt_isatty.o)
                0x00000000000033c8                isatty
 .text          0x000000000000346c       0xec C:/Users/Artee/Documents/ESAKBS2/nioseclipse_bsp/\libucosii_bsp.a(alt_load.o)
                0x00000000000034d4                alt_load
 .text          0x0000000000003558      0x110 C:/Users/Artee/Documents/ESAKBS2/nioseclipse_bsp/\libucosii_bsp.a(alt_lseek.o)
                0x0000000000003594                lseek
 .text          0x0000000000003668       0xbc C:/Users/Artee/Documents/ESAKBS2/nioseclipse_bsp/\libucosii_bsp.a(alt_main.o)
                0x0000000000003668                alt_main
 .text          0x0000000000003724      0x138 C:/Users/Artee/Documents/ESAKBS2/nioseclipse_bsp/\libucosii_bsp.a(alt_read.o)
                0x0000000000003760                read
 .text          0x000000000000385c       0x64 C:/Users/Artee/Documents/ESAKBS2/nioseclipse_bsp/\libucosii_bsp.a(alt_release_fd.o)
                0x000000000000385c                alt_release_fd
 .text          0x00000000000038c0       0xb0 C:/Users/Artee/Documents/ESAKBS2/nioseclipse_bsp/\libucosii_bsp.a(alt_sbrk.o)
                0x00000000000038c0                sbrk
 .text          0x0000000000003970      0x134 C:/Users/Artee/Documents/ESAKBS2/nioseclipse_bsp/\libucosii_bsp.a(alt_write.o)
                0x00000000000039ac                write
 .text          0x0000000000003aa4      0x124 C:/Users/Artee/Documents/ESAKBS2/nioseclipse_bsp/\libucosii_bsp.a(alt_env_lock.o)
                0x0000000000003aa4                __env_lock
                0x0000000000003b68                __env_unlock
 .text          0x0000000000003bc8      0x1ec C:/Users/Artee/Documents/ESAKBS2/nioseclipse_bsp/\libucosii_bsp.a(alt_malloc_lock.o)
                0x0000000000003bc8                __malloc_lock
                0x0000000000003ce8                __malloc_unlock
 .text          0x0000000000003db4     0x2024 C:/Users/Artee/Documents/ESAKBS2/nioseclipse_bsp/\libucosii_bsp.a(os_core.o)
                0x0000000000003db4                OSEventNameGet
                0x0000000000003ed4                OSEventNameSet
                0x0000000000004014                OSEventPendMulti
                0x0000000000004624                OSInit
                0x000000000000467c                OSIntEnter
                0x00000000000046c8                OSIntExit
                0x00000000000047c0                OSSchedLock
                0x000000000000484c                OSSchedUnlock
                0x0000000000004928                OSStart
                0x0000000000004998                OSStatInit
                0x0000000000004a48                OSTimeTick
                0x0000000000004c68                OSVersion
                0x0000000000004c88                OS_Dummy
                0x0000000000004ca8                OS_EventTaskRdy
                0x0000000000004e40                OS_EventTaskWait
                0x0000000000004f50                OS_EventTaskWaitMulti
                0x00000000000050a0                OS_EventTaskRemove
                0x0000000000005158                OS_EventTaskRemoveMulti
                0x0000000000005258                OS_EventWaitListInit
                0x0000000000005638                OS_MemClr
                0x000000000000568c                OS_MemCopy
                0x00000000000056f4                OS_Sched
                0x0000000000005838                OS_StrCopy
                0x00000000000058ac                OS_StrLen
                0x0000000000005900                OS_TaskIdle
                0x000000000000595c                OS_TaskStat
                0x0000000000005a38                OS_TaskStatStkChk
                0x0000000000005b04                OS_TCBInit
 .text          0x0000000000005dd8      0x190 C:/Users/Artee/Documents/ESAKBS2/nioseclipse_bsp/\libucosii_bsp.a(os_dbg.o)
                0x0000000000005dd8                OSDebugInit
 .text          0x0000000000005f68     0x1714 C:/Users/Artee/Documents/ESAKBS2/nioseclipse_bsp/\libucosii_bsp.a(os_flag.o)
                0x0000000000005f68                OSFlagAccept
                0x0000000000006270                OSFlagCreate
                0x0000000000006378                OSFlagDel
                0x00000000000065c0                OSFlagNameGet
                0x00000000000066e8                OSFlagNameSet
                0x0000000000006834                OSFlagPend
                0x0000000000006dec                OSFlagPendGetFlagsRdy
                0x0000000000006e4c                OSFlagPost
                0x00000000000071e0                OSFlagQuery
                0x0000000000007404                OS_FlagInit
                0x00000000000075d8                OS_FlagUnlink
 .text          0x000000000000767c      0x754 C:/Users/Artee/Documents/ESAKBS2/nioseclipse_bsp/\libucosii_bsp.a(os_mem.o)
                0x000000000000767c                OSMemCreate
                0x0000000000007850                OSMemGet
                0x0000000000007940                OSMemNameGet
                0x0000000000007a30                OSMemNameSet
                0x0000000000007b44                OSMemPut
                0x0000000000007c1c                OSMemQuery
                0x0000000000007d04                OS_MemInit
 .text          0x0000000000007dd0     0x1104 C:/Users/Artee/Documents/ESAKBS2/nioseclipse_bsp/\libucosii_bsp.a(os_q.o)
                0x0000000000007dd0                OSQAccept
                0x0000000000007f10                OSQCreate
                0x00000000000080bc                OSQDel
                0x000000000000833c                OSQFlush
                0x00000000000083f4                OSQPend
                0x0000000000008680                OSQPendAbort
                0x00000000000087ec                OSQPost
                0x0000000000008954                OSQPostFront
                0x0000000000008ac4                OSQPostOpt
                0x0000000000008cd0                OSQQuery
                0x0000000000008e2c                OS_QInit
 .text          0x0000000000008ed4      0xa60 C:/Users/Artee/Documents/ESAKBS2/nioseclipse_bsp/\libucosii_bsp.a(os_sem.o)
                0x0000000000008ed4                OSSemAccept
                0x0000000000008f84                OSSemCreate
                0x000000000000905c                OSSemDel
                0x000000000000929c                OSSemPend
                0x00000000000094a8                OSSemPendAbort
                0x0000000000009614                OSSemPost
                0x0000000000009724                OSSemQuery
                0x0000000000009834                OSSemSet
 .text          0x0000000000009934     0x176c C:/Users/Artee/Documents/ESAKBS2/nioseclipse_bsp/\libucosii_bsp.a(os_task.o)
                0x0000000000009934                OSTaskChangePrio
                0x0000000000009e24                OSTaskCreate
                0x0000000000009fd0                OSTaskCreateExt
                0x000000000000a1b4                OSTaskDel
                0x000000000000a4f8                OSTaskDelReq
                0x000000000000a648                OSTaskNameGet
                0x000000000000a7e0                OSTaskNameSet
                0x000000000000a994                OSTaskResume
                0x000000000000ab68                OSTaskStkChk
                0x000000000000ad28                OSTaskSuspend
                0x000000000000af0c                OSTaskQuery
                0x000000000000b030                OS_TaskStkClr
 .text          0x000000000000b0a0      0x4f4 C:/Users/Artee/Documents/ESAKBS2/nioseclipse_bsp/\libucosii_bsp.a(os_time.o)
                0x000000000000b0a0                OSTimeDly
                0x000000000000b1a4                OSTimeDlyHMSM
                0x000000000000b304                OSTimeDlyResume
                0x000000000000b4d8                OSTimeGet
                0x000000000000b534                OSTimeSet
 .text          0x000000000000b594      0x880 C:/Users/Artee/Documents/ESAKBS2/nioseclipse_bsp/\libucosii_bsp.a(alt_sys_init.o)
                0x000000000000b5c8                alt_irq_init
                0x000000000000b600                alt_sys_init
 .text          0x000000000000be14      0x164 C:/Users/Artee/Documents/ESAKBS2/nioseclipse_bsp/\libucosii_bsp.a(altera_avalon_jtag_uart_fd.o)
                0x000000000000be14                altera_avalon_jtag_uart_read_fd
                0x000000000000be74                altera_avalon_jtag_uart_write_fd
                0x000000000000bed4                altera_avalon_jtag_uart_close_fd
                0x000000000000bf24                altera_avalon_jtag_uart_ioctl_fd
 .text          0x000000000000bf78      0x550 C:/Users/Artee/Documents/ESAKBS2/nioseclipse_bsp/\libucosii_bsp.a(altera_avalon_jtag_uart_init.o)
                0x000000000000bf78                altera_avalon_jtag_uart_init
                0x000000000000c460                altera_avalon_jtag_uart_close
 .text          0x000000000000c4c8       0xf0 C:/Users/Artee/Documents/ESAKBS2/nioseclipse_bsp/\libucosii_bsp.a(altera_avalon_jtag_uart_ioctl.o)
                0x000000000000c4c8                altera_avalon_jtag_uart_ioctl
 .text          0x000000000000c5b8      0x2bc C:/Users/Artee/Documents/ESAKBS2/nioseclipse_bsp/\libucosii_bsp.a(altera_avalon_jtag_uart_read.o)
                0x000000000000c5b8                altera_avalon_jtag_uart_read
 .text          0x000000000000c874      0x2c4 C:/Users/Artee/Documents/ESAKBS2/nioseclipse_bsp/\libucosii_bsp.a(altera_avalon_jtag_uart_write.o)
                0x000000000000c874                altera_avalon_jtag_uart_write
 .text          0x000000000000cb38       0xf0 C:/Users/Artee/Documents/ESAKBS2/nioseclipse_bsp/\libucosii_bsp.a(altera_avalon_timer_sc.o)
                0x000000000000cbb4                alt_avalon_timer_sc_init
 .text          0x000000000000cc28      0x4f4 C:/Users/Artee/Documents/ESAKBS2/nioseclipse_bsp/\libucosii_bsp.a(altera_up_avalon_character_lcd.o)
                0x000000000000cc28                get_DDRAM_addr
                0x000000000000cc9c                alt_up_character_lcd_send_cmd
                0x000000000000ccdc                alt_up_character_lcd_init
                0x000000000000cd14                alt_up_character_lcd_open_dev
                0x000000000000cd50                alt_up_character_lcd_write
                0x000000000000cdcc                alt_up_character_lcd_string
                0x000000000000ce44                alt_up_character_lcd_write_fd
                0x000000000000ce94                alt_up_character_lcd_set_cursor_pos
                0x000000000000cf08                alt_up_character_lcd_shift_cursor
                0x000000000000cf94                alt_up_character_lcd_shift_display
                0x000000000000d020                alt_up_character_lcd_erase_pos
                0x000000000000d0ac                alt_up_character_lcd_cursor_off
                0x000000000000d0e4                alt_up_character_lcd_cursor_blink_on
 .text          0x000000000000d11c      0x38c C:/Users/Artee/Documents/ESAKBS2/nioseclipse_bsp/\libucosii_bsp.a(altera_up_avalon_irda.o)
                0x000000000000d11c                alt_up_irda_enable_read_interrupt
                0x000000000000d178                alt_up_irda_disable_read_interrupt
                0x000000000000d1d8                alt_up_irda_get_used_space_in_read_FIFO
                0x000000000000d218                alt_up_irda_get_available_space_in_write_FIFO
                0x000000000000d254                alt_up_irda_check_parity
                0x000000000000d298                alt_up_irda_write_data
                0x000000000000d2d8                alt_up_irda_read_data
                0x000000000000d34c                alt_up_irda_read_fd
                0x000000000000d3dc                alt_up_irda_write_fd
                0x000000000000d46c                alt_up_irda_open_dev
 .text          0x000000000000d4a8      0x6b0 C:/Users/Artee/Documents/ESAKBS2/nioseclipse_bsp/\libucosii_bsp.a(altera_up_avalon_ps2.o)
                0x000000000000d4a8                read_RI_bit
                0x000000000000d4dc                read_RE_bit
                0x000000000000d50c                read_CE_bit
                0x000000000000d540                read_num_bytes_available
                0x000000000000d570                read_data_valid
                0x000000000000d5a4                read_data_byte
                0x000000000000d5d0                alt_up_ps2_init
                0x000000000000d698                alt_up_ps2_enable_read_interrupt
                0x000000000000d6f4                alt_up_ps2_disable_read_interrupt
                0x000000000000d754                alt_up_ps2_write_data_byte
                0x000000000000d7c8                alt_up_ps2_wait_for_ack
                0x000000000000d830                alt_up_ps2_write_data_byte_with_ack
                0x000000000000d894                alt_up_ps2_read_data_byte_timeout
                0x000000000000d930                alt_up_ps2_read_data_byte
                0x000000000000d9a0                alt_up_ps2_clear_fifo
                0x000000000000d9f8                alt_up_ps2_read_fd
                0x000000000000da84                alt_up_ps2_write_fd
                0x000000000000db1c                alt_up_ps2_open_dev
 .text          0x000000000000db58      0x390 C:/Users/Artee/Documents/ESAKBS2/nioseclipse_bsp/\libucosii_bsp.a(altera_up_avalon_rs232.o)
                0x000000000000db58                alt_up_rs232_enable_read_interrupt
                0x000000000000dbb4                alt_up_rs232_disable_read_interrupt
                0x000000000000dc14                alt_up_rs232_get_used_space_in_read_FIFO
                0x000000000000dc54                alt_up_rs232_get_available_space_in_write_FIFO
                0x000000000000dc90                alt_up_rs232_check_parity
                0x000000000000dcd4                alt_up_rs232_write_data
                0x000000000000dd14                alt_up_rs232_read_data
                0x000000000000dd88                alt_up_rs232_read_fd
                0x000000000000de18                alt_up_rs232_write_fd
                0x000000000000deac                alt_up_rs232_open_dev
 .text          0x000000000000dee8      0x12c C:/Users/Artee/Documents/ESAKBS2/nioseclipse_bsp/\libucosii_bsp.a(alt_alarm_start.o)
                0x000000000000dee8                alt_alarm_start
 .text          0x000000000000e014       0x20 C:/Users/Artee/Documents/ESAKBS2/nioseclipse_bsp/\libucosii_bsp.a(alt_dcache_flush_all.o)
                0x000000000000e014                alt_dcache_flush_all
 .text          0x000000000000e034       0xe0 C:/Users/Artee/Documents/ESAKBS2/nioseclipse_bsp/\libucosii_bsp.a(alt_dev_llist_insert.o)
                0x000000000000e070                alt_dev_llist_insert
 .text          0x000000000000e114       0x60 C:/Users/Artee/Documents/ESAKBS2/nioseclipse_bsp/\libucosii_bsp.a(alt_do_ctors.o)
                0x000000000000e114                _do_ctors
 .text          0x000000000000e174       0x60 C:/Users/Artee/Documents/ESAKBS2/nioseclipse_bsp/\libucosii_bsp.a(alt_do_dtors.o)
                0x000000000000e174                _do_dtors
 .text          0x000000000000e1d4       0x90 C:/Users/Artee/Documents/ESAKBS2/nioseclipse_bsp/\libucosii_bsp.a(alt_find_dev.o)
                0x000000000000e1d4                alt_find_dev
 .text          0x000000000000e264       0x34 C:/Users/Artee/Documents/ESAKBS2/nioseclipse_bsp/\libucosii_bsp.a(alt_icache_flush_all.o)
                0x000000000000e264                alt_icache_flush_all
 .text          0x000000000000e298      0x140 C:/Users/Artee/Documents/ESAKBS2/nioseclipse_bsp/\libucosii_bsp.a(alt_io_redirect.o)
                0x000000000000e35c                alt_io_redirect
 .text          0x000000000000e3d8      0x180 C:/Users/Artee/Documents/ESAKBS2/nioseclipse_bsp/\libucosii_bsp.a(alt_irq_register.o)
                0x000000000000e3d8                alt_irq_register
 .text          0x000000000000e558        0x0 C:/Users/Artee/Documents/ESAKBS2/nioseclipse_bsp/\libucosii_bsp.a(alt_irq_vars.o)
 .text          0x000000000000e558      0x254 C:/Users/Artee/Documents/ESAKBS2/nioseclipse_bsp/\libucosii_bsp.a(alt_open.o)
                0x000000000000e658                open
 .text          0x000000000000e7ac      0x1a4 C:/Users/Artee/Documents/ESAKBS2/nioseclipse_bsp/\libucosii_bsp.a(alt_tick.o)
                0x000000000000e7ac                alt_alarm_stop
                0x000000000000e848                alt_tick
 .text          0x000000000000e950       0x24 C:/Users/Artee/Documents/ESAKBS2/nioseclipse_bsp/\libucosii_bsp.a(altera_nios2_gen2_irq.o)
                0x000000000000e950                altera_nios2_gen2_irq_init
 .text          0x000000000000e974       0xd0 C:/Users/Artee/Documents/ESAKBS2/nioseclipse_bsp/\libucosii_bsp.a(os_cpu_a.o)
                0x000000000000e974                OSCtxSw
                0x000000000000e974                OSIntCtxSw
                0x000000000000ea00                OSStartHighRdy
                0x000000000000ea20                OSStartTsk
 .text          0x000000000000ea44      0x288 C:/Users/Artee/Documents/ESAKBS2/nioseclipse_bsp/\libucosii_bsp.a(os_cpu_c.o)
                0x000000000000ea44                OSTaskStkInit
                0x000000000000eba0                OSTaskCreateHook
                0x000000000000ebc4                OSTaskDelHook
                0x000000000000ebe8                OSTaskSwHook
                0x000000000000ec08                OSTaskStatHook
                0x000000000000ec28                OSTimeTickHook
                0x000000000000ec48                OSInitHookBegin
                0x000000000000ec68                OSInitHookEnd
                0x000000000000ec88                OSTaskIdleHook
                0x000000000000eca8                OSTCBInitHook
 .text          0x000000000000eccc      0x108 C:/Users/Artee/Documents/ESAKBS2/nioseclipse_bsp/\libucosii_bsp.a(alt_find_file.o)
                0x000000000000eccc                alt_find_file
 .text          0x000000000000edd4       0xdc C:/Users/Artee/Documents/ESAKBS2/nioseclipse_bsp/\libucosii_bsp.a(alt_get_fd.o)
                0x000000000000edd4                alt_get_fd
 .text          0x000000000000eeb0       0x90 C:/Users/Artee/Documents/ESAKBS2/nioseclipse_bsp/\libucosii_bsp.a(alt_icache_flush.o)
                0x000000000000eeb0                alt_icache_flush
 .text          0x000000000000ef40        0x0 C:/Users/Artee/Documents/ESAKBS2/nioseclipse_bsp/\libucosii_bsp.a(alt_irq_entry.o)
 .text          0x000000000000ef40        0x0 C:/Users/Artee/Documents/ESAKBS2/nioseclipse_bsp/\libucosii_bsp.a(alt_irq_handler.o)
 .text          0x000000000000ef40        0x0 C:/Users/Artee/Documents/ESAKBS2/nioseclipse_bsp/\libucosii_bsp.a(alt_exception_entry.o)
 .text          0x000000000000ef40       0x9c C:/Users/Artee/Documents/ESAKBS2/nioseclipse_bsp/\libucosii_bsp.a(alt_instruction_exception_entry.o)
                0x000000000000ef40                alt_exception_cause_generated_bad_addr
 .text          0x000000000000efdc        0x0 c:/intelfpga_lite/16.1/nios2eds/bin/gnu/h-x86_64-mingw32/bin/../lib/gcc/nios2-elf/5.3.0/../../../../../H-x86_64-mingw32/nios2-elf/lib/mhw-mulx\libc.a(lib_a-atexit.o)
 .text.atexit   0x000000000000efdc       0x14 c:/intelfpga_lite/16.1/nios2eds/bin/gnu/h-x86_64-mingw32/bin/../lib/gcc/nios2-elf/5.3.0/../../../../../H-x86_64-mingw32/nios2-elf/lib/mhw-mulx\libc.a(lib_a-atexit.o)
                0x000000000000efdc                atexit
 .text          0x000000000000eff0        0x0 c:/intelfpga_lite/16.1/nios2eds/bin/gnu/h-x86_64-mingw32/bin/../lib/gcc/nios2-elf/5.3.0/../../../../../H-x86_64-mingw32/nios2-elf/lib/mhw-mulx\libc.a(lib_a-exit.o)
 .text.exit     0x000000000000eff0       0x38 c:/intelfpga_lite/16.1/nios2eds/bin/gnu/h-x86_64-mingw32/bin/../lib/gcc/nios2-elf/5.3.0/../../../../../H-x86_64-mingw32/nios2-elf/lib/mhw-mulx\libc.a(lib_a-exit.o)
                0x000000000000eff0                exit
 .text          0x000000000000f028        0x0 c:/intelfpga_lite/16.1/nios2eds/bin/gnu/h-x86_64-mingw32/bin/../lib/gcc/nios2-elf/5.3.0/../../../../../H-x86_64-mingw32/nios2-elf/lib/mhw-mulx\libc.a(lib_a-memcmp.o)
 .text.memcmp   0x000000000000f028       0x7c c:/intelfpga_lite/16.1/nios2eds/bin/gnu/h-x86_64-mingw32/bin/../lib/gcc/nios2-elf/5.3.0/../../../../../H-x86_64-mingw32/nios2-elf/lib/mhw-mulx\libc.a(lib_a-memcmp.o)
                0x000000000000f028                memcmp
 .text          0x000000000000f0a4        0x0 c:/intelfpga_lite/16.1/nios2eds/bin/gnu/h-x86_64-mingw32/bin/../lib/gcc/nios2-elf/5.3.0/../../../../../H-x86_64-mingw32/nios2-elf/lib/mhw-mulx\libc.a(lib_a-__atexit.o)
 .text.__register_exitproc
                0x000000000000f0a4      0x118 c:/intelfpga_lite/16.1/nios2eds/bin/gnu/h-x86_64-mingw32/bin/../lib/gcc/nios2-elf/5.3.0/../../../../../H-x86_64-mingw32/nios2-elf/lib/mhw-mulx\libc.a(lib_a-__atexit.o)
                0x000000000000f0a4                __register_exitproc
 .text          0x000000000000f1bc        0x0 c:/intelfpga_lite/16.1/nios2eds/bin/gnu/h-x86_64-mingw32/bin/../lib/gcc/nios2-elf/5.3.0/../../../../../H-x86_64-mingw32/nios2-elf/lib/mhw-mulx\libc.a(lib_a-__call_atexit.o)
 .text.__call_exitprocs
                0x000000000000f1bc      0x180 c:/intelfpga_lite/16.1/nios2eds/bin/gnu/h-x86_64-mingw32/bin/../lib/gcc/nios2-elf/5.3.0/../../../../../H-x86_64-mingw32/nios2-elf/lib/mhw-mulx\libc.a(lib_a-__call_atexit.o)
                0x000000000000f1bc                __call_exitprocs
 .text          0x000000000000f33c       0x34 C:/Users/Artee/Documents/ESAKBS2/nioseclipse_bsp/\libucosii_bsp.a(alt_exit.o)
                0x000000000000f33c                _exit
 *(.gnu.warning.*)
 *(.fini)
                [!provide]                        PROVIDE (__etext, ABSOLUTE (.))
                [!provide]                        PROVIDE (_etext, ABSOLUTE (.))
                [!provide]                        PROVIDE (etext, ABSOLUTE (.))
 *(.eh_frame_hdr)
                0x000000000000f370                . = ALIGN (0x4)
                [!provide]                        PROVIDE (__preinit_array_start, ABSOLUTE (.))
 *(.preinit_array)
                [!provide]                        PROVIDE (__preinit_array_end, ABSOLUTE (.))
                [!provide]                        PROVIDE (__init_array_start, ABSOLUTE (.))
 *(.init_array)
                [!provide]                        PROVIDE (__init_array_end, ABSOLUTE (.))
                [!provide]                        PROVIDE (__fini_array_start, ABSOLUTE (.))
 *(.fini_array)
                [!provide]                        PROVIDE (__fini_array_end, ABSOLUTE (.))
 *(.eh_frame)
 *(.gcc_except_table .gcc_except_table.*)
 *(.dynamic)
                0x000000000000f370                PROVIDE (__CTOR_LIST__, ABSOLUTE (.))
 *(.ctors)
 *(SORT(.ctors.*))
                0x000000000000f370                PROVIDE (__CTOR_END__, ABSOLUTE (.))
                0x000000000000f370                PROVIDE (__DTOR_LIST__, ABSOLUTE (.))
 *(.dtors)
 *(SORT(.dtors.*))
                0x000000000000f370                PROVIDE (__DTOR_END__, ABSOLUTE (.))
 *(.jcr)
                0x000000000000f370                . = ALIGN (0x4)

.rodata         0x000000000000f370      0x320
                0x000000000000f370                PROVIDE (__ram_rodata_start, ABSOLUTE (.))
                0x000000000000f370                . = ALIGN (0x4)
 *(.rodata .rodata.* .gnu.linkonce.r.*)
 .rodata        0x000000000000f370       0x25 obj/default/hello_ucosii.o
 *fill*         0x000000000000f395        0x3 
 .rodata.str1.4
                0x000000000000f398        0x2 c:/intelfpga_lite/16.1/nios2eds/bin/gnu/h-x86_64-mingw32/bin/../lib/gcc/nios2-elf/5.3.0/../../../../../H-x86_64-mingw32/nios2-elf/lib/mhw-mulx\libc.a(lib_a-puts.o)
 *fill*         0x000000000000f39a        0x2 
 .rodata.str1.4
                0x000000000000f39c        0x4 c:/intelfpga_lite/16.1/nios2eds/bin/gnu/h-x86_64-mingw32/bin/../lib/gcc/nios2-elf/5.3.0/../../../../../H-x86_64-mingw32/nios2-elf/lib/mhw-mulx\libc.a(lib_a-impure.o)
                                          0x2 (size before relaxing)
 .rodata        0x000000000000f3a0        0xa C:/Users/Artee/Documents/ESAKBS2/nioseclipse_bsp/\libucosii_bsp.a(alt_dev.o)
 *fill*         0x000000000000f3aa        0x2 
 .rodata        0x000000000000f3ac        0xf C:/Users/Artee/Documents/ESAKBS2/nioseclipse_bsp/\libucosii_bsp.a(alt_main.o)
 *fill*         0x000000000000f3bb        0x1 
 .rodata        0x000000000000f3bc      0x11e C:/Users/Artee/Documents/ESAKBS2/nioseclipse_bsp/\libucosii_bsp.a(os_core.o)
                0x000000000000f3bc                OSUnMapTbl
 *fill*         0x000000000000f4da        0x2 
 .rodata        0x000000000000f4dc      0x1ad C:/Users/Artee/Documents/ESAKBS2/nioseclipse_bsp/\libucosii_bsp.a(alt_sys_init.o)
 *fill*         0x000000000000f689        0x3 
 .rodata        0x000000000000f68c        0x2 C:/Users/Artee/Documents/ESAKBS2/nioseclipse_bsp/\libucosii_bsp.a(os_cpu_c.o)
 *(.rodata1)
                0x000000000000f690                . = ALIGN (0x4)
 *fill*         0x000000000000f68e        0x2 
                0x000000000000f690                PROVIDE (__ram_rodata_end, ABSOLUTE (.))
                0x000000000000f370                PROVIDE (__flash_rodata_start, LOADADDR (.rodata))

.rwdata         0x000000000000f690     0x1ee8 load address 0x0000000000011578
                0x000000000000f690                PROVIDE (__ram_rwdata_start, ABSOLUTE (.))
                0x000000000000f690                . = ALIGN (0x4)
 *(.got.plt)
 *(.got)
 *(.data1)
 *(.data .data.* .gnu.linkonce.d.*)
 .data          0x000000000000f690        0x0 C:/Users/Artee/Documents/ESAKBS2/nioseclipse_bsp//obj/HAL/src/crt0.o
 .data          0x000000000000f690        0x0 obj/default/hello_ucosii.o
 .data          0x000000000000f690        0x0 c:/intelfpga_lite/16.1/nios2eds/bin/gnu/h-x86_64-mingw32/bin/../lib/gcc/nios2-elf/5.3.0/../../../../../H-x86_64-mingw32/nios2-elf/lib/mhw-mulx\libc.a(lib_a-puts.o)
 .data          0x000000000000f690        0x0 c:/intelfpga_lite/16.1/nios2eds/bin/gnu/h-x86_64-mingw32/bin/../lib/gcc/nios2-elf/5.3.0/../../../../../H-x86_64-mingw32/nios2-elf/lib/mhw-mulx\libc.a(lib_a-strlen.o)
 .data          0x000000000000f690        0x0 c:/intelfpga_lite/16.1/nios2eds/bin/gnu/h-x86_64-mingw32/bin/../lib/gcc/nios2-elf/5.3.0/../../../../../H-x86_64-mingw32/nios2-elf/lib/mhw-mulx\libc.a(lib_a-findfp.o)
 .data          0x000000000000f690        0x0 c:/intelfpga_lite/16.1/nios2eds/bin/gnu/h-x86_64-mingw32/bin/../lib/gcc/nios2-elf/5.3.0/../../../../../H-x86_64-mingw32/nios2-elf/lib/mhw-mulx\libc.a(lib_a-fvwrite.o)
 .data          0x000000000000f690        0x0 c:/intelfpga_lite/16.1/nios2eds/bin/gnu/h-x86_64-mingw32/bin/../lib/gcc/nios2-elf/5.3.0/../../../../../H-x86_64-mingw32/nios2-elf/lib/mhw-mulx\libc.a(lib_a-fwalk.o)
 .data          0x000000000000f690        0x0 c:/intelfpga_lite/16.1/nios2eds/bin/gnu/h-x86_64-mingw32/bin/../lib/gcc/nios2-elf/5.3.0/../../../../../H-x86_64-mingw32/nios2-elf/lib/mhw-mulx\libc.a(lib_a-impure.o)
 .data.impure_data
                0x000000000000f690      0x424 c:/intelfpga_lite/16.1/nios2eds/bin/gnu/h-x86_64-mingw32/bin/../lib/gcc/nios2-elf/5.3.0/../../../../../H-x86_64-mingw32/nios2-elf/lib/mhw-mulx\libc.a(lib_a-impure.o)
 .data          0x000000000000fab4        0x0 c:/intelfpga_lite/16.1/nios2eds/bin/gnu/h-x86_64-mingw32/bin/../lib/gcc/nios2-elf/5.3.0/../../../../../H-x86_64-mingw32/nios2-elf/lib/mhw-mulx\libc.a(lib_a-mallocr.o)
 .data.__malloc_av_
                0x000000000000fab4      0x408 c:/intelfpga_lite/16.1/nios2eds/bin/gnu/h-x86_64-mingw32/bin/../lib/gcc/nios2-elf/5.3.0/../../../../../H-x86_64-mingw32/nios2-elf/lib/mhw-mulx\libc.a(lib_a-mallocr.o)
                0x000000000000fab4                __malloc_av_
 .data          0x000000000000febc        0x0 c:/intelfpga_lite/16.1/nios2eds/bin/gnu/h-x86_64-mingw32/bin/../lib/gcc/nios2-elf/5.3.0/../../../../../H-x86_64-mingw32/nios2-elf/lib/mhw-mulx\libc.a(lib_a-memchr.o)
 .data          0x000000000000febc        0x0 c:/intelfpga_lite/16.1/nios2eds/bin/gnu/h-x86_64-mingw32/bin/../lib/gcc/nios2-elf/5.3.0/../../../../../H-x86_64-mingw32/nios2-elf/lib/mhw-mulx\libc.a(lib_a-memcpy.o)
 .data          0x000000000000febc        0x0 c:/intelfpga_lite/16.1/nios2eds/bin/gnu/h-x86_64-mingw32/bin/../lib/gcc/nios2-elf/5.3.0/../../../../../H-x86_64-mingw32/nios2-elf/lib/mhw-mulx\libc.a(lib_a-memmove.o)
 .data          0x000000000000febc        0x0 c:/intelfpga_lite/16.1/nios2eds/bin/gnu/h-x86_64-mingw32/bin/../lib/gcc/nios2-elf/5.3.0/../../../../../H-x86_64-mingw32/nios2-elf/lib/mhw-mulx\libc.a(lib_a-memset.o)
 .data          0x000000000000febc        0x0 c:/intelfpga_lite/16.1/nios2eds/bin/gnu/h-x86_64-mingw32/bin/../lib/gcc/nios2-elf/5.3.0/../../../../../H-x86_64-mingw32/nios2-elf/lib/mhw-mulx\libc.a(lib_a-reallocr.o)
 .data          0x000000000000febc        0x0 c:/intelfpga_lite/16.1/nios2eds/bin/gnu/h-x86_64-mingw32/bin/../lib/gcc/nios2-elf/5.3.0/../../../../../H-x86_64-mingw32/nios2-elf/lib/mhw-mulx\libc.a(lib_a-sbrkr.o)
 .data          0x000000000000febc        0x0 c:/intelfpga_lite/16.1/nios2eds/bin/gnu/h-x86_64-mingw32/bin/../lib/gcc/nios2-elf/5.3.0/../../../../../H-x86_64-mingw32/nios2-elf/lib/mhw-mulx\libc.a(lib_a-stdio.o)
 .data          0x000000000000febc        0x0 c:/intelfpga_lite/16.1/nios2eds/bin/gnu/h-x86_64-mingw32/bin/../lib/gcc/nios2-elf/5.3.0/../../../../../H-x86_64-mingw32/nios2-elf/lib/mhw-mulx\libc.a(lib_a-writer.o)
 .data          0x000000000000febc        0x0 c:/intelfpga_lite/16.1/nios2eds/bin/gnu/h-x86_64-mingw32/bin/../lib/gcc/nios2-elf/5.3.0/../../../../../H-x86_64-mingw32/nios2-elf/lib/mhw-mulx\libc.a(lib_a-wsetup.o)
 .data          0x000000000000febc        0x0 c:/intelfpga_lite/16.1/nios2eds/bin/gnu/h-x86_64-mingw32/bin/../lib/gcc/nios2-elf/5.3.0/../../../../../H-x86_64-mingw32/nios2-elf/lib/mhw-mulx\libc.a(closer.o)
 .data          0x000000000000febc        0x0 c:/intelfpga_lite/16.1/nios2eds/bin/gnu/h-x86_64-mingw32/bin/../lib/gcc/nios2-elf/5.3.0/../../../../../H-x86_64-mingw32/nios2-elf/lib/mhw-mulx\libc.a(lib_a-fclose.o)
 .data          0x000000000000febc        0x0 c:/intelfpga_lite/16.1/nios2eds/bin/gnu/h-x86_64-mingw32/bin/../lib/gcc/nios2-elf/5.3.0/../../../../../H-x86_64-mingw32/nios2-elf/lib/mhw-mulx\libc.a(lib_a-fflush.o)
 .data          0x000000000000febc        0x0 c:/intelfpga_lite/16.1/nios2eds/bin/gnu/h-x86_64-mingw32/bin/../lib/gcc/nios2-elf/5.3.0/../../../../../H-x86_64-mingw32/nios2-elf/lib/mhw-mulx\libc.a(lib_a-freer.o)
 .data          0x000000000000febc        0x0 c:/intelfpga_lite/16.1/nios2eds/bin/gnu/h-x86_64-mingw32/bin/../lib/gcc/nios2-elf/5.3.0/../../../../../H-x86_64-mingw32/nios2-elf/lib/mhw-mulx\libc.a(lib_a-int_errno.o)
 .data          0x000000000000febc        0x0 c:/intelfpga_lite/16.1/nios2eds/bin/gnu/h-x86_64-mingw32/bin/../lib/gcc/nios2-elf/5.3.0/../../../../../H-x86_64-mingw32/nios2-elf/lib/mhw-mulx\libc.a(lib_a-lseekr.o)
 .data          0x000000000000febc        0x0 c:/intelfpga_lite/16.1/nios2eds/bin/gnu/h-x86_64-mingw32/bin/../lib/gcc/nios2-elf/5.3.0/../../../../../H-x86_64-mingw32/nios2-elf/lib/mhw-mulx\libc.a(lib_a-makebuf.o)
 .data          0x000000000000febc        0x0 c:/intelfpga_lite/16.1/nios2eds/bin/gnu/h-x86_64-mingw32/bin/../lib/gcc/nios2-elf/5.3.0/../../../../../H-x86_64-mingw32/nios2-elf/lib/mhw-mulx\libc.a(lib_a-readr.o)
 .data          0x000000000000febc        0x0 c:/intelfpga_lite/16.1/nios2eds/bin/gnu/h-x86_64-mingw32/bin/../lib/gcc/nios2-elf/5.3.0/../../../../../H-x86_64-mingw32/nios2-elf/lib/mhw-mulx\libc.a(lib_a-fstatr.o)
 .data          0x000000000000febc        0x0 c:/intelfpga_lite/16.1/nios2eds/bin/gnu/h-x86_64-mingw32/bin/../lib/gcc/nios2-elf/5.3.0/../../../../../H-x86_64-mingw32/nios2-elf/lib/mhw-mulx\libc.a(lib_a-isattyr.o)
 .data          0x000000000000febc        0x0 c:/intelfpga_lite/16.1/nios2eds/bin/gnu/h-x86_64-mingw32/bin/../lib/gcc/nios2-elf/5.3.0/mhw-mulx\libgcc.a(lib2-divmod.o)
 .data          0x000000000000febc        0x0 C:/Users/Artee/Documents/ESAKBS2/nioseclipse_bsp/\libucosii_bsp.a(alt_close.o)
 .data          0x000000000000febc      0x1a8 C:/Users/Artee/Documents/ESAKBS2/nioseclipse_bsp/\libucosii_bsp.a(alt_dev.o)
                0x000000000000febc                alt_dev_null
                0x000000000000fee4                alt_fd_list
 .data          0x0000000000010064        0x0 C:/Users/Artee/Documents/ESAKBS2/nioseclipse_bsp/\libucosii_bsp.a(alt_errno.o)
 .data          0x0000000000010064        0x0 C:/Users/Artee/Documents/ESAKBS2/nioseclipse_bsp/\libucosii_bsp.a(alt_fstat.o)
 .data          0x0000000000010064        0x0 C:/Users/Artee/Documents/ESAKBS2/nioseclipse_bsp/\libucosii_bsp.a(alt_isatty.o)
 .data          0x0000000000010064        0x0 C:/Users/Artee/Documents/ESAKBS2/nioseclipse_bsp/\libucosii_bsp.a(alt_load.o)
 .data          0x0000000000010064        0x0 C:/Users/Artee/Documents/ESAKBS2/nioseclipse_bsp/\libucosii_bsp.a(alt_lseek.o)
 .data          0x0000000000010064        0x0 C:/Users/Artee/Documents/ESAKBS2/nioseclipse_bsp/\libucosii_bsp.a(alt_main.o)
 .data          0x0000000000010064        0x0 C:/Users/Artee/Documents/ESAKBS2/nioseclipse_bsp/\libucosii_bsp.a(alt_read.o)
 .data          0x0000000000010064        0x0 C:/Users/Artee/Documents/ESAKBS2/nioseclipse_bsp/\libucosii_bsp.a(alt_release_fd.o)
 .data          0x0000000000010064        0x0 C:/Users/Artee/Documents/ESAKBS2/nioseclipse_bsp/\libucosii_bsp.a(alt_sbrk.o)
 .data          0x0000000000010064        0x0 C:/Users/Artee/Documents/ESAKBS2/nioseclipse_bsp/\libucosii_bsp.a(alt_write.o)
 .data          0x0000000000010064        0x0 C:/Users/Artee/Documents/ESAKBS2/nioseclipse_bsp/\libucosii_bsp.a(alt_env_lock.o)
 .data          0x0000000000010064        0x0 C:/Users/Artee/Documents/ESAKBS2/nioseclipse_bsp/\libucosii_bsp.a(alt_malloc_lock.o)
 .data          0x0000000000010064        0x0 C:/Users/Artee/Documents/ESAKBS2/nioseclipse_bsp/\libucosii_bsp.a(os_core.o)
 .data          0x0000000000010064        0x0 C:/Users/Artee/Documents/ESAKBS2/nioseclipse_bsp/\libucosii_bsp.a(os_dbg.o)
 .data          0x0000000000010064        0x0 C:/Users/Artee/Documents/ESAKBS2/nioseclipse_bsp/\libucosii_bsp.a(os_flag.o)
 .data          0x0000000000010064        0x0 C:/Users/Artee/Documents/ESAKBS2/nioseclipse_bsp/\libucosii_bsp.a(os_mem.o)
 .data          0x0000000000010064        0x0 C:/Users/Artee/Documents/ESAKBS2/nioseclipse_bsp/\libucosii_bsp.a(os_q.o)
 .data          0x0000000000010064        0x0 C:/Users/Artee/Documents/ESAKBS2/nioseclipse_bsp/\libucosii_bsp.a(os_sem.o)
 .data          0x0000000000010064        0x0 C:/Users/Artee/Documents/ESAKBS2/nioseclipse_bsp/\libucosii_bsp.a(os_task.o)
 .data          0x0000000000010064        0x0 C:/Users/Artee/Documents/ESAKBS2/nioseclipse_bsp/\libucosii_bsp.a(os_time.o)
 .data          0x0000000000010064     0x1460 C:/Users/Artee/Documents/ESAKBS2/nioseclipse_bsp/\libucosii_bsp.a(alt_sys_init.o)
 .data          0x00000000000114c4        0x0 C:/Users/Artee/Documents/ESAKBS2/nioseclipse_bsp/\libucosii_bsp.a(altera_avalon_jtag_uart_fd.o)
 .data          0x00000000000114c4        0x0 C:/Users/Artee/Documents/ESAKBS2/nioseclipse_bsp/\libucosii_bsp.a(altera_avalon_jtag_uart_init.o)
 .data          0x00000000000114c4        0x0 C:/Users/Artee/Documents/ESAKBS2/nioseclipse_bsp/\libucosii_bsp.a(altera_avalon_jtag_uart_ioctl.o)
 .data          0x00000000000114c4        0x0 C:/Users/Artee/Documents/ESAKBS2/nioseclipse_bsp/\libucosii_bsp.a(altera_avalon_jtag_uart_read.o)
 .data          0x00000000000114c4        0x0 C:/Users/Artee/Documents/ESAKBS2/nioseclipse_bsp/\libucosii_bsp.a(altera_avalon_jtag_uart_write.o)
 .data          0x00000000000114c4        0x0 C:/Users/Artee/Documents/ESAKBS2/nioseclipse_bsp/\libucosii_bsp.a(altera_avalon_timer_sc.o)
 .data          0x00000000000114c4        0x0 C:/Users/Artee/Documents/ESAKBS2/nioseclipse_bsp/\libucosii_bsp.a(altera_up_avalon_character_lcd.o)
 .data          0x00000000000114c4        0x0 C:/Users/Artee/Documents/ESAKBS2/nioseclipse_bsp/\libucosii_bsp.a(altera_up_avalon_irda.o)
 .data          0x00000000000114c4        0x0 C:/Users/Artee/Documents/ESAKBS2/nioseclipse_bsp/\libucosii_bsp.a(altera_up_avalon_ps2.o)
 .data          0x00000000000114c4        0x0 C:/Users/Artee/Documents/ESAKBS2/nioseclipse_bsp/\libucosii_bsp.a(altera_up_avalon_rs232.o)
 .data          0x00000000000114c4        0x0 C:/Users/Artee/Documents/ESAKBS2/nioseclipse_bsp/\libucosii_bsp.a(alt_alarm_start.o)
 .data          0x00000000000114c4        0x0 C:/Users/Artee/Documents/ESAKBS2/nioseclipse_bsp/\libucosii_bsp.a(alt_dcache_flush_all.o)
 .data          0x00000000000114c4        0x0 C:/Users/Artee/Documents/ESAKBS2/nioseclipse_bsp/\libucosii_bsp.a(alt_dev_llist_insert.o)
 .data          0x00000000000114c4        0x0 C:/Users/Artee/Documents/ESAKBS2/nioseclipse_bsp/\libucosii_bsp.a(alt_do_ctors.o)
 .data          0x00000000000114c4        0x0 C:/Users/Artee/Documents/ESAKBS2/nioseclipse_bsp/\libucosii_bsp.a(alt_do_dtors.o)
 .data          0x00000000000114c4        0x0 C:/Users/Artee/Documents/ESAKBS2/nioseclipse_bsp/\libucosii_bsp.a(alt_find_dev.o)
 .data          0x00000000000114c4        0x0 C:/Users/Artee/Documents/ESAKBS2/nioseclipse_bsp/\libucosii_bsp.a(alt_icache_flush_all.o)
 .data          0x00000000000114c4        0x0 C:/Users/Artee/Documents/ESAKBS2/nioseclipse_bsp/\libucosii_bsp.a(alt_io_redirect.o)
 .data          0x00000000000114c4        0x0 C:/Users/Artee/Documents/ESAKBS2/nioseclipse_bsp/\libucosii_bsp.a(alt_irq_register.o)
 .data          0x00000000000114c4        0x0 C:/Users/Artee/Documents/ESAKBS2/nioseclipse_bsp/\libucosii_bsp.a(alt_irq_vars.o)
 .data          0x00000000000114c4        0x0 C:/Users/Artee/Documents/ESAKBS2/nioseclipse_bsp/\libucosii_bsp.a(alt_open.o)
 .data          0x00000000000114c4        0x0 C:/Users/Artee/Documents/ESAKBS2/nioseclipse_bsp/\libucosii_bsp.a(alt_tick.o)
 .data          0x00000000000114c4        0x0 C:/Users/Artee/Documents/ESAKBS2/nioseclipse_bsp/\libucosii_bsp.a(altera_nios2_gen2_irq.o)
 .data          0x00000000000114c4        0x0 C:/Users/Artee/Documents/ESAKBS2/nioseclipse_bsp/\libucosii_bsp.a(os_cpu_a.o)
 .data          0x00000000000114c4        0x0 C:/Users/Artee/Documents/ESAKBS2/nioseclipse_bsp/\libucosii_bsp.a(os_cpu_c.o)
 .data          0x00000000000114c4        0x0 C:/Users/Artee/Documents/ESAKBS2/nioseclipse_bsp/\libucosii_bsp.a(alt_find_file.o)
 .data          0x00000000000114c4        0x0 C:/Users/Artee/Documents/ESAKBS2/nioseclipse_bsp/\libucosii_bsp.a(alt_get_fd.o)
 .data          0x00000000000114c4        0x0 C:/Users/Artee/Documents/ESAKBS2/nioseclipse_bsp/\libucosii_bsp.a(alt_icache_flush.o)
 .data          0x00000000000114c4        0x0 C:/Users/Artee/Documents/ESAKBS2/nioseclipse_bsp/\libucosii_bsp.a(alt_irq_entry.o)
 .data          0x00000000000114c4        0x0 C:/Users/Artee/Documents/ESAKBS2/nioseclipse_bsp/\libucosii_bsp.a(alt_irq_handler.o)
 .data          0x00000000000114c4        0x0 C:/Users/Artee/Documents/ESAKBS2/nioseclipse_bsp/\libucosii_bsp.a(alt_exception_entry.o)
 .data          0x00000000000114c4        0x0 C:/Users/Artee/Documents/ESAKBS2/nioseclipse_bsp/\libucosii_bsp.a(alt_instruction_exception_entry.o)
 .data          0x00000000000114c4        0x0 c:/intelfpga_lite/16.1/nios2eds/bin/gnu/h-x86_64-mingw32/bin/../lib/gcc/nios2-elf/5.3.0/../../../../../H-x86_64-mingw32/nios2-elf/lib/mhw-mulx\libc.a(lib_a-atexit.o)
 .data          0x00000000000114c4        0x0 c:/intelfpga_lite/16.1/nios2eds/bin/gnu/h-x86_64-mingw32/bin/../lib/gcc/nios2-elf/5.3.0/../../../../../H-x86_64-mingw32/nios2-elf/lib/mhw-mulx\libc.a(lib_a-exit.o)
 .data          0x00000000000114c4        0x0 c:/intelfpga_lite/16.1/nios2eds/bin/gnu/h-x86_64-mingw32/bin/../lib/gcc/nios2-elf/5.3.0/../../../../../H-x86_64-mingw32/nios2-elf/lib/mhw-mulx\libc.a(lib_a-memcmp.o)
 .data          0x00000000000114c4        0x0 c:/intelfpga_lite/16.1/nios2eds/bin/gnu/h-x86_64-mingw32/bin/../lib/gcc/nios2-elf/5.3.0/../../../../../H-x86_64-mingw32/nios2-elf/lib/mhw-mulx\libc.a(lib_a-__atexit.o)
 .data          0x00000000000114c4        0x0 c:/intelfpga_lite/16.1/nios2eds/bin/gnu/h-x86_64-mingw32/bin/../lib/gcc/nios2-elf/5.3.0/../../../../../H-x86_64-mingw32/nios2-elf/lib/mhw-mulx\libc.a(lib_a-__call_atexit.o)
 .data          0x00000000000114c4        0x0 C:/Users/Artee/Documents/ESAKBS2/nioseclipse_bsp/\libucosii_bsp.a(alt_exit.o)
                0x00000000000194c4                _gp = ABSOLUTE ((. + 0x8000))
                [!provide]                        PROVIDE (gp, _gp)
 *(.rwdata .rwdata.*)
 *(.sdata .sdata.* .gnu.linkonce.s.*)
 .sdata._global_impure_ptr
                0x00000000000114c4        0x4 c:/intelfpga_lite/16.1/nios2eds/bin/gnu/h-x86_64-mingw32/bin/../lib/gcc/nios2-elf/5.3.0/../../../../../H-x86_64-mingw32/nios2-elf/lib/mhw-mulx\libc.a(lib_a-impure.o)
                0x00000000000114c4                _global_impure_ptr
 .sdata._impure_ptr
                0x00000000000114c8        0x4 c:/intelfpga_lite/16.1/nios2eds/bin/gnu/h-x86_64-mingw32/bin/../lib/gcc/nios2-elf/5.3.0/../../../../../H-x86_64-mingw32/nios2-elf/lib/mhw-mulx\libc.a(lib_a-impure.o)
                0x00000000000114c8                _impure_ptr
 .sdata.__malloc_sbrk_base
                0x00000000000114cc        0x4 c:/intelfpga_lite/16.1/nios2eds/bin/gnu/h-x86_64-mingw32/bin/../lib/gcc/nios2-elf/5.3.0/../../../../../H-x86_64-mingw32/nios2-elf/lib/mhw-mulx\libc.a(lib_a-mallocr.o)
                0x00000000000114cc                __malloc_sbrk_base
 .sdata.__malloc_trim_threshold
                0x00000000000114d0        0x4 c:/intelfpga_lite/16.1/nios2eds/bin/gnu/h-x86_64-mingw32/bin/../lib/gcc/nios2-elf/5.3.0/../../../../../H-x86_64-mingw32/nios2-elf/lib/mhw-mulx\libc.a(lib_a-mallocr.o)
                0x00000000000114d0                __malloc_trim_threshold
 .sdata         0x00000000000114d4       0x14 C:/Users/Artee/Documents/ESAKBS2/nioseclipse_bsp/\libucosii_bsp.a(alt_dev.o)
                0x00000000000114d4                alt_fs_list
                0x00000000000114dc                alt_dev_list
                0x00000000000114e4                alt_max_fd
 .sdata         0x00000000000114e8        0x4 C:/Users/Artee/Documents/ESAKBS2/nioseclipse_bsp/\libucosii_bsp.a(alt_errno.o)
                0x00000000000114e8                alt_errno
 .sdata         0x00000000000114ec        0x4 C:/Users/Artee/Documents/ESAKBS2/nioseclipse_bsp/\libucosii_bsp.a(alt_sbrk.o)
 .sdata         0x00000000000114f0        0x4 C:/Users/Artee/Documents/ESAKBS2/nioseclipse_bsp/\libucosii_bsp.a(alt_env_lock.o)
 .sdata         0x00000000000114f4        0x4 C:/Users/Artee/Documents/ESAKBS2/nioseclipse_bsp/\libucosii_bsp.a(alt_malloc_lock.o)
 .sdata         0x00000000000114f8       0x72 C:/Users/Artee/Documents/ESAKBS2/nioseclipse_bsp/\libucosii_bsp.a(os_dbg.o)
                0x00000000000114f8                OSDebugEn
                0x00000000000114fc                OSEndiannessTest
                0x0000000000011500                OSEventEn
                0x0000000000011502                OSEventMax
                0x0000000000011504                OSEventNameSize
                0x0000000000011506                OSEventSize
                0x0000000000011508                OSEventTblSize
                0x000000000001150a                OSEventMultiEn
                0x000000000001150c                OSFlagEn
                0x000000000001150e                OSFlagGrpSize
                0x0000000000011510                OSFlagNodeSize
                0x0000000000011512                OSFlagWidth
                0x0000000000011514                OSFlagMax
                0x0000000000011516                OSFlagNameSize
                0x0000000000011518                OSLowestPrio
                0x000000000001151a                OSMboxEn
                0x000000000001151c                OSMemEn
                0x000000000001151e                OSMemMax
                0x0000000000011520                OSMemNameSize
                0x0000000000011522                OSMemSize
                0x0000000000011524                OSMemTblSize
                0x0000000000011526                OSMutexEn
                0x0000000000011528                OSPtrSize
                0x000000000001152a                OSQEn
                0x000000000001152c                OSQMax
                0x000000000001152e                OSQSize
                0x0000000000011530                OSRdyTblSize
                0x0000000000011532                OSSemEn
                0x0000000000011534                OSStkWidth
                0x0000000000011536                OSTaskCreateEn
                0x0000000000011538                OSTaskCreateExtEn
                0x000000000001153a                OSTaskDelEn
                0x000000000001153c                OSTaskIdleStkSize
                0x000000000001153e                OSTaskProfileEn
                0x0000000000011540                OSTaskMax
                0x0000000000011542                OSTaskNameSize
                0x0000000000011544                OSTaskStatEn
                0x0000000000011546                OSTaskStatStkSize
                0x0000000000011548                OSTaskStatStkChkEn
                0x000000000001154a                OSTaskSwHookEn
                0x000000000001154c                OSTCBPrioTblMax
                0x000000000001154e                OSTCBSize
                0x0000000000011550                OSTicksPerSec
                0x0000000000011552                OSTimeTickHookEn
                0x0000000000011554                OSVersionNbr
                0x0000000000011556                OSTmrEn
                0x0000000000011558                OSTmrCfgMax
                0x000000000001155a                OSTmrCfgNameSize
                0x000000000001155c                OSTmrCfgWheelSize
                0x000000000001155e                OSTmrCfgTicksPerSec
                0x0000000000011560                OSTmrSize
                0x0000000000011562                OSTmrTblSize
                0x0000000000011564                OSTmrWheelSize
                0x0000000000011566                OSTmrWheelTblSize
                0x0000000000011568                OSDataSize
 *fill*         0x000000000001156a        0x2 
 .sdata         0x000000000001156c        0x4 C:/Users/Artee/Documents/ESAKBS2/nioseclipse_bsp/\libucosii_bsp.a(alt_irq_vars.o)
                0x000000000001156c                alt_priority_mask
 .sdata         0x0000000000011570        0x8 C:/Users/Artee/Documents/ESAKBS2/nioseclipse_bsp/\libucosii_bsp.a(alt_tick.o)
                0x0000000000011570                alt_alarm_list
 *(.sdata2 .sdata2.* .gnu.linkonce.s2.*)
                0x0000000000011578                . = ALIGN (0x4)
                0x0000000000011578                _edata = ABSOLUTE (.)
                [!provide]                        PROVIDE (edata, ABSOLUTE (.))
                0x0000000000011578                PROVIDE (__ram_rwdata_end, ABSOLUTE (.))
                0x0000000000011578                PROVIDE (__flash_rwdata_start, LOADADDR (.rwdata))

.bss            0x0000000000013460     0x73dc
                0x0000000000013460                __bss_start = ABSOLUTE (.)
                [!provide]                        PROVIDE (__sbss_start, ABSOLUTE (.))
                [!provide]                        PROVIDE (___sbss_start, ABSOLUTE (.))
 *(.dynsbss)
 *(.sbss .sbss.* .gnu.linkonce.sb.*)
 .sbss.__malloc_max_total_mem
                0x0000000000013460        0x4 c:/intelfpga_lite/16.1/nios2eds/bin/gnu/h-x86_64-mingw32/bin/../lib/gcc/nios2-elf/5.3.0/../../../../../H-x86_64-mingw32/nios2-elf/lib/mhw-mulx\libc.a(lib_a-mallocr.o)
                0x0000000000013460                __malloc_max_total_mem
 .sbss.__malloc_max_sbrked_mem
                0x0000000000013464        0x4 c:/intelfpga_lite/16.1/nios2eds/bin/gnu/h-x86_64-mingw32/bin/../lib/gcc/nios2-elf/5.3.0/../../../../../H-x86_64-mingw32/nios2-elf/lib/mhw-mulx\libc.a(lib_a-mallocr.o)
                0x0000000000013464                __malloc_max_sbrked_mem
 .sbss.__malloc_top_pad
                0x0000000000013468        0x4 c:/intelfpga_lite/16.1/nios2eds/bin/gnu/h-x86_64-mingw32/bin/../lib/gcc/nios2-elf/5.3.0/../../../../../H-x86_64-mingw32/nios2-elf/lib/mhw-mulx\libc.a(lib_a-mallocr.o)
                0x0000000000013468                __malloc_top_pad
 .sbss          0x000000000001346c        0x4 c:/intelfpga_lite/16.1/nios2eds/bin/gnu/h-x86_64-mingw32/bin/../lib/gcc/nios2-elf/5.3.0/../../../../../H-x86_64-mingw32/nios2-elf/lib/mhw-mulx\libc.a(lib_a-int_errno.o)
                0x000000000001346c                errno
 .sbss          0x0000000000013470        0x4 C:/Users/Artee/Documents/ESAKBS2/nioseclipse_bsp/\libucosii_bsp.a(alt_dev.o)
                0x0000000000013470                alt_fd_list_lock
 .sbss          0x0000000000013474        0xc C:/Users/Artee/Documents/ESAKBS2/nioseclipse_bsp/\libucosii_bsp.a(alt_main.o)
                0x0000000000013474                alt_argc
                0x0000000000013478                alt_argv
                0x000000000001347c                alt_envp
 .sbss          0x0000000000013480        0x8 C:/Users/Artee/Documents/ESAKBS2/nioseclipse_bsp/\libucosii_bsp.a(alt_env_lock.o)
                0x0000000000013484                alt_envsem
 .sbss          0x0000000000013488        0x8 C:/Users/Artee/Documents/ESAKBS2/nioseclipse_bsp/\libucosii_bsp.a(alt_malloc_lock.o)
                0x000000000001348c                alt_heapsem
 .sbss          0x0000000000013490       0x50 C:/Users/Artee/Documents/ESAKBS2/nioseclipse_bsp/\libucosii_bsp.a(os_core.o)
                0x0000000000013490                OSLockNesting
                0x0000000000013491                OSRunning
                0x0000000000013494                OSIdleCtr
                0x0000000000013498                OSPrioHighRdy
                0x0000000000013499                OSPrioCur
                0x000000000001349c                OSTCBList
                0x00000000000134a0                OSTickStepState
                0x00000000000134a4                OSCtxSwCtr
                0x00000000000134a8                OSIdleCtrMax
                0x00000000000134ac                OSTCBFreeList
                0x00000000000134b0                OSCPUUsage
                0x00000000000134b1                OSTaskCtr
                0x00000000000134b4                OSMemFreeList
                0x00000000000134b8                OSTCBHighRdy
                0x00000000000134bc                OSQFreeList
                0x00000000000134c0                OSRdyGrp
                0x00000000000134c1                OSRdyTbl
                0x00000000000134c4                OSEventFreeList
                0x00000000000134c8                OSIntNesting
                0x00000000000134cc                OSTCBCur
                0x00000000000134d0                OSTime
                0x00000000000134d4                OSFlagFreeList
                0x00000000000134d8                OSStatRdy
                0x00000000000134dc                OSIdleCtrRun
 .sbss          0x00000000000134e0        0x4 C:/Users/Artee/Documents/ESAKBS2/nioseclipse_bsp/\libucosii_bsp.a(alt_irq_vars.o)
                0x00000000000134e0                alt_irq_active
 .sbss          0x00000000000134e4        0x8 C:/Users/Artee/Documents/ESAKBS2/nioseclipse_bsp/\libucosii_bsp.a(alt_tick.o)
                0x00000000000134e4                _alt_tick_rate
                0x00000000000134e8                _alt_nticks
 .sbss          0x00000000000134ec        0x4 C:/Users/Artee/Documents/ESAKBS2/nioseclipse_bsp/\libucosii_bsp.a(alt_instruction_exception_entry.o)
                0x00000000000134ec                alt_instruction_exception_handler
 *(.sbss2 .sbss2.* .gnu.linkonce.sb2.*)
 *(.scommon)
                [!provide]                        PROVIDE (__sbss_end, ABSOLUTE (.))
                [!provide]                        PROVIDE (___sbss_end, ABSOLUTE (.))
 *(.dynbss)
 *(.bss .bss.* .gnu.linkonce.b.*)
 .bss           0x00000000000134f0        0x0 C:/Users/Artee/Documents/ESAKBS2/nioseclipse_bsp//obj/HAL/src/crt0.o
 .bss           0x00000000000134f0        0x0 obj/default/hello_ucosii.o
 .bss           0x00000000000134f0        0x0 c:/intelfpga_lite/16.1/nios2eds/bin/gnu/h-x86_64-mingw32/bin/../lib/gcc/nios2-elf/5.3.0/../../../../../H-x86_64-mingw32/nios2-elf/lib/mhw-mulx\libc.a(lib_a-puts.o)
 .bss           0x00000000000134f0        0x0 c:/intelfpga_lite/16.1/nios2eds/bin/gnu/h-x86_64-mingw32/bin/../lib/gcc/nios2-elf/5.3.0/../../../../../H-x86_64-mingw32/nios2-elf/lib/mhw-mulx\libc.a(lib_a-strlen.o)
 .bss           0x00000000000134f0        0x0 c:/intelfpga_lite/16.1/nios2eds/bin/gnu/h-x86_64-mingw32/bin/../lib/gcc/nios2-elf/5.3.0/../../../../../H-x86_64-mingw32/nios2-elf/lib/mhw-mulx\libc.a(lib_a-findfp.o)
 .bss           0x00000000000134f0        0x0 c:/intelfpga_lite/16.1/nios2eds/bin/gnu/h-x86_64-mingw32/bin/../lib/gcc/nios2-elf/5.3.0/../../../../../H-x86_64-mingw32/nios2-elf/lib/mhw-mulx\libc.a(lib_a-fvwrite.o)
 .bss           0x00000000000134f0        0x0 c:/intelfpga_lite/16.1/nios2eds/bin/gnu/h-x86_64-mingw32/bin/../lib/gcc/nios2-elf/5.3.0/../../../../../H-x86_64-mingw32/nios2-elf/lib/mhw-mulx\libc.a(lib_a-fwalk.o)
 .bss           0x00000000000134f0        0x0 c:/intelfpga_lite/16.1/nios2eds/bin/gnu/h-x86_64-mingw32/bin/../lib/gcc/nios2-elf/5.3.0/../../../../../H-x86_64-mingw32/nios2-elf/lib/mhw-mulx\libc.a(lib_a-impure.o)
 .bss           0x00000000000134f0        0x0 c:/intelfpga_lite/16.1/nios2eds/bin/gnu/h-x86_64-mingw32/bin/../lib/gcc/nios2-elf/5.3.0/../../../../../H-x86_64-mingw32/nios2-elf/lib/mhw-mulx\libc.a(lib_a-mallocr.o)
 .bss.__malloc_current_mallinfo
                0x00000000000134f0       0x28 c:/intelfpga_lite/16.1/nios2eds/bin/gnu/h-x86_64-mingw32/bin/../lib/gcc/nios2-elf/5.3.0/../../../../../H-x86_64-mingw32/nios2-elf/lib/mhw-mulx\libc.a(lib_a-mallocr.o)
                0x00000000000134f0                __malloc_current_mallinfo
 .bss           0x0000000000013518        0x0 c:/intelfpga_lite/16.1/nios2eds/bin/gnu/h-x86_64-mingw32/bin/../lib/gcc/nios2-elf/5.3.0/../../../../../H-x86_64-mingw32/nios2-elf/lib/mhw-mulx\libc.a(lib_a-memchr.o)
 .bss           0x0000000000013518        0x0 c:/intelfpga_lite/16.1/nios2eds/bin/gnu/h-x86_64-mingw32/bin/../lib/gcc/nios2-elf/5.3.0/../../../../../H-x86_64-mingw32/nios2-elf/lib/mhw-mulx\libc.a(lib_a-memcpy.o)
 .bss           0x0000000000013518        0x0 c:/intelfpga_lite/16.1/nios2eds/bin/gnu/h-x86_64-mingw32/bin/../lib/gcc/nios2-elf/5.3.0/../../../../../H-x86_64-mingw32/nios2-elf/lib/mhw-mulx\libc.a(lib_a-memmove.o)
 .bss           0x0000000000013518        0x0 c:/intelfpga_lite/16.1/nios2eds/bin/gnu/h-x86_64-mingw32/bin/../lib/gcc/nios2-elf/5.3.0/../../../../../H-x86_64-mingw32/nios2-elf/lib/mhw-mulx\libc.a(lib_a-memset.o)
 .bss           0x0000000000013518        0x0 c:/intelfpga_lite/16.1/nios2eds/bin/gnu/h-x86_64-mingw32/bin/../lib/gcc/nios2-elf/5.3.0/../../../../../H-x86_64-mingw32/nios2-elf/lib/mhw-mulx\libc.a(lib_a-reallocr.o)
 .bss           0x0000000000013518        0x0 c:/intelfpga_lite/16.1/nios2eds/bin/gnu/h-x86_64-mingw32/bin/../lib/gcc/nios2-elf/5.3.0/../../../../../H-x86_64-mingw32/nios2-elf/lib/mhw-mulx\libc.a(lib_a-sbrkr.o)
 .bss           0x0000000000013518        0x0 c:/intelfpga_lite/16.1/nios2eds/bin/gnu/h-x86_64-mingw32/bin/../lib/gcc/nios2-elf/5.3.0/../../../../../H-x86_64-mingw32/nios2-elf/lib/mhw-mulx\libc.a(lib_a-stdio.o)
 .bss           0x0000000000013518        0x0 c:/intelfpga_lite/16.1/nios2eds/bin/gnu/h-x86_64-mingw32/bin/../lib/gcc/nios2-elf/5.3.0/../../../../../H-x86_64-mingw32/nios2-elf/lib/mhw-mulx\libc.a(lib_a-writer.o)
 .bss           0x0000000000013518        0x0 c:/intelfpga_lite/16.1/nios2eds/bin/gnu/h-x86_64-mingw32/bin/../lib/gcc/nios2-elf/5.3.0/../../../../../H-x86_64-mingw32/nios2-elf/lib/mhw-mulx\libc.a(lib_a-wsetup.o)
 .bss           0x0000000000013518        0x0 c:/intelfpga_lite/16.1/nios2eds/bin/gnu/h-x86_64-mingw32/bin/../lib/gcc/nios2-elf/5.3.0/../../../../../H-x86_64-mingw32/nios2-elf/lib/mhw-mulx\libc.a(closer.o)
 .bss           0x0000000000013518        0x0 c:/intelfpga_lite/16.1/nios2eds/bin/gnu/h-x86_64-mingw32/bin/../lib/gcc/nios2-elf/5.3.0/../../../../../H-x86_64-mingw32/nios2-elf/lib/mhw-mulx\libc.a(lib_a-fclose.o)
 .bss           0x0000000000013518        0x0 c:/intelfpga_lite/16.1/nios2eds/bin/gnu/h-x86_64-mingw32/bin/../lib/gcc/nios2-elf/5.3.0/../../../../../H-x86_64-mingw32/nios2-elf/lib/mhw-mulx\libc.a(lib_a-fflush.o)
 .bss           0x0000000000013518        0x0 c:/intelfpga_lite/16.1/nios2eds/bin/gnu/h-x86_64-mingw32/bin/../lib/gcc/nios2-elf/5.3.0/../../../../../H-x86_64-mingw32/nios2-elf/lib/mhw-mulx\libc.a(lib_a-freer.o)
 .bss           0x0000000000013518        0x0 c:/intelfpga_lite/16.1/nios2eds/bin/gnu/h-x86_64-mingw32/bin/../lib/gcc/nios2-elf/5.3.0/../../../../../H-x86_64-mingw32/nios2-elf/lib/mhw-mulx\libc.a(lib_a-int_errno.o)
 .bss           0x0000000000013518        0x0 c:/intelfpga_lite/16.1/nios2eds/bin/gnu/h-x86_64-mingw32/bin/../lib/gcc/nios2-elf/5.3.0/../../../../../H-x86_64-mingw32/nios2-elf/lib/mhw-mulx\libc.a(lib_a-lseekr.o)
 .bss           0x0000000000013518        0x0 c:/intelfpga_lite/16.1/nios2eds/bin/gnu/h-x86_64-mingw32/bin/../lib/gcc/nios2-elf/5.3.0/../../../../../H-x86_64-mingw32/nios2-elf/lib/mhw-mulx\libc.a(lib_a-makebuf.o)
 .bss           0x0000000000013518        0x0 c:/intelfpga_lite/16.1/nios2eds/bin/gnu/h-x86_64-mingw32/bin/../lib/gcc/nios2-elf/5.3.0/../../../../../H-x86_64-mingw32/nios2-elf/lib/mhw-mulx\libc.a(lib_a-readr.o)
 .bss           0x0000000000013518        0x0 c:/intelfpga_lite/16.1/nios2eds/bin/gnu/h-x86_64-mingw32/bin/../lib/gcc/nios2-elf/5.3.0/../../../../../H-x86_64-mingw32/nios2-elf/lib/mhw-mulx\libc.a(lib_a-fstatr.o)
 .bss           0x0000000000013518        0x0 c:/intelfpga_lite/16.1/nios2eds/bin/gnu/h-x86_64-mingw32/bin/../lib/gcc/nios2-elf/5.3.0/../../../../../H-x86_64-mingw32/nios2-elf/lib/mhw-mulx\libc.a(lib_a-isattyr.o)
 .bss           0x0000000000013518        0x0 c:/intelfpga_lite/16.1/nios2eds/bin/gnu/h-x86_64-mingw32/bin/../lib/gcc/nios2-elf/5.3.0/mhw-mulx\libgcc.a(lib2-divmod.o)
 .bss           0x0000000000013518        0x0 C:/Users/Artee/Documents/ESAKBS2/nioseclipse_bsp/\libucosii_bsp.a(alt_close.o)
 .bss           0x0000000000013518        0x0 C:/Users/Artee/Documents/ESAKBS2/nioseclipse_bsp/\libucosii_bsp.a(alt_dev.o)
 .bss           0x0000000000013518        0x0 C:/Users/Artee/Documents/ESAKBS2/nioseclipse_bsp/\libucosii_bsp.a(alt_errno.o)
 .bss           0x0000000000013518        0x0 C:/Users/Artee/Documents/ESAKBS2/nioseclipse_bsp/\libucosii_bsp.a(alt_fstat.o)
 .bss           0x0000000000013518        0x0 C:/Users/Artee/Documents/ESAKBS2/nioseclipse_bsp/\libucosii_bsp.a(alt_isatty.o)
 .bss           0x0000000000013518        0x0 C:/Users/Artee/Documents/ESAKBS2/nioseclipse_bsp/\libucosii_bsp.a(alt_load.o)
 .bss           0x0000000000013518        0x0 C:/Users/Artee/Documents/ESAKBS2/nioseclipse_bsp/\libucosii_bsp.a(alt_lseek.o)
 .bss           0x0000000000013518        0x0 C:/Users/Artee/Documents/ESAKBS2/nioseclipse_bsp/\libucosii_bsp.a(alt_main.o)
 .bss           0x0000000000013518        0x0 C:/Users/Artee/Documents/ESAKBS2/nioseclipse_bsp/\libucosii_bsp.a(alt_read.o)
 .bss           0x0000000000013518        0x0 C:/Users/Artee/Documents/ESAKBS2/nioseclipse_bsp/\libucosii_bsp.a(alt_release_fd.o)
 .bss           0x0000000000013518        0x0 C:/Users/Artee/Documents/ESAKBS2/nioseclipse_bsp/\libucosii_bsp.a(alt_sbrk.o)
 .bss           0x0000000000013518        0x0 C:/Users/Artee/Documents/ESAKBS2/nioseclipse_bsp/\libucosii_bsp.a(alt_write.o)
 .bss           0x0000000000013518        0x0 C:/Users/Artee/Documents/ESAKBS2/nioseclipse_bsp/\libucosii_bsp.a(alt_env_lock.o)
 .bss           0x0000000000013518        0x0 C:/Users/Artee/Documents/ESAKBS2/nioseclipse_bsp/\libucosii_bsp.a(alt_malloc_lock.o)
 .bss           0x0000000000013518        0x0 C:/Users/Artee/Documents/ESAKBS2/nioseclipse_bsp/\libucosii_bsp.a(os_core.o)
 .bss           0x0000000000013518        0x0 C:/Users/Artee/Documents/ESAKBS2/nioseclipse_bsp/\libucosii_bsp.a(os_dbg.o)
 .bss           0x0000000000013518        0x0 C:/Users/Artee/Documents/ESAKBS2/nioseclipse_bsp/\libucosii_bsp.a(os_flag.o)
 .bss           0x0000000000013518        0x0 C:/Users/Artee/Documents/ESAKBS2/nioseclipse_bsp/\libucosii_bsp.a(os_mem.o)
 .bss           0x0000000000013518        0x0 C:/Users/Artee/Documents/ESAKBS2/nioseclipse_bsp/\libucosii_bsp.a(os_q.o)
 .bss           0x0000000000013518        0x0 C:/Users/Artee/Documents/ESAKBS2/nioseclipse_bsp/\libucosii_bsp.a(os_sem.o)
 .bss           0x0000000000013518        0x0 C:/Users/Artee/Documents/ESAKBS2/nioseclipse_bsp/\libucosii_bsp.a(os_task.o)
 .bss           0x0000000000013518        0x0 C:/Users/Artee/Documents/ESAKBS2/nioseclipse_bsp/\libucosii_bsp.a(os_time.o)
 .bss           0x0000000000013518        0x0 C:/Users/Artee/Documents/ESAKBS2/nioseclipse_bsp/\libucosii_bsp.a(alt_sys_init.o)
 .bss           0x0000000000013518        0x0 C:/Users/Artee/Documents/ESAKBS2/nioseclipse_bsp/\libucosii_bsp.a(altera_avalon_jtag_uart_fd.o)
 .bss           0x0000000000013518        0x0 C:/Users/Artee/Documents/ESAKBS2/nioseclipse_bsp/\libucosii_bsp.a(altera_avalon_jtag_uart_init.o)
 .bss           0x0000000000013518        0x0 C:/Users/Artee/Documents/ESAKBS2/nioseclipse_bsp/\libucosii_bsp.a(altera_avalon_jtag_uart_ioctl.o)
 .bss           0x0000000000013518        0x0 C:/Users/Artee/Documents/ESAKBS2/nioseclipse_bsp/\libucosii_bsp.a(altera_avalon_jtag_uart_read.o)
 .bss           0x0000000000013518        0x0 C:/Users/Artee/Documents/ESAKBS2/nioseclipse_bsp/\libucosii_bsp.a(altera_avalon_jtag_uart_write.o)
 .bss           0x0000000000013518        0x0 C:/Users/Artee/Documents/ESAKBS2/nioseclipse_bsp/\libucosii_bsp.a(altera_avalon_timer_sc.o)
 .bss           0x0000000000013518        0x0 C:/Users/Artee/Documents/ESAKBS2/nioseclipse_bsp/\libucosii_bsp.a(altera_up_avalon_character_lcd.o)
 .bss           0x0000000000013518        0x0 C:/Users/Artee/Documents/ESAKBS2/nioseclipse_bsp/\libucosii_bsp.a(altera_up_avalon_irda.o)
 .bss           0x0000000000013518        0x0 C:/Users/Artee/Documents/ESAKBS2/nioseclipse_bsp/\libucosii_bsp.a(altera_up_avalon_ps2.o)
 .bss           0x0000000000013518        0x0 C:/Users/Artee/Documents/ESAKBS2/nioseclipse_bsp/\libucosii_bsp.a(altera_up_avalon_rs232.o)
 .bss           0x0000000000013518        0x0 C:/Users/Artee/Documents/ESAKBS2/nioseclipse_bsp/\libucosii_bsp.a(alt_alarm_start.o)
 .bss           0x0000000000013518        0x0 C:/Users/Artee/Documents/ESAKBS2/nioseclipse_bsp/\libucosii_bsp.a(alt_dcache_flush_all.o)
 .bss           0x0000000000013518        0x0 C:/Users/Artee/Documents/ESAKBS2/nioseclipse_bsp/\libucosii_bsp.a(alt_dev_llist_insert.o)
 .bss           0x0000000000013518        0x0 C:/Users/Artee/Documents/ESAKBS2/nioseclipse_bsp/\libucosii_bsp.a(alt_do_ctors.o)
 .bss           0x0000000000013518        0x0 C:/Users/Artee/Documents/ESAKBS2/nioseclipse_bsp/\libucosii_bsp.a(alt_do_dtors.o)
 .bss           0x0000000000013518        0x0 C:/Users/Artee/Documents/ESAKBS2/nioseclipse_bsp/\libucosii_bsp.a(alt_find_dev.o)
 .bss           0x0000000000013518        0x0 C:/Users/Artee/Documents/ESAKBS2/nioseclipse_bsp/\libucosii_bsp.a(alt_icache_flush_all.o)
 .bss           0x0000000000013518        0x0 C:/Users/Artee/Documents/ESAKBS2/nioseclipse_bsp/\libucosii_bsp.a(alt_io_redirect.o)
 .bss           0x0000000000013518        0x0 C:/Users/Artee/Documents/ESAKBS2/nioseclipse_bsp/\libucosii_bsp.a(alt_irq_register.o)
 .bss           0x0000000000013518        0x0 C:/Users/Artee/Documents/ESAKBS2/nioseclipse_bsp/\libucosii_bsp.a(alt_irq_vars.o)
 .bss           0x0000000000013518        0x0 C:/Users/Artee/Documents/ESAKBS2/nioseclipse_bsp/\libucosii_bsp.a(alt_open.o)
 .bss           0x0000000000013518        0x0 C:/Users/Artee/Documents/ESAKBS2/nioseclipse_bsp/\libucosii_bsp.a(alt_tick.o)
 .bss           0x0000000000013518        0x0 C:/Users/Artee/Documents/ESAKBS2/nioseclipse_bsp/\libucosii_bsp.a(altera_nios2_gen2_irq.o)
 .bss           0x0000000000013518        0x0 C:/Users/Artee/Documents/ESAKBS2/nioseclipse_bsp/\libucosii_bsp.a(os_cpu_a.o)
 .bss           0x0000000000013518        0x0 C:/Users/Artee/Documents/ESAKBS2/nioseclipse_bsp/\libucosii_bsp.a(os_cpu_c.o)
 .bss           0x0000000000013518        0x0 C:/Users/Artee/Documents/ESAKBS2/nioseclipse_bsp/\libucosii_bsp.a(alt_find_file.o)
 .bss           0x0000000000013518        0x0 C:/Users/Artee/Documents/ESAKBS2/nioseclipse_bsp/\libucosii_bsp.a(alt_get_fd.o)
 .bss           0x0000000000013518        0x0 C:/Users/Artee/Documents/ESAKBS2/nioseclipse_bsp/\libucosii_bsp.a(alt_icache_flush.o)
 .bss           0x0000000000013518        0x0 C:/Users/Artee/Documents/ESAKBS2/nioseclipse_bsp/\libucosii_bsp.a(alt_irq_entry.o)
 .bss           0x0000000000013518        0x0 C:/Users/Artee/Documents/ESAKBS2/nioseclipse_bsp/\libucosii_bsp.a(alt_irq_handler.o)
 .bss           0x0000000000013518        0x0 C:/Users/Artee/Documents/ESAKBS2/nioseclipse_bsp/\libucosii_bsp.a(alt_exception_entry.o)
 .bss           0x0000000000013518        0x0 C:/Users/Artee/Documents/ESAKBS2/nioseclipse_bsp/\libucosii_bsp.a(alt_instruction_exception_entry.o)
 .bss           0x0000000000013518        0x0 c:/intelfpga_lite/16.1/nios2eds/bin/gnu/h-x86_64-mingw32/bin/../lib/gcc/nios2-elf/5.3.0/../../../../../H-x86_64-mingw32/nios2-elf/lib/mhw-mulx\libc.a(lib_a-atexit.o)
 .bss           0x0000000000013518        0x0 c:/intelfpga_lite/16.1/nios2eds/bin/gnu/h-x86_64-mingw32/bin/../lib/gcc/nios2-elf/5.3.0/../../../../../H-x86_64-mingw32/nios2-elf/lib/mhw-mulx\libc.a(lib_a-exit.o)
 .bss           0x0000000000013518        0x0 c:/intelfpga_lite/16.1/nios2eds/bin/gnu/h-x86_64-mingw32/bin/../lib/gcc/nios2-elf/5.3.0/../../../../../H-x86_64-mingw32/nios2-elf/lib/mhw-mulx\libc.a(lib_a-memcmp.o)
 .bss           0x0000000000013518        0x0 c:/intelfpga_lite/16.1/nios2eds/bin/gnu/h-x86_64-mingw32/bin/../lib/gcc/nios2-elf/5.3.0/../../../../../H-x86_64-mingw32/nios2-elf/lib/mhw-mulx\libc.a(lib_a-__atexit.o)
 .bss           0x0000000000013518        0x0 c:/intelfpga_lite/16.1/nios2eds/bin/gnu/h-x86_64-mingw32/bin/../lib/gcc/nios2-elf/5.3.0/../../../../../H-x86_64-mingw32/nios2-elf/lib/mhw-mulx\libc.a(lib_a-__call_atexit.o)
 .bss           0x0000000000013518        0x0 C:/Users/Artee/Documents/ESAKBS2/nioseclipse_bsp/\libucosii_bsp.a(alt_exit.o)
 *(COMMON)
 COMMON         0x0000000000013518     0x4000 obj/default/hello_ucosii.o
                0x0000000000013518                task1_stk
                0x0000000000015518                task2_stk
 COMMON         0x0000000000017518     0x3224 C:/Users/Artee/Documents/ESAKBS2/nioseclipse_bsp/\libucosii_bsp.a(os_core.o)
                0x0000000000017518                OSFlagTbl
                0x0000000000017888                OSMemTbl
                0x00000000000184b8                OSTaskStatStk
                0x0000000000018cb8                OSQTbl
                0x0000000000018e98                OSTaskIdleStk
                0x0000000000019698                OSEventTbl
                0x000000000001a1d8                OSTCBTbl
                0x000000000001a6e8                OSTCBPrioTbl
 COMMON         0x000000000001a73c      0x100 C:/Users/Artee/Documents/ESAKBS2/nioseclipse_bsp/\libucosii_bsp.a(alt_irq_handler.o)
                0x000000000001a73c                alt_irq
                0x000000000001a83c                . = ALIGN (0x4)
                0x000000000001a83c                __bss_end = ABSOLUTE (.)

.SDRAM          0x000000000001a83c        0x0
                [!provide]                        PROVIDE (_alt_partition_SDRAM_start, ABSOLUTE (.))
 *(.SDRAM .SDRAM. SDRAM.*)
                0x000000000001a83c                . = ALIGN (0x4)
                [!provide]                        PROVIDE (_alt_partition_SDRAM_end, ABSOLUTE (.))
                0x000000000001a83c                _end = ABSOLUTE (.)
                0x000000000001a83c                end = ABSOLUTE (.)
                0x000000000001a83c                __alt_stack_base = ABSOLUTE (.)
                [!provide]                        PROVIDE (_alt_partition_SDRAM_load_addr, LOADADDR (.SDRAM))

.VGA_Subsystem_Char_Buf_Subsystem_Onchip_SRAM
                0x0000000009000000        0x0 load address 0x000000000001a83c
                [!provide]                        PROVIDE (_alt_partition_VGA_Subsystem_Char_Buf_Subsystem_Onchip_SRAM_start, ABSOLUTE (.))
 *(.VGA_Subsystem_Char_Buf_Subsystem_Onchip_SRAM .VGA_Subsystem_Char_Buf_Subsystem_Onchip_SRAM. VGA_Subsystem_Char_Buf_Subsystem_Onchip_SRAM.*)
                0x0000000009000000                . = ALIGN (0x4)
                [!provide]                        PROVIDE (_alt_partition_VGA_Subsystem_Char_Buf_Subsystem_Onchip_SRAM_end, ABSOLUTE (.))
                [!provide]                        PROVIDE (_alt_partition_VGA_Subsystem_Char_Buf_Subsystem_Onchip_SRAM_load_addr, LOADADDR (.VGA_Subsystem_Char_Buf_Subsystem_Onchip_SRAM))

.stab
 *(.stab)

.stabstr
 *(.stabstr)

.stab.excl
 *(.stab.excl)

.stab.exclstr
 *(.stab.exclstr)

.stab.index
 *(.stab.index)

.stab.indexstr
 *(.stab.indexstr)

.comment        0x0000000000000000       0x23
 *(.comment)
 .comment       0x0000000000000000       0x23 obj/default/hello_ucosii.o
                                         0x24 (size before relaxing)
 .comment       0x0000000000000023       0x24 c:/intelfpga_lite/16.1/nios2eds/bin/gnu/h-x86_64-mingw32/bin/../lib/gcc/nios2-elf/5.3.0/../../../../../H-x86_64-mingw32/nios2-elf/lib/mhw-mulx\libc.a(lib_a-puts.o)
 .comment       0x0000000000000023       0x24 c:/intelfpga_lite/16.1/nios2eds/bin/gnu/h-x86_64-mingw32/bin/../lib/gcc/nios2-elf/5.3.0/../../../../../H-x86_64-mingw32/nios2-elf/lib/mhw-mulx\libc.a(lib_a-strlen.o)
 .comment       0x0000000000000023       0x24 c:/intelfpga_lite/16.1/nios2eds/bin/gnu/h-x86_64-mingw32/bin/../lib/gcc/nios2-elf/5.3.0/../../../../../H-x86_64-mingw32/nios2-elf/lib/mhw-mulx\libc.a(lib_a-findfp.o)
 .comment       0x0000000000000023       0x24 c:/intelfpga_lite/16.1/nios2eds/bin/gnu/h-x86_64-mingw32/bin/../lib/gcc/nios2-elf/5.3.0/../../../../../H-x86_64-mingw32/nios2-elf/lib/mhw-mulx\libc.a(lib_a-fvwrite.o)
 .comment       0x0000000000000023       0x24 c:/intelfpga_lite/16.1/nios2eds/bin/gnu/h-x86_64-mingw32/bin/../lib/gcc/nios2-elf/5.3.0/../../../../../H-x86_64-mingw32/nios2-elf/lib/mhw-mulx\libc.a(lib_a-fwalk.o)
 .comment       0x0000000000000023       0x24 c:/intelfpga_lite/16.1/nios2eds/bin/gnu/h-x86_64-mingw32/bin/../lib/gcc/nios2-elf/5.3.0/../../../../../H-x86_64-mingw32/nios2-elf/lib/mhw-mulx\libc.a(lib_a-impure.o)
 .comment       0x0000000000000023       0x24 c:/intelfpga_lite/16.1/nios2eds/bin/gnu/h-x86_64-mingw32/bin/../lib/gcc/nios2-elf/5.3.0/../../../../../H-x86_64-mingw32/nios2-elf/lib/mhw-mulx\libc.a(lib_a-mallocr.o)
 .comment       0x0000000000000023       0x24 c:/intelfpga_lite/16.1/nios2eds/bin/gnu/h-x86_64-mingw32/bin/../lib/gcc/nios2-elf/5.3.0/../../../../../H-x86_64-mingw32/nios2-elf/lib/mhw-mulx\libc.a(lib_a-memchr.o)
 .comment       0x0000000000000023       0x24 c:/intelfpga_lite/16.1/nios2eds/bin/gnu/h-x86_64-mingw32/bin/../lib/gcc/nios2-elf/5.3.0/../../../../../H-x86_64-mingw32/nios2-elf/lib/mhw-mulx\libc.a(lib_a-memcpy.o)
 .comment       0x0000000000000023       0x24 c:/intelfpga_lite/16.1/nios2eds/bin/gnu/h-x86_64-mingw32/bin/../lib/gcc/nios2-elf/5.3.0/../../../../../H-x86_64-mingw32/nios2-elf/lib/mhw-mulx\libc.a(lib_a-memmove.o)
 .comment       0x0000000000000023       0x24 c:/intelfpga_lite/16.1/nios2eds/bin/gnu/h-x86_64-mingw32/bin/../lib/gcc/nios2-elf/5.3.0/../../../../../H-x86_64-mingw32/nios2-elf/lib/mhw-mulx\libc.a(lib_a-memset.o)
 .comment       0x0000000000000023       0x24 c:/intelfpga_lite/16.1/nios2eds/bin/gnu/h-x86_64-mingw32/bin/../lib/gcc/nios2-elf/5.3.0/../../../../../H-x86_64-mingw32/nios2-elf/lib/mhw-mulx\libc.a(lib_a-reallocr.o)
 .comment       0x0000000000000023       0x24 c:/intelfpga_lite/16.1/nios2eds/bin/gnu/h-x86_64-mingw32/bin/../lib/gcc/nios2-elf/5.3.0/../../../../../H-x86_64-mingw32/nios2-elf/lib/mhw-mulx\libc.a(lib_a-sbrkr.o)
 .comment       0x0000000000000023       0x24 c:/intelfpga_lite/16.1/nios2eds/bin/gnu/h-x86_64-mingw32/bin/../lib/gcc/nios2-elf/5.3.0/../../../../../H-x86_64-mingw32/nios2-elf/lib/mhw-mulx\libc.a(lib_a-stdio.o)
 .comment       0x0000000000000023       0x24 c:/intelfpga_lite/16.1/nios2eds/bin/gnu/h-x86_64-mingw32/bin/../lib/gcc/nios2-elf/5.3.0/../../../../../H-x86_64-mingw32/nios2-elf/lib/mhw-mulx\libc.a(lib_a-writer.o)
 .comment       0x0000000000000023       0x24 c:/intelfpga_lite/16.1/nios2eds/bin/gnu/h-x86_64-mingw32/bin/../lib/gcc/nios2-elf/5.3.0/../../../../../H-x86_64-mingw32/nios2-elf/lib/mhw-mulx\libc.a(lib_a-wsetup.o)
 .comment       0x0000000000000023       0x24 c:/intelfpga_lite/16.1/nios2eds/bin/gnu/h-x86_64-mingw32/bin/../lib/gcc/nios2-elf/5.3.0/../../../../../H-x86_64-mingw32/nios2-elf/lib/mhw-mulx\libc.a(closer.o)
 .comment       0x0000000000000023       0x24 c:/intelfpga_lite/16.1/nios2eds/bin/gnu/h-x86_64-mingw32/bin/../lib/gcc/nios2-elf/5.3.0/../../../../../H-x86_64-mingw32/nios2-elf/lib/mhw-mulx\libc.a(lib_a-fclose.o)
 .comment       0x0000000000000023       0x24 c:/intelfpga_lite/16.1/nios2eds/bin/gnu/h-x86_64-mingw32/bin/../lib/gcc/nios2-elf/5.3.0/../../../../../H-x86_64-mingw32/nios2-elf/lib/mhw-mulx\libc.a(lib_a-fflush.o)
 .comment       0x0000000000000023       0x24 c:/intelfpga_lite/16.1/nios2eds/bin/gnu/h-x86_64-mingw32/bin/../lib/gcc/nios2-elf/5.3.0/../../../../../H-x86_64-mingw32/nios2-elf/lib/mhw-mulx\libc.a(lib_a-freer.o)
 .comment       0x0000000000000023       0x24 c:/intelfpga_lite/16.1/nios2eds/bin/gnu/h-x86_64-mingw32/bin/../lib/gcc/nios2-elf/5.3.0/../../../../../H-x86_64-mingw32/nios2-elf/lib/mhw-mulx\libc.a(lib_a-int_errno.o)
 .comment       0x0000000000000023       0x24 c:/intelfpga_lite/16.1/nios2eds/bin/gnu/h-x86_64-mingw32/bin/../lib/gcc/nios2-elf/5.3.0/../../../../../H-x86_64-mingw32/nios2-elf/lib/mhw-mulx\libc.a(lib_a-lseekr.o)
 .comment       0x0000000000000023       0x24 c:/intelfpga_lite/16.1/nios2eds/bin/gnu/h-x86_64-mingw32/bin/../lib/gcc/nios2-elf/5.3.0/../../../../../H-x86_64-mingw32/nios2-elf/lib/mhw-mulx\libc.a(lib_a-makebuf.o)
 .comment       0x0000000000000023       0x24 c:/intelfpga_lite/16.1/nios2eds/bin/gnu/h-x86_64-mingw32/bin/../lib/gcc/nios2-elf/5.3.0/../../../../../H-x86_64-mingw32/nios2-elf/lib/mhw-mulx\libc.a(lib_a-readr.o)
 .comment       0x0000000000000023       0x24 c:/intelfpga_lite/16.1/nios2eds/bin/gnu/h-x86_64-mingw32/bin/../lib/gcc/nios2-elf/5.3.0/../../../../../H-x86_64-mingw32/nios2-elf/lib/mhw-mulx\libc.a(lib_a-fstatr.o)
 .comment       0x0000000000000023       0x24 c:/intelfpga_lite/16.1/nios2eds/bin/gnu/h-x86_64-mingw32/bin/../lib/gcc/nios2-elf/5.3.0/../../../../../H-x86_64-mingw32/nios2-elf/lib/mhw-mulx\libc.a(lib_a-isattyr.o)
 .comment       0x0000000000000023       0x24 c:/intelfpga_lite/16.1/nios2eds/bin/gnu/h-x86_64-mingw32/bin/../lib/gcc/nios2-elf/5.3.0/mhw-mulx\libgcc.a(lib2-divmod.o)
 .comment       0x0000000000000023       0x24 C:/Users/Artee/Documents/ESAKBS2/nioseclipse_bsp/\libucosii_bsp.a(alt_close.o)
 .comment       0x0000000000000023       0x24 C:/Users/Artee/Documents/ESAKBS2/nioseclipse_bsp/\libucosii_bsp.a(alt_dev.o)
 .comment       0x0000000000000023       0x24 C:/Users/Artee/Documents/ESAKBS2/nioseclipse_bsp/\libucosii_bsp.a(alt_errno.o)
 .comment       0x0000000000000023       0x24 C:/Users/Artee/Documents/ESAKBS2/nioseclipse_bsp/\libucosii_bsp.a(alt_fstat.o)
 .comment       0x0000000000000023       0x24 C:/Users/Artee/Documents/ESAKBS2/nioseclipse_bsp/\libucosii_bsp.a(alt_isatty.o)
 .comment       0x0000000000000023       0x24 C:/Users/Artee/Documents/ESAKBS2/nioseclipse_bsp/\libucosii_bsp.a(alt_load.o)
 .comment       0x0000000000000023       0x24 C:/Users/Artee/Documents/ESAKBS2/nioseclipse_bsp/\libucosii_bsp.a(alt_lseek.o)
 .comment       0x0000000000000023       0x24 C:/Users/Artee/Documents/ESAKBS2/nioseclipse_bsp/\libucosii_bsp.a(alt_main.o)
 .comment       0x0000000000000023       0x24 C:/Users/Artee/Documents/ESAKBS2/nioseclipse_bsp/\libucosii_bsp.a(alt_read.o)
 .comment       0x0000000000000023       0x24 C:/Users/Artee/Documents/ESAKBS2/nioseclipse_bsp/\libucosii_bsp.a(alt_release_fd.o)
 .comment       0x0000000000000023       0x24 C:/Users/Artee/Documents/ESAKBS2/nioseclipse_bsp/\libucosii_bsp.a(alt_sbrk.o)
 .comment       0x0000000000000023       0x24 C:/Users/Artee/Documents/ESAKBS2/nioseclipse_bsp/\libucosii_bsp.a(alt_write.o)
 .comment       0x0000000000000023       0x24 C:/Users/Artee/Documents/ESAKBS2/nioseclipse_bsp/\libucosii_bsp.a(alt_env_lock.o)
 .comment       0x0000000000000023       0x24 C:/Users/Artee/Documents/ESAKBS2/nioseclipse_bsp/\libucosii_bsp.a(alt_malloc_lock.o)
 .comment       0x0000000000000023       0x24 C:/Users/Artee/Documents/ESAKBS2/nioseclipse_bsp/\libucosii_bsp.a(os_core.o)
 .comment       0x0000000000000023       0x24 C:/Users/Artee/Documents/ESAKBS2/nioseclipse_bsp/\libucosii_bsp.a(os_dbg.o)
 .comment       0x0000000000000023       0x24 C:/Users/Artee/Documents/ESAKBS2/nioseclipse_bsp/\libucosii_bsp.a(os_flag.o)
 .comment       0x0000000000000023       0x24 C:/Users/Artee/Documents/ESAKBS2/nioseclipse_bsp/\libucosii_bsp.a(os_mem.o)
 .comment       0x0000000000000023       0x24 C:/Users/Artee/Documents/ESAKBS2/nioseclipse_bsp/\libucosii_bsp.a(os_q.o)
 .comment       0x0000000000000023       0x24 C:/Users/Artee/Documents/ESAKBS2/nioseclipse_bsp/\libucosii_bsp.a(os_sem.o)
 .comment       0x0000000000000023       0x24 C:/Users/Artee/Documents/ESAKBS2/nioseclipse_bsp/\libucosii_bsp.a(os_task.o)
 .comment       0x0000000000000023       0x24 C:/Users/Artee/Documents/ESAKBS2/nioseclipse_bsp/\libucosii_bsp.a(os_time.o)
 .comment       0x0000000000000023       0x24 C:/Users/Artee/Documents/ESAKBS2/nioseclipse_bsp/\libucosii_bsp.a(alt_sys_init.o)
 .comment       0x0000000000000023       0x24 C:/Users/Artee/Documents/ESAKBS2/nioseclipse_bsp/\libucosii_bsp.a(altera_avalon_jtag_uart_fd.o)
 .comment       0x0000000000000023       0x24 C:/Users/Artee/Documents/ESAKBS2/nioseclipse_bsp/\libucosii_bsp.a(altera_avalon_jtag_uart_init.o)
 .comment       0x0000000000000023       0x24 C:/Users/Artee/Documents/ESAKBS2/nioseclipse_bsp/\libucosii_bsp.a(altera_avalon_jtag_uart_ioctl.o)
 .comment       0x0000000000000023       0x24 C:/Users/Artee/Documents/ESAKBS2/nioseclipse_bsp/\libucosii_bsp.a(altera_avalon_jtag_uart_read.o)
 .comment       0x0000000000000023       0x24 C:/Users/Artee/Documents/ESAKBS2/nioseclipse_bsp/\libucosii_bsp.a(altera_avalon_jtag_uart_write.o)
 .comment       0x0000000000000023       0x24 C:/Users/Artee/Documents/ESAKBS2/nioseclipse_bsp/\libucosii_bsp.a(altera_avalon_timer_sc.o)
 .comment       0x0000000000000023       0x24 C:/Users/Artee/Documents/ESAKBS2/nioseclipse_bsp/\libucosii_bsp.a(altera_up_avalon_character_lcd.o)
 .comment       0x0000000000000023       0x24 C:/Users/Artee/Documents/ESAKBS2/nioseclipse_bsp/\libucosii_bsp.a(altera_up_avalon_irda.o)
 .comment       0x0000000000000023       0x24 C:/Users/Artee/Documents/ESAKBS2/nioseclipse_bsp/\libucosii_bsp.a(altera_up_avalon_ps2.o)
 .comment       0x0000000000000023       0x24 C:/Users/Artee/Documents/ESAKBS2/nioseclipse_bsp/\libucosii_bsp.a(altera_up_avalon_rs232.o)
 .comment       0x0000000000000023       0x24 C:/Users/Artee/Documents/ESAKBS2/nioseclipse_bsp/\libucosii_bsp.a(alt_alarm_start.o)
 .comment       0x0000000000000023       0x24 C:/Users/Artee/Documents/ESAKBS2/nioseclipse_bsp/\libucosii_bsp.a(alt_dcache_flush_all.o)
 .comment       0x0000000000000023       0x24 C:/Users/Artee/Documents/ESAKBS2/nioseclipse_bsp/\libucosii_bsp.a(alt_dev_llist_insert.o)
 .comment       0x0000000000000023       0x24 C:/Users/Artee/Documents/ESAKBS2/nioseclipse_bsp/\libucosii_bsp.a(alt_do_ctors.o)
 .comment       0x0000000000000023       0x24 C:/Users/Artee/Documents/ESAKBS2/nioseclipse_bsp/\libucosii_bsp.a(alt_do_dtors.o)
 .comment       0x0000000000000023       0x24 C:/Users/Artee/Documents/ESAKBS2/nioseclipse_bsp/\libucosii_bsp.a(alt_find_dev.o)
 .comment       0x0000000000000023       0x24 C:/Users/Artee/Documents/ESAKBS2/nioseclipse_bsp/\libucosii_bsp.a(alt_icache_flush_all.o)
 .comment       0x0000000000000023       0x24 C:/Users/Artee/Documents/ESAKBS2/nioseclipse_bsp/\libucosii_bsp.a(alt_io_redirect.o)
 .comment       0x0000000000000023       0x24 C:/Users/Artee/Documents/ESAKBS2/nioseclipse_bsp/\libucosii_bsp.a(alt_irq_register.o)
 .comment       0x0000000000000023       0x24 C:/Users/Artee/Documents/ESAKBS2/nioseclipse_bsp/\libucosii_bsp.a(alt_irq_vars.o)
 .comment       0x0000000000000023       0x24 C:/Users/Artee/Documents/ESAKBS2/nioseclipse_bsp/\libucosii_bsp.a(alt_open.o)
 .comment       0x0000000000000023       0x24 C:/Users/Artee/Documents/ESAKBS2/nioseclipse_bsp/\libucosii_bsp.a(alt_tick.o)
 .comment       0x0000000000000023       0x24 C:/Users/Artee/Documents/ESAKBS2/nioseclipse_bsp/\libucosii_bsp.a(altera_nios2_gen2_irq.o)
 .comment       0x0000000000000023       0x24 C:/Users/Artee/Documents/ESAKBS2/nioseclipse_bsp/\libucosii_bsp.a(os_cpu_c.o)
 .comment       0x0000000000000023       0x24 C:/Users/Artee/Documents/ESAKBS2/nioseclipse_bsp/\libucosii_bsp.a(alt_find_file.o)
 .comment       0x0000000000000023       0x24 C:/Users/Artee/Documents/ESAKBS2/nioseclipse_bsp/\libucosii_bsp.a(alt_get_fd.o)
 .comment       0x0000000000000023       0x24 C:/Users/Artee/Documents/ESAKBS2/nioseclipse_bsp/\libucosii_bsp.a(alt_icache_flush.o)
 .comment       0x0000000000000023       0x24 C:/Users/Artee/Documents/ESAKBS2/nioseclipse_bsp/\libucosii_bsp.a(alt_irq_handler.o)
 .comment       0x0000000000000023       0x24 C:/Users/Artee/Documents/ESAKBS2/nioseclipse_bsp/\libucosii_bsp.a(alt_instruction_exception_entry.o)
 .comment       0x0000000000000023       0x24 c:/intelfpga_lite/16.1/nios2eds/bin/gnu/h-x86_64-mingw32/bin/../lib/gcc/nios2-elf/5.3.0/../../../../../H-x86_64-mingw32/nios2-elf/lib/mhw-mulx\libc.a(lib_a-atexit.o)
 .comment       0x0000000000000023       0x24 c:/intelfpga_lite/16.1/nios2eds/bin/gnu/h-x86_64-mingw32/bin/../lib/gcc/nios2-elf/5.3.0/../../../../../H-x86_64-mingw32/nios2-elf/lib/mhw-mulx\libc.a(lib_a-exit.o)
 .comment       0x0000000000000023       0x24 c:/intelfpga_lite/16.1/nios2eds/bin/gnu/h-x86_64-mingw32/bin/../lib/gcc/nios2-elf/5.3.0/../../../../../H-x86_64-mingw32/nios2-elf/lib/mhw-mulx\libc.a(lib_a-memcmp.o)
 .comment       0x0000000000000023       0x24 c:/intelfpga_lite/16.1/nios2eds/bin/gnu/h-x86_64-mingw32/bin/../lib/gcc/nios2-elf/5.3.0/../../../../../H-x86_64-mingw32/nios2-elf/lib/mhw-mulx\libc.a(lib_a-__atexit.o)
 .comment       0x0000000000000023       0x24 c:/intelfpga_lite/16.1/nios2eds/bin/gnu/h-x86_64-mingw32/bin/../lib/gcc/nios2-elf/5.3.0/../../../../../H-x86_64-mingw32/nios2-elf/lib/mhw-mulx\libc.a(lib_a-__call_atexit.o)
 .comment       0x0000000000000023       0x24 C:/Users/Artee/Documents/ESAKBS2/nioseclipse_bsp/\libucosii_bsp.a(alt_exit.o)

.debug
 *(.debug)

.line
 *(.line)

.debug_srcinfo
 *(.debug_srcinfo)

.debug_sfnames
 *(.debug_sfnames)

.debug_aranges  0x0000000000000000      0xbf0
 *(.debug_aranges)
 .debug_aranges
                0x0000000000000000       0x28 C:/Users/Artee/Documents/ESAKBS2/nioseclipse_bsp//obj/HAL/src/crt0.o
 .debug_aranges
                0x0000000000000028       0x20 obj/default/hello_ucosii.o
 .debug_aranges
                0x0000000000000048       0x28 c:/intelfpga_lite/16.1/nios2eds/bin/gnu/h-x86_64-mingw32/bin/../lib/gcc/nios2-elf/5.3.0/../../../../../H-x86_64-mingw32/nios2-elf/lib/mhw-mulx\libc.a(lib_a-puts.o)
 .debug_aranges
                0x0000000000000070       0x20 c:/intelfpga_lite/16.1/nios2eds/bin/gnu/h-x86_64-mingw32/bin/../lib/gcc/nios2-elf/5.3.0/../../../../../H-x86_64-mingw32/nios2-elf/lib/mhw-mulx\libc.a(lib_a-strlen.o)
 .debug_aranges
                0x0000000000000090       0x68 c:/intelfpga_lite/16.1/nios2eds/bin/gnu/h-x86_64-mingw32/bin/../lib/gcc/nios2-elf/5.3.0/../../../../../H-x86_64-mingw32/nios2-elf/lib/mhw-mulx\libc.a(lib_a-findfp.o)
 .debug_aranges
                0x00000000000000f8       0x20 c:/intelfpga_lite/16.1/nios2eds/bin/gnu/h-x86_64-mingw32/bin/../lib/gcc/nios2-elf/5.3.0/../../../../../H-x86_64-mingw32/nios2-elf/lib/mhw-mulx\libc.a(lib_a-fvwrite.o)
 .debug_aranges
                0x0000000000000118       0x28 c:/intelfpga_lite/16.1/nios2eds/bin/gnu/h-x86_64-mingw32/bin/../lib/gcc/nios2-elf/5.3.0/../../../../../H-x86_64-mingw32/nios2-elf/lib/mhw-mulx\libc.a(lib_a-fwalk.o)
 .debug_aranges
                0x0000000000000140       0x18 c:/intelfpga_lite/16.1/nios2eds/bin/gnu/h-x86_64-mingw32/bin/../lib/gcc/nios2-elf/5.3.0/../../../../../H-x86_64-mingw32/nios2-elf/lib/mhw-mulx\libc.a(lib_a-impure.o)
 .debug_aranges
                0x0000000000000158       0x20 c:/intelfpga_lite/16.1/nios2eds/bin/gnu/h-x86_64-mingw32/bin/../lib/gcc/nios2-elf/5.3.0/../../../../../H-x86_64-mingw32/nios2-elf/lib/mhw-mulx\libc.a(lib_a-mallocr.o)
 .debug_aranges
                0x0000000000000178       0x20 c:/intelfpga_lite/16.1/nios2eds/bin/gnu/h-x86_64-mingw32/bin/../lib/gcc/nios2-elf/5.3.0/../../../../../H-x86_64-mingw32/nios2-elf/lib/mhw-mulx\libc.a(lib_a-memchr.o)
 .debug_aranges
                0x0000000000000198       0x20 c:/intelfpga_lite/16.1/nios2eds/bin/gnu/h-x86_64-mingw32/bin/../lib/gcc/nios2-elf/5.3.0/../../../../../H-x86_64-mingw32/nios2-elf/lib/mhw-mulx\libc.a(lib_a-memcpy.o)
 .debug_aranges
                0x00000000000001b8       0x20 c:/intelfpga_lite/16.1/nios2eds/bin/gnu/h-x86_64-mingw32/bin/../lib/gcc/nios2-elf/5.3.0/../../../../../H-x86_64-mingw32/nios2-elf/lib/mhw-mulx\libc.a(lib_a-memmove.o)
 .debug_aranges
                0x00000000000001d8       0x20 c:/intelfpga_lite/16.1/nios2eds/bin/gnu/h-x86_64-mingw32/bin/../lib/gcc/nios2-elf/5.3.0/../../../../../H-x86_64-mingw32/nios2-elf/lib/mhw-mulx\libc.a(lib_a-memset.o)
 .debug_aranges
                0x00000000000001f8       0x20 c:/intelfpga_lite/16.1/nios2eds/bin/gnu/h-x86_64-mingw32/bin/../lib/gcc/nios2-elf/5.3.0/../../../../../H-x86_64-mingw32/nios2-elf/lib/mhw-mulx\libc.a(lib_a-reallocr.o)
 .debug_aranges
                0x0000000000000218       0x20 c:/intelfpga_lite/16.1/nios2eds/bin/gnu/h-x86_64-mingw32/bin/../lib/gcc/nios2-elf/5.3.0/../../../../../H-x86_64-mingw32/nios2-elf/lib/mhw-mulx\libc.a(lib_a-sbrkr.o)
 .debug_aranges
                0x0000000000000238       0x40 c:/intelfpga_lite/16.1/nios2eds/bin/gnu/h-x86_64-mingw32/bin/../lib/gcc/nios2-elf/5.3.0/../../../../../H-x86_64-mingw32/nios2-elf/lib/mhw-mulx\libc.a(lib_a-stdio.o)
 .debug_aranges
                0x0000000000000278       0x20 c:/intelfpga_lite/16.1/nios2eds/bin/gnu/h-x86_64-mingw32/bin/../lib/gcc/nios2-elf/5.3.0/../../../../../H-x86_64-mingw32/nios2-elf/lib/mhw-mulx\libc.a(lib_a-writer.o)
 .debug_aranges
                0x0000000000000298       0x20 c:/intelfpga_lite/16.1/nios2eds/bin/gnu/h-x86_64-mingw32/bin/../lib/gcc/nios2-elf/5.3.0/../../../../../H-x86_64-mingw32/nios2-elf/lib/mhw-mulx\libc.a(lib_a-wsetup.o)
 .debug_aranges
                0x00000000000002b8       0x20 c:/intelfpga_lite/16.1/nios2eds/bin/gnu/h-x86_64-mingw32/bin/../lib/gcc/nios2-elf/5.3.0/../../../../../H-x86_64-mingw32/nios2-elf/lib/mhw-mulx\libc.a(closer.o)
 .debug_aranges
                0x00000000000002d8       0x28 c:/intelfpga_lite/16.1/nios2eds/bin/gnu/h-x86_64-mingw32/bin/../lib/gcc/nios2-elf/5.3.0/../../../../../H-x86_64-mingw32/nios2-elf/lib/mhw-mulx\libc.a(lib_a-fclose.o)
 .debug_aranges
                0x0000000000000300       0x30 c:/intelfpga_lite/16.1/nios2eds/bin/gnu/h-x86_64-mingw32/bin/../lib/gcc/nios2-elf/5.3.0/../../../../../H-x86_64-mingw32/nios2-elf/lib/mhw-mulx\libc.a(lib_a-fflush.o)
 .debug_aranges
                0x0000000000000330       0x28 c:/intelfpga_lite/16.1/nios2eds/bin/gnu/h-x86_64-mingw32/bin/../lib/gcc/nios2-elf/5.3.0/../../../../../H-x86_64-mingw32/nios2-elf/lib/mhw-mulx\libc.a(lib_a-freer.o)
 .debug_aranges
                0x0000000000000358       0x18 c:/intelfpga_lite/16.1/nios2eds/bin/gnu/h-x86_64-mingw32/bin/../lib/gcc/nios2-elf/5.3.0/../../../../../H-x86_64-mingw32/nios2-elf/lib/mhw-mulx\libc.a(lib_a-int_errno.o)
 .debug_aranges
                0x0000000000000370       0x20 c:/intelfpga_lite/16.1/nios2eds/bin/gnu/h-x86_64-mingw32/bin/../lib/gcc/nios2-elf/5.3.0/../../../../../H-x86_64-mingw32/nios2-elf/lib/mhw-mulx\libc.a(lib_a-lseekr.o)
 .debug_aranges
                0x0000000000000390       0x20 c:/intelfpga_lite/16.1/nios2eds/bin/gnu/h-x86_64-mingw32/bin/../lib/gcc/nios2-elf/5.3.0/../../../../../H-x86_64-mingw32/nios2-elf/lib/mhw-mulx\libc.a(lib_a-makebuf.o)
 .debug_aranges
                0x00000000000003b0       0x20 c:/intelfpga_lite/16.1/nios2eds/bin/gnu/h-x86_64-mingw32/bin/../lib/gcc/nios2-elf/5.3.0/../../../../../H-x86_64-mingw32/nios2-elf/lib/mhw-mulx\libc.a(lib_a-readr.o)
 .debug_aranges
                0x00000000000003d0       0x20 c:/intelfpga_lite/16.1/nios2eds/bin/gnu/h-x86_64-mingw32/bin/../lib/gcc/nios2-elf/5.3.0/../../../../../H-x86_64-mingw32/nios2-elf/lib/mhw-mulx\libc.a(lib_a-fstatr.o)
 .debug_aranges
                0x00000000000003f0       0x20 c:/intelfpga_lite/16.1/nios2eds/bin/gnu/h-x86_64-mingw32/bin/../lib/gcc/nios2-elf/5.3.0/../../../../../H-x86_64-mingw32/nios2-elf/lib/mhw-mulx\libc.a(lib_a-isattyr.o)
 .debug_aranges
                0x0000000000000410       0x20 c:/intelfpga_lite/16.1/nios2eds/bin/gnu/h-x86_64-mingw32/bin/../lib/gcc/nios2-elf/5.3.0/mhw-mulx\libgcc.a(lib2-divmod.o)
 .debug_aranges
                0x0000000000000430       0x20 C:/Users/Artee/Documents/ESAKBS2/nioseclipse_bsp/\libucosii_bsp.a(alt_close.o)
 .debug_aranges
                0x0000000000000450       0x20 C:/Users/Artee/Documents/ESAKBS2/nioseclipse_bsp/\libucosii_bsp.a(alt_dev.o)
 .debug_aranges
                0x0000000000000470       0x18 C:/Users/Artee/Documents/ESAKBS2/nioseclipse_bsp/\libucosii_bsp.a(alt_errno.o)
 .debug_aranges
                0x0000000000000488       0x20 C:/Users/Artee/Documents/ESAKBS2/nioseclipse_bsp/\libucosii_bsp.a(alt_fstat.o)
 .debug_aranges
                0x00000000000004a8       0x20 C:/Users/Artee/Documents/ESAKBS2/nioseclipse_bsp/\libucosii_bsp.a(alt_isatty.o)
 .debug_aranges
                0x00000000000004c8       0x20 C:/Users/Artee/Documents/ESAKBS2/nioseclipse_bsp/\libucosii_bsp.a(alt_load.o)
 .debug_aranges
                0x00000000000004e8       0x20 C:/Users/Artee/Documents/ESAKBS2/nioseclipse_bsp/\libucosii_bsp.a(alt_lseek.o)
 .debug_aranges
                0x0000000000000508       0x20 C:/Users/Artee/Documents/ESAKBS2/nioseclipse_bsp/\libucosii_bsp.a(alt_main.o)
 .debug_aranges
                0x0000000000000528       0x20 C:/Users/Artee/Documents/ESAKBS2/nioseclipse_bsp/\libucosii_bsp.a(alt_read.o)
 .debug_aranges
                0x0000000000000548       0x20 C:/Users/Artee/Documents/ESAKBS2/nioseclipse_bsp/\libucosii_bsp.a(alt_release_fd.o)
 .debug_aranges
                0x0000000000000568       0x20 C:/Users/Artee/Documents/ESAKBS2/nioseclipse_bsp/\libucosii_bsp.a(alt_sbrk.o)
 .debug_aranges
                0x0000000000000588       0x20 C:/Users/Artee/Documents/ESAKBS2/nioseclipse_bsp/\libucosii_bsp.a(alt_write.o)
 .debug_aranges
                0x00000000000005a8       0x20 C:/Users/Artee/Documents/ESAKBS2/nioseclipse_bsp/\libucosii_bsp.a(alt_env_lock.o)
 .debug_aranges
                0x00000000000005c8       0x20 C:/Users/Artee/Documents/ESAKBS2/nioseclipse_bsp/\libucosii_bsp.a(alt_malloc_lock.o)
 .debug_aranges
                0x00000000000005e8       0x20 C:/Users/Artee/Documents/ESAKBS2/nioseclipse_bsp/\libucosii_bsp.a(os_core.o)
 .debug_aranges
                0x0000000000000608       0x20 C:/Users/Artee/Documents/ESAKBS2/nioseclipse_bsp/\libucosii_bsp.a(os_dbg.o)
 .debug_aranges
                0x0000000000000628       0x20 C:/Users/Artee/Documents/ESAKBS2/nioseclipse_bsp/\libucosii_bsp.a(os_flag.o)
 .debug_aranges
                0x0000000000000648       0x20 C:/Users/Artee/Documents/ESAKBS2/nioseclipse_bsp/\libucosii_bsp.a(os_mem.o)
 .debug_aranges
                0x0000000000000668       0x20 C:/Users/Artee/Documents/ESAKBS2/nioseclipse_bsp/\libucosii_bsp.a(os_q.o)
 .debug_aranges
                0x0000000000000688       0x20 C:/Users/Artee/Documents/ESAKBS2/nioseclipse_bsp/\libucosii_bsp.a(os_sem.o)
 .debug_aranges
                0x00000000000006a8       0x20 C:/Users/Artee/Documents/ESAKBS2/nioseclipse_bsp/\libucosii_bsp.a(os_task.o)
 .debug_aranges
                0x00000000000006c8       0x20 C:/Users/Artee/Documents/ESAKBS2/nioseclipse_bsp/\libucosii_bsp.a(os_time.o)
 .debug_aranges
                0x00000000000006e8       0x20 C:/Users/Artee/Documents/ESAKBS2/nioseclipse_bsp/\libucosii_bsp.a(alt_sys_init.o)
 .debug_aranges
                0x0000000000000708       0x20 C:/Users/Artee/Documents/ESAKBS2/nioseclipse_bsp/\libucosii_bsp.a(altera_avalon_jtag_uart_fd.o)
 .debug_aranges
                0x0000000000000728       0x20 C:/Users/Artee/Documents/ESAKBS2/nioseclipse_bsp/\libucosii_bsp.a(altera_avalon_jtag_uart_init.o)
 .debug_aranges
                0x0000000000000748       0x20 C:/Users/Artee/Documents/ESAKBS2/nioseclipse_bsp/\libucosii_bsp.a(altera_avalon_jtag_uart_ioctl.o)
 .debug_aranges
                0x0000000000000768       0x20 C:/Users/Artee/Documents/ESAKBS2/nioseclipse_bsp/\libucosii_bsp.a(altera_avalon_jtag_uart_read.o)
 .debug_aranges
                0x0000000000000788       0x20 C:/Users/Artee/Documents/ESAKBS2/nioseclipse_bsp/\libucosii_bsp.a(altera_avalon_jtag_uart_write.o)
 .debug_aranges
                0x00000000000007a8       0x20 C:/Users/Artee/Documents/ESAKBS2/nioseclipse_bsp/\libucosii_bsp.a(altera_avalon_timer_sc.o)
 .debug_aranges
                0x00000000000007c8       0x20 C:/Users/Artee/Documents/ESAKBS2/nioseclipse_bsp/\libucosii_bsp.a(altera_up_avalon_character_lcd.o)
 .debug_aranges
                0x00000000000007e8       0x20 C:/Users/Artee/Documents/ESAKBS2/nioseclipse_bsp/\libucosii_bsp.a(altera_up_avalon_irda.o)
 .debug_aranges
                0x0000000000000808       0x20 C:/Users/Artee/Documents/ESAKBS2/nioseclipse_bsp/\libucosii_bsp.a(altera_up_avalon_ps2.o)
 .debug_aranges
                0x0000000000000828       0x20 C:/Users/Artee/Documents/ESAKBS2/nioseclipse_bsp/\libucosii_bsp.a(altera_up_avalon_rs232.o)
 .debug_aranges
                0x0000000000000848       0x20 C:/Users/Artee/Documents/ESAKBS2/nioseclipse_bsp/\libucosii_bsp.a(alt_alarm_start.o)
 .debug_aranges
                0x0000000000000868       0x20 C:/Users/Artee/Documents/ESAKBS2/nioseclipse_bsp/\libucosii_bsp.a(alt_dcache_flush_all.o)
 .debug_aranges
                0x0000000000000888       0x20 C:/Users/Artee/Documents/ESAKBS2/nioseclipse_bsp/\libucosii_bsp.a(alt_dev_llist_insert.o)
 .debug_aranges
                0x00000000000008a8       0x20 C:/Users/Artee/Documents/ESAKBS2/nioseclipse_bsp/\libucosii_bsp.a(alt_do_ctors.o)
 .debug_aranges
                0x00000000000008c8       0x20 C:/Users/Artee/Documents/ESAKBS2/nioseclipse_bsp/\libucosii_bsp.a(alt_do_dtors.o)
 .debug_aranges
                0x00000000000008e8       0x20 C:/Users/Artee/Documents/ESAKBS2/nioseclipse_bsp/\libucosii_bsp.a(alt_find_dev.o)
 .debug_aranges
                0x0000000000000908       0x20 C:/Users/Artee/Documents/ESAKBS2/nioseclipse_bsp/\libucosii_bsp.a(alt_icache_flush_all.o)
 .debug_aranges
                0x0000000000000928       0x20 C:/Users/Artee/Documents/ESAKBS2/nioseclipse_bsp/\libucosii_bsp.a(alt_io_redirect.o)
 .debug_aranges
                0x0000000000000948       0x20 C:/Users/Artee/Documents/ESAKBS2/nioseclipse_bsp/\libucosii_bsp.a(alt_irq_register.o)
 .debug_aranges
                0x0000000000000968       0x18 C:/Users/Artee/Documents/ESAKBS2/nioseclipse_bsp/\libucosii_bsp.a(alt_irq_vars.o)
 .debug_aranges
                0x0000000000000980       0x20 C:/Users/Artee/Documents/ESAKBS2/nioseclipse_bsp/\libucosii_bsp.a(alt_open.o)
 .debug_aranges
                0x00000000000009a0       0x20 C:/Users/Artee/Documents/ESAKBS2/nioseclipse_bsp/\libucosii_bsp.a(alt_tick.o)
 .debug_aranges
                0x00000000000009c0       0x20 C:/Users/Artee/Documents/ESAKBS2/nioseclipse_bsp/\libucosii_bsp.a(altera_nios2_gen2_irq.o)
 .debug_aranges
                0x00000000000009e0       0x20 C:/Users/Artee/Documents/ESAKBS2/nioseclipse_bsp/\libucosii_bsp.a(os_cpu_a.o)
 .debug_aranges
                0x0000000000000a00       0x20 C:/Users/Artee/Documents/ESAKBS2/nioseclipse_bsp/\libucosii_bsp.a(os_cpu_c.o)
 .debug_aranges
                0x0000000000000a20       0x20 C:/Users/Artee/Documents/ESAKBS2/nioseclipse_bsp/\libucosii_bsp.a(alt_find_file.o)
 .debug_aranges
                0x0000000000000a40       0x20 C:/Users/Artee/Documents/ESAKBS2/nioseclipse_bsp/\libucosii_bsp.a(alt_get_fd.o)
 .debug_aranges
                0x0000000000000a60       0x20 C:/Users/Artee/Documents/ESAKBS2/nioseclipse_bsp/\libucosii_bsp.a(alt_icache_flush.o)
 .debug_aranges
                0x0000000000000a80       0x30 C:/Users/Artee/Documents/ESAKBS2/nioseclipse_bsp/\libucosii_bsp.a(alt_irq_entry.o)
 .debug_aranges
                0x0000000000000ab0       0x20 C:/Users/Artee/Documents/ESAKBS2/nioseclipse_bsp/\libucosii_bsp.a(alt_irq_handler.o)
 .debug_aranges
                0x0000000000000ad0       0x38 C:/Users/Artee/Documents/ESAKBS2/nioseclipse_bsp/\libucosii_bsp.a(alt_exception_entry.o)
 .debug_aranges
                0x0000000000000b08       0x28 C:/Users/Artee/Documents/ESAKBS2/nioseclipse_bsp/\libucosii_bsp.a(alt_instruction_exception_entry.o)
 .debug_aranges
                0x0000000000000b30       0x20 c:/intelfpga_lite/16.1/nios2eds/bin/gnu/h-x86_64-mingw32/bin/../lib/gcc/nios2-elf/5.3.0/../../../../../H-x86_64-mingw32/nios2-elf/lib/mhw-mulx\libc.a(lib_a-atexit.o)
 .debug_aranges
                0x0000000000000b50       0x20 c:/intelfpga_lite/16.1/nios2eds/bin/gnu/h-x86_64-mingw32/bin/../lib/gcc/nios2-elf/5.3.0/../../../../../H-x86_64-mingw32/nios2-elf/lib/mhw-mulx\libc.a(lib_a-exit.o)
 .debug_aranges
                0x0000000000000b70       0x20 c:/intelfpga_lite/16.1/nios2eds/bin/gnu/h-x86_64-mingw32/bin/../lib/gcc/nios2-elf/5.3.0/../../../../../H-x86_64-mingw32/nios2-elf/lib/mhw-mulx\libc.a(lib_a-memcmp.o)
 .debug_aranges
                0x0000000000000b90       0x20 c:/intelfpga_lite/16.1/nios2eds/bin/gnu/h-x86_64-mingw32/bin/../lib/gcc/nios2-elf/5.3.0/../../../../../H-x86_64-mingw32/nios2-elf/lib/mhw-mulx\libc.a(lib_a-__atexit.o)
 .debug_aranges
                0x0000000000000bb0       0x20 c:/intelfpga_lite/16.1/nios2eds/bin/gnu/h-x86_64-mingw32/bin/../lib/gcc/nios2-elf/5.3.0/../../../../../H-x86_64-mingw32/nios2-elf/lib/mhw-mulx\libc.a(lib_a-__call_atexit.o)
 .debug_aranges
                0x0000000000000bd0       0x20 C:/Users/Artee/Documents/ESAKBS2/nioseclipse_bsp/\libucosii_bsp.a(alt_exit.o)

.debug_pubnames
 *(.debug_pubnames)

.debug_info     0x0000000000000000    0x21ca6
 *(.debug_info .gnu.linkonce.wi.*)
 .debug_info    0x0000000000000000       0x65 C:/Users/Artee/Documents/ESAKBS2/nioseclipse_bsp//obj/HAL/src/crt0.o
 .debug_info    0x0000000000000065      0x168 obj/default/hello_ucosii.o
 .debug_info    0x00000000000001cd      0xa38 c:/intelfpga_lite/16.1/nios2eds/bin/gnu/h-x86_64-mingw32/bin/../lib/gcc/nios2-elf/5.3.0/../../../../../H-x86_64-mingw32/nios2-elf/lib/mhw-mulx\libc.a(lib_a-puts.o)
 .debug_info    0x0000000000000c05       0xe2 c:/intelfpga_lite/16.1/nios2eds/bin/gnu/h-x86_64-mingw32/bin/../lib/gcc/nios2-elf/5.3.0/../../../../../H-x86_64-mingw32/nios2-elf/lib/mhw-mulx\libc.a(lib_a-strlen.o)
 .debug_info    0x0000000000000ce7      0xd37 c:/intelfpga_lite/16.1/nios2eds/bin/gnu/h-x86_64-mingw32/bin/../lib/gcc/nios2-elf/5.3.0/../../../../../H-x86_64-mingw32/nios2-elf/lib/mhw-mulx\libc.a(lib_a-findfp.o)
 .debug_info    0x0000000000001a1e      0xbb8 c:/intelfpga_lite/16.1/nios2eds/bin/gnu/h-x86_64-mingw32/bin/../lib/gcc/nios2-elf/5.3.0/../../../../../H-x86_64-mingw32/nios2-elf/lib/mhw-mulx\libc.a(lib_a-fvwrite.o)
 .debug_info    0x00000000000025d6      0x9b0 c:/intelfpga_lite/16.1/nios2eds/bin/gnu/h-x86_64-mingw32/bin/../lib/gcc/nios2-elf/5.3.0/../../../../../H-x86_64-mingw32/nios2-elf/lib/mhw-mulx\libc.a(lib_a-fwalk.o)
 .debug_info    0x0000000000002f86      0x8a1 c:/intelfpga_lite/16.1/nios2eds/bin/gnu/h-x86_64-mingw32/bin/../lib/gcc/nios2-elf/5.3.0/../../../../../H-x86_64-mingw32/nios2-elf/lib/mhw-mulx\libc.a(lib_a-impure.o)
 .debug_info    0x0000000000003827      0xd57 c:/intelfpga_lite/16.1/nios2eds/bin/gnu/h-x86_64-mingw32/bin/../lib/gcc/nios2-elf/5.3.0/../../../../../H-x86_64-mingw32/nios2-elf/lib/mhw-mulx\libc.a(lib_a-mallocr.o)
 .debug_info    0x000000000000457e      0x132 c:/intelfpga_lite/16.1/nios2eds/bin/gnu/h-x86_64-mingw32/bin/../lib/gcc/nios2-elf/5.3.0/../../../../../H-x86_64-mingw32/nios2-elf/lib/mhw-mulx\libc.a(lib_a-memchr.o)
 .debug_info    0x00000000000046b0      0x144 c:/intelfpga_lite/16.1/nios2eds/bin/gnu/h-x86_64-mingw32/bin/../lib/gcc/nios2-elf/5.3.0/../../../../../H-x86_64-mingw32/nios2-elf/lib/mhw-mulx\libc.a(lib_a-memcpy.o)
 .debug_info    0x00000000000047f4      0x13a c:/intelfpga_lite/16.1/nios2eds/bin/gnu/h-x86_64-mingw32/bin/../lib/gcc/nios2-elf/5.3.0/../../../../../H-x86_64-mingw32/nios2-elf/lib/mhw-mulx\libc.a(lib_a-memmove.o)
 .debug_info    0x000000000000492e      0x121 c:/intelfpga_lite/16.1/nios2eds/bin/gnu/h-x86_64-mingw32/bin/../lib/gcc/nios2-elf/5.3.0/../../../../../H-x86_64-mingw32/nios2-elf/lib/mhw-mulx\libc.a(lib_a-memset.o)
 .debug_info    0x0000000000004a4f      0xc6b c:/intelfpga_lite/16.1/nios2eds/bin/gnu/h-x86_64-mingw32/bin/../lib/gcc/nios2-elf/5.3.0/../../../../../H-x86_64-mingw32/nios2-elf/lib/mhw-mulx\libc.a(lib_a-reallocr.o)
 .debug_info    0x00000000000056ba      0x900 c:/intelfpga_lite/16.1/nios2eds/bin/gnu/h-x86_64-mingw32/bin/../lib/gcc/nios2-elf/5.3.0/../../../../../H-x86_64-mingw32/nios2-elf/lib/mhw-mulx\libc.a(lib_a-sbrkr.o)
 .debug_info    0x0000000000005fba      0xb32 c:/intelfpga_lite/16.1/nios2eds/bin/gnu/h-x86_64-mingw32/bin/../lib/gcc/nios2-elf/5.3.0/../../../../../H-x86_64-mingw32/nios2-elf/lib/mhw-mulx\libc.a(lib_a-stdio.o)
 .debug_info    0x0000000000006aec      0x928 c:/intelfpga_lite/16.1/nios2eds/bin/gnu/h-x86_64-mingw32/bin/../lib/gcc/nios2-elf/5.3.0/../../../../../H-x86_64-mingw32/nios2-elf/lib/mhw-mulx\libc.a(lib_a-writer.o)
 .debug_info    0x0000000000007414      0x936 c:/intelfpga_lite/16.1/nios2eds/bin/gnu/h-x86_64-mingw32/bin/../lib/gcc/nios2-elf/5.3.0/../../../../../H-x86_64-mingw32/nios2-elf/lib/mhw-mulx\libc.a(lib_a-wsetup.o)
 .debug_info    0x0000000000007d4a      0x8df c:/intelfpga_lite/16.1/nios2eds/bin/gnu/h-x86_64-mingw32/bin/../lib/gcc/nios2-elf/5.3.0/../../../../../H-x86_64-mingw32/nios2-elf/lib/mhw-mulx\libc.a(closer.o)
 .debug_info    0x0000000000008629      0xa23 c:/intelfpga_lite/16.1/nios2eds/bin/gnu/h-x86_64-mingw32/bin/../lib/gcc/nios2-elf/5.3.0/../../../../../H-x86_64-mingw32/nios2-elf/lib/mhw-mulx\libc.a(lib_a-fclose.o)
 .debug_info    0x000000000000904c      0xa93 c:/intelfpga_lite/16.1/nios2eds/bin/gnu/h-x86_64-mingw32/bin/../lib/gcc/nios2-elf/5.3.0/../../../../../H-x86_64-mingw32/nios2-elf/lib/mhw-mulx\libc.a(lib_a-fflush.o)
 .debug_info    0x0000000000009adf      0xbf7 c:/intelfpga_lite/16.1/nios2eds/bin/gnu/h-x86_64-mingw32/bin/../lib/gcc/nios2-elf/5.3.0/../../../../../H-x86_64-mingw32/nios2-elf/lib/mhw-mulx\libc.a(lib_a-freer.o)
 .debug_info    0x000000000000a6d6       0x8a c:/intelfpga_lite/16.1/nios2eds/bin/gnu/h-x86_64-mingw32/bin/../lib/gcc/nios2-elf/5.3.0/../../../../../H-x86_64-mingw32/nios2-elf/lib/mhw-mulx\libc.a(lib_a-int_errno.o)
 .debug_info    0x000000000000a760      0x90b c:/intelfpga_lite/16.1/nios2eds/bin/gnu/h-x86_64-mingw32/bin/../lib/gcc/nios2-elf/5.3.0/../../../../../H-x86_64-mingw32/nios2-elf/lib/mhw-mulx\libc.a(lib_a-lseekr.o)
 .debug_info    0x000000000000b06b      0xad8 c:/intelfpga_lite/16.1/nios2eds/bin/gnu/h-x86_64-mingw32/bin/../lib/gcc/nios2-elf/5.3.0/../../../../../H-x86_64-mingw32/nios2-elf/lib/mhw-mulx\libc.a(lib_a-makebuf.o)
 .debug_info    0x000000000000bb43      0x921 c:/intelfpga_lite/16.1/nios2eds/bin/gnu/h-x86_64-mingw32/bin/../lib/gcc/nios2-elf/5.3.0/../../../../../H-x86_64-mingw32/nios2-elf/lib/mhw-mulx\libc.a(lib_a-readr.o)
 .debug_info    0x000000000000c464      0xa5d c:/intelfpga_lite/16.1/nios2eds/bin/gnu/h-x86_64-mingw32/bin/../lib/gcc/nios2-elf/5.3.0/../../../../../H-x86_64-mingw32/nios2-elf/lib/mhw-mulx\libc.a(lib_a-fstatr.o)
 .debug_info    0x000000000000cec1      0x8df c:/intelfpga_lite/16.1/nios2eds/bin/gnu/h-x86_64-mingw32/bin/../lib/gcc/nios2-elf/5.3.0/../../../../../H-x86_64-mingw32/nios2-elf/lib/mhw-mulx\libc.a(lib_a-isattyr.o)
 .debug_info    0x000000000000d7a0      0x2c6 c:/intelfpga_lite/16.1/nios2eds/bin/gnu/h-x86_64-mingw32/bin/../lib/gcc/nios2-elf/5.3.0/mhw-mulx\libgcc.a(lib2-divmod.o)
 .debug_info    0x000000000000da66      0x36b C:/Users/Artee/Documents/ESAKBS2/nioseclipse_bsp/\libucosii_bsp.a(alt_close.o)
 .debug_info    0x000000000000ddd1      0x59b C:/Users/Artee/Documents/ESAKBS2/nioseclipse_bsp/\libucosii_bsp.a(alt_dev.o)
 .debug_info    0x000000000000e36c       0xa6 C:/Users/Artee/Documents/ESAKBS2/nioseclipse_bsp/\libucosii_bsp.a(alt_errno.o)
 .debug_info    0x000000000000e412      0x4d2 C:/Users/Artee/Documents/ESAKBS2/nioseclipse_bsp/\libucosii_bsp.a(alt_fstat.o)
 .debug_info    0x000000000000e8e4      0x4d5 C:/Users/Artee/Documents/ESAKBS2/nioseclipse_bsp/\libucosii_bsp.a(alt_isatty.o)
 .debug_info    0x000000000000edb9      0x145 C:/Users/Artee/Documents/ESAKBS2/nioseclipse_bsp/\libucosii_bsp.a(alt_load.o)
 .debug_info    0x000000000000eefe      0x39c C:/Users/Artee/Documents/ESAKBS2/nioseclipse_bsp/\libucosii_bsp.a(alt_lseek.o)
 .debug_info    0x000000000000f29a      0x283 C:/Users/Artee/Documents/ESAKBS2/nioseclipse_bsp/\libucosii_bsp.a(alt_main.o)
 .debug_info    0x000000000000f51d      0x4fa C:/Users/Artee/Documents/ESAKBS2/nioseclipse_bsp/\libucosii_bsp.a(alt_read.o)
 .debug_info    0x000000000000fa17      0x30f C:/Users/Artee/Documents/ESAKBS2/nioseclipse_bsp/\libucosii_bsp.a(alt_release_fd.o)
 .debug_info    0x000000000000fd26      0x1d2 C:/Users/Artee/Documents/ESAKBS2/nioseclipse_bsp/\libucosii_bsp.a(alt_sbrk.o)
 .debug_info    0x000000000000fef8      0x501 C:/Users/Artee/Documents/ESAKBS2/nioseclipse_bsp/\libucosii_bsp.a(alt_write.o)
 .debug_info    0x00000000000103f9      0xc7d C:/Users/Artee/Documents/ESAKBS2/nioseclipse_bsp/\libucosii_bsp.a(alt_env_lock.o)
 .debug_info    0x0000000000011076      0xdc3 C:/Users/Artee/Documents/ESAKBS2/nioseclipse_bsp/\libucosii_bsp.a(alt_malloc_lock.o)
 .debug_info    0x0000000000011e39     0x15cf C:/Users/Artee/Documents/ESAKBS2/nioseclipse_bsp/\libucosii_bsp.a(os_core.o)
 .debug_info    0x0000000000013408      0xabe C:/Users/Artee/Documents/ESAKBS2/nioseclipse_bsp/\libucosii_bsp.a(os_dbg.o)
 .debug_info    0x0000000000013ec6      0xfb2 C:/Users/Artee/Documents/ESAKBS2/nioseclipse_bsp/\libucosii_bsp.a(os_flag.o)
 .debug_info    0x0000000000014e78      0x690 C:/Users/Artee/Documents/ESAKBS2/nioseclipse_bsp/\libucosii_bsp.a(os_mem.o)
 .debug_info    0x0000000000015508      0xdb9 C:/Users/Artee/Documents/ESAKBS2/nioseclipse_bsp/\libucosii_bsp.a(os_q.o)
 .debug_info    0x00000000000162c1      0xa1a C:/Users/Artee/Documents/ESAKBS2/nioseclipse_bsp/\libucosii_bsp.a(os_sem.o)
 .debug_info    0x0000000000016cdb     0x112d C:/Users/Artee/Documents/ESAKBS2/nioseclipse_bsp/\libucosii_bsp.a(os_task.o)
 .debug_info    0x0000000000017e08      0x6ff C:/Users/Artee/Documents/ESAKBS2/nioseclipse_bsp/\libucosii_bsp.a(os_time.o)
 .debug_info    0x0000000000018507      0xbf8 C:/Users/Artee/Documents/ESAKBS2/nioseclipse_bsp/\libucosii_bsp.a(alt_sys_init.o)
 .debug_info    0x00000000000190ff      0x691 C:/Users/Artee/Documents/ESAKBS2/nioseclipse_bsp/\libucosii_bsp.a(altera_avalon_jtag_uart_fd.o)
 .debug_info    0x0000000000019790      0x6d6 C:/Users/Artee/Documents/ESAKBS2/nioseclipse_bsp/\libucosii_bsp.a(altera_avalon_jtag_uart_init.o)
 .debug_info    0x0000000000019e66      0x3e3 C:/Users/Artee/Documents/ESAKBS2/nioseclipse_bsp/\libucosii_bsp.a(altera_avalon_jtag_uart_ioctl.o)
 .debug_info    0x000000000001a249      0x590 C:/Users/Artee/Documents/ESAKBS2/nioseclipse_bsp/\libucosii_bsp.a(altera_avalon_jtag_uart_read.o)
 .debug_info    0x000000000001a7d9      0x58f C:/Users/Artee/Documents/ESAKBS2/nioseclipse_bsp/\libucosii_bsp.a(altera_avalon_jtag_uart_write.o)
 .debug_info    0x000000000001ad68      0x249 C:/Users/Artee/Documents/ESAKBS2/nioseclipse_bsp/\libucosii_bsp.a(altera_avalon_timer_sc.o)
 .debug_info    0x000000000001afb1      0x625 C:/Users/Artee/Documents/ESAKBS2/nioseclipse_bsp/\libucosii_bsp.a(altera_up_avalon_character_lcd.o)
 .debug_info    0x000000000001b5d6      0x5a7 C:/Users/Artee/Documents/ESAKBS2/nioseclipse_bsp/\libucosii_bsp.a(altera_up_avalon_irda.o)
 .debug_info    0x000000000001bb7d      0x813 C:/Users/Artee/Documents/ESAKBS2/nioseclipse_bsp/\libucosii_bsp.a(altera_up_avalon_ps2.o)
 .debug_info    0x000000000001c390      0x5a7 C:/Users/Artee/Documents/ESAKBS2/nioseclipse_bsp/\libucosii_bsp.a(altera_up_avalon_rs232.o)
 .debug_info    0x000000000001c937      0x2e2 C:/Users/Artee/Documents/ESAKBS2/nioseclipse_bsp/\libucosii_bsp.a(alt_alarm_start.o)
 .debug_info    0x000000000001cc19       0x92 C:/Users/Artee/Documents/ESAKBS2/nioseclipse_bsp/\libucosii_bsp.a(alt_dcache_flush_all.o)
 .debug_info    0x000000000001ccab      0x1a9 C:/Users/Artee/Documents/ESAKBS2/nioseclipse_bsp/\libucosii_bsp.a(alt_dev_llist_insert.o)
 .debug_info    0x000000000001ce54       0x83 C:/Users/Artee/Documents/ESAKBS2/nioseclipse_bsp/\libucosii_bsp.a(alt_do_ctors.o)
 .debug_info    0x000000000001ced7       0x83 C:/Users/Artee/Documents/ESAKBS2/nioseclipse_bsp/\libucosii_bsp.a(alt_do_dtors.o)
 .debug_info    0x000000000001cf5a      0x333 C:/Users/Artee/Documents/ESAKBS2/nioseclipse_bsp/\libucosii_bsp.a(alt_find_dev.o)
 .debug_info    0x000000000001d28d       0x92 C:/Users/Artee/Documents/ESAKBS2/nioseclipse_bsp/\libucosii_bsp.a(alt_icache_flush_all.o)
 .debug_info    0x000000000001d31f      0x4ef C:/Users/Artee/Documents/ESAKBS2/nioseclipse_bsp/\libucosii_bsp.a(alt_io_redirect.o)
 .debug_info    0x000000000001d80e      0x34d C:/Users/Artee/Documents/ESAKBS2/nioseclipse_bsp/\libucosii_bsp.a(alt_irq_register.o)
 .debug_info    0x000000000001db5b       0x88 C:/Users/Artee/Documents/ESAKBS2/nioseclipse_bsp/\libucosii_bsp.a(alt_irq_vars.o)
 .debug_info    0x000000000001dbe3      0x3fa C:/Users/Artee/Documents/ESAKBS2/nioseclipse_bsp/\libucosii_bsp.a(alt_open.o)
 .debug_info    0x000000000001dfdd      0x2bd C:/Users/Artee/Documents/ESAKBS2/nioseclipse_bsp/\libucosii_bsp.a(alt_tick.o)
 .debug_info    0x000000000001e29a       0xb8 C:/Users/Artee/Documents/ESAKBS2/nioseclipse_bsp/\libucosii_bsp.a(altera_nios2_gen2_irq.o)
 .debug_info    0x000000000001e352       0x6d C:/Users/Artee/Documents/ESAKBS2/nioseclipse_bsp/\libucosii_bsp.a(os_cpu_a.o)
 .debug_info    0x000000000001e3bf      0xd00 C:/Users/Artee/Documents/ESAKBS2/nioseclipse_bsp/\libucosii_bsp.a(os_cpu_c.o)
 .debug_info    0x000000000001f0bf      0x330 C:/Users/Artee/Documents/ESAKBS2/nioseclipse_bsp/\libucosii_bsp.a(alt_find_file.o)
 .debug_info    0x000000000001f3ef      0x461 C:/Users/Artee/Documents/ESAKBS2/nioseclipse_bsp/\libucosii_bsp.a(alt_get_fd.o)
 .debug_info    0x000000000001f850       0xdc C:/Users/Artee/Documents/ESAKBS2/nioseclipse_bsp/\libucosii_bsp.a(alt_icache_flush.o)
 .debug_info    0x000000000001f92c       0x6e C:/Users/Artee/Documents/ESAKBS2/nioseclipse_bsp/\libucosii_bsp.a(alt_irq_entry.o)
 .debug_info    0x000000000001f99a      0x1cb C:/Users/Artee/Documents/ESAKBS2/nioseclipse_bsp/\libucosii_bsp.a(alt_irq_handler.o)
 .debug_info    0x000000000001fb65       0x74 C:/Users/Artee/Documents/ESAKBS2/nioseclipse_bsp/\libucosii_bsp.a(alt_exception_entry.o)
 .debug_info    0x000000000001fbd9      0x1e7 C:/Users/Artee/Documents/ESAKBS2/nioseclipse_bsp/\libucosii_bsp.a(alt_instruction_exception_entry.o)
 .debug_info    0x000000000001fdc0       0xfe c:/intelfpga_lite/16.1/nios2eds/bin/gnu/h-x86_64-mingw32/bin/../lib/gcc/nios2-elf/5.3.0/../../../../../H-x86_64-mingw32/nios2-elf/lib/mhw-mulx\libc.a(lib_a-atexit.o)
 .debug_info    0x000000000001febe      0x8e4 c:/intelfpga_lite/16.1/nios2eds/bin/gnu/h-x86_64-mingw32/bin/../lib/gcc/nios2-elf/5.3.0/../../../../../H-x86_64-mingw32/nios2-elf/lib/mhw-mulx\libc.a(lib_a-exit.o)
 .debug_info    0x00000000000207a2      0x11a c:/intelfpga_lite/16.1/nios2eds/bin/gnu/h-x86_64-mingw32/bin/../lib/gcc/nios2-elf/5.3.0/../../../../../H-x86_64-mingw32/nios2-elf/lib/mhw-mulx\libc.a(lib_a-memcmp.o)
 .debug_info    0x00000000000208bc      0x934 c:/intelfpga_lite/16.1/nios2eds/bin/gnu/h-x86_64-mingw32/bin/../lib/gcc/nios2-elf/5.3.0/../../../../../H-x86_64-mingw32/nios2-elf/lib/mhw-mulx\libc.a(lib_a-__atexit.o)
 .debug_info    0x00000000000211f0      0x965 c:/intelfpga_lite/16.1/nios2eds/bin/gnu/h-x86_64-mingw32/bin/../lib/gcc/nios2-elf/5.3.0/../../../../../H-x86_64-mingw32/nios2-elf/lib/mhw-mulx\libc.a(lib_a-__call_atexit.o)
 .debug_info    0x0000000000021b55      0x151 C:/Users/Artee/Documents/ESAKBS2/nioseclipse_bsp/\libucosii_bsp.a(alt_exit.o)

.debug_abbrev   0x0000000000000000     0x7f77
 *(.debug_abbrev)
 .debug_abbrev  0x0000000000000000       0x12 C:/Users/Artee/Documents/ESAKBS2/nioseclipse_bsp//obj/HAL/src/crt0.o
 .debug_abbrev  0x0000000000000012       0xbc obj/default/hello_ucosii.o
 .debug_abbrev  0x00000000000000ce      0x249 c:/intelfpga_lite/16.1/nios2eds/bin/gnu/h-x86_64-mingw32/bin/../lib/gcc/nios2-elf/5.3.0/../../../../../H-x86_64-mingw32/nios2-elf/lib/mhw-mulx\libc.a(lib_a-puts.o)
 .debug_abbrev  0x0000000000000317       0x90 c:/intelfpga_lite/16.1/nios2eds/bin/gnu/h-x86_64-mingw32/bin/../lib/gcc/nios2-elf/5.3.0/../../../../../H-x86_64-mingw32/nios2-elf/lib/mhw-mulx\libc.a(lib_a-strlen.o)
 .debug_abbrev  0x00000000000003a7      0x391 c:/intelfpga_lite/16.1/nios2eds/bin/gnu/h-x86_64-mingw32/bin/../lib/gcc/nios2-elf/5.3.0/../../../../../H-x86_64-mingw32/nios2-elf/lib/mhw-mulx\libc.a(lib_a-findfp.o)
 .debug_abbrev  0x0000000000000738      0x228 c:/intelfpga_lite/16.1/nios2eds/bin/gnu/h-x86_64-mingw32/bin/../lib/gcc/nios2-elf/5.3.0/../../../../../H-x86_64-mingw32/nios2-elf/lib/mhw-mulx\libc.a(lib_a-fvwrite.o)
 .debug_abbrev  0x0000000000000960      0x1d1 c:/intelfpga_lite/16.1/nios2eds/bin/gnu/h-x86_64-mingw32/bin/../lib/gcc/nios2-elf/5.3.0/../../../../../H-x86_64-mingw32/nios2-elf/lib/mhw-mulx\libc.a(lib_a-fwalk.o)
 .debug_abbrev  0x0000000000000b31      0x18f c:/intelfpga_lite/16.1/nios2eds/bin/gnu/h-x86_64-mingw32/bin/../lib/gcc/nios2-elf/5.3.0/../../../../../H-x86_64-mingw32/nios2-elf/lib/mhw-mulx\libc.a(lib_a-impure.o)
 .debug_abbrev  0x0000000000000cc0      0x29d c:/intelfpga_lite/16.1/nios2eds/bin/gnu/h-x86_64-mingw32/bin/../lib/gcc/nios2-elf/5.3.0/../../../../../H-x86_64-mingw32/nios2-elf/lib/mhw-mulx\libc.a(lib_a-mallocr.o)
 .debug_abbrev  0x0000000000000f5d       0xab c:/intelfpga_lite/16.1/nios2eds/bin/gnu/h-x86_64-mingw32/bin/../lib/gcc/nios2-elf/5.3.0/../../../../../H-x86_64-mingw32/nios2-elf/lib/mhw-mulx\libc.a(lib_a-memchr.o)
 .debug_abbrev  0x0000000000001008       0xa3 c:/intelfpga_lite/16.1/nios2eds/bin/gnu/h-x86_64-mingw32/bin/../lib/gcc/nios2-elf/5.3.0/../../../../../H-x86_64-mingw32/nios2-elf/lib/mhw-mulx\libc.a(lib_a-memcpy.o)
 .debug_abbrev  0x00000000000010ab       0x9c c:/intelfpga_lite/16.1/nios2eds/bin/gnu/h-x86_64-mingw32/bin/../lib/gcc/nios2-elf/5.3.0/../../../../../H-x86_64-mingw32/nios2-elf/lib/mhw-mulx\libc.a(lib_a-memmove.o)
 .debug_abbrev  0x0000000000001147       0xae c:/intelfpga_lite/16.1/nios2eds/bin/gnu/h-x86_64-mingw32/bin/../lib/gcc/nios2-elf/5.3.0/../../../../../H-x86_64-mingw32/nios2-elf/lib/mhw-mulx\libc.a(lib_a-memset.o)
 .debug_abbrev  0x00000000000011f5      0x231 c:/intelfpga_lite/16.1/nios2eds/bin/gnu/h-x86_64-mingw32/bin/../lib/gcc/nios2-elf/5.3.0/../../../../../H-x86_64-mingw32/nios2-elf/lib/mhw-mulx\libc.a(lib_a-reallocr.o)
 .debug_abbrev  0x0000000000001426      0x20a c:/intelfpga_lite/16.1/nios2eds/bin/gnu/h-x86_64-mingw32/bin/../lib/gcc/nios2-elf/5.3.0/../../../../../H-x86_64-mingw32/nios2-elf/lib/mhw-mulx\libc.a(lib_a-sbrkr.o)
 .debug_abbrev  0x0000000000001630      0x239 c:/intelfpga_lite/16.1/nios2eds/bin/gnu/h-x86_64-mingw32/bin/../lib/gcc/nios2-elf/5.3.0/../../../../../H-x86_64-mingw32/nios2-elf/lib/mhw-mulx\libc.a(lib_a-stdio.o)
 .debug_abbrev  0x0000000000001869      0x1eb c:/intelfpga_lite/16.1/nios2eds/bin/gnu/h-x86_64-mingw32/bin/../lib/gcc/nios2-elf/5.3.0/../../../../../H-x86_64-mingw32/nios2-elf/lib/mhw-mulx\libc.a(lib_a-writer.o)
 .debug_abbrev  0x0000000000001a54      0x218 c:/intelfpga_lite/16.1/nios2eds/bin/gnu/h-x86_64-mingw32/bin/../lib/gcc/nios2-elf/5.3.0/../../../../../H-x86_64-mingw32/nios2-elf/lib/mhw-mulx\libc.a(lib_a-wsetup.o)
 .debug_abbrev  0x0000000000001c6c      0x1e6 c:/intelfpga_lite/16.1/nios2eds/bin/gnu/h-x86_64-mingw32/bin/../lib/gcc/nios2-elf/5.3.0/../../../../../H-x86_64-mingw32/nios2-elf/lib/mhw-mulx\libc.a(closer.o)
 .debug_abbrev  0x0000000000001e52      0x2a2 c:/intelfpga_lite/16.1/nios2eds/bin/gnu/h-x86_64-mingw32/bin/../lib/gcc/nios2-elf/5.3.0/../../../../../H-x86_64-mingw32/nios2-elf/lib/mhw-mulx\libc.a(lib_a-fclose.o)
 .debug_abbrev  0x00000000000020f4      0x2a0 c:/intelfpga_lite/16.1/nios2eds/bin/gnu/h-x86_64-mingw32/bin/../lib/gcc/nios2-elf/5.3.0/../../../../../H-x86_64-mingw32/nios2-elf/lib/mhw-mulx\libc.a(lib_a-fflush.o)
 .debug_abbrev  0x0000000000002394      0x264 c:/intelfpga_lite/16.1/nios2eds/bin/gnu/h-x86_64-mingw32/bin/../lib/gcc/nios2-elf/5.3.0/../../../../../H-x86_64-mingw32/nios2-elf/lib/mhw-mulx\libc.a(lib_a-freer.o)
 .debug_abbrev  0x00000000000025f8       0x37 c:/intelfpga_lite/16.1/nios2eds/bin/gnu/h-x86_64-mingw32/bin/../lib/gcc/nios2-elf/5.3.0/../../../../../H-x86_64-mingw32/nios2-elf/lib/mhw-mulx\libc.a(lib_a-int_errno.o)
 .debug_abbrev  0x000000000000262f      0x1f5 c:/intelfpga_lite/16.1/nios2eds/bin/gnu/h-x86_64-mingw32/bin/../lib/gcc/nios2-elf/5.3.0/../../../../../H-x86_64-mingw32/nios2-elf/lib/mhw-mulx\libc.a(lib_a-lseekr.o)
 .debug_abbrev  0x0000000000002824      0x20f c:/intelfpga_lite/16.1/nios2eds/bin/gnu/h-x86_64-mingw32/bin/../lib/gcc/nios2-elf/5.3.0/../../../../../H-x86_64-mingw32/nios2-elf/lib/mhw-mulx\libc.a(lib_a-makebuf.o)
 .debug_abbrev  0x0000000000002a33      0x1e6 c:/intelfpga_lite/16.1/nios2eds/bin/gnu/h-x86_64-mingw32/bin/../lib/gcc/nios2-elf/5.3.0/../../../../../H-x86_64-mingw32/nios2-elf/lib/mhw-mulx\libc.a(lib_a-readr.o)
 .debug_abbrev  0x0000000000002c19      0x1f5 c:/intelfpga_lite/16.1/nios2eds/bin/gnu/h-x86_64-mingw32/bin/../lib/gcc/nios2-elf/5.3.0/../../../../../H-x86_64-mingw32/nios2-elf/lib/mhw-mulx\libc.a(lib_a-fstatr.o)
 .debug_abbrev  0x0000000000002e0e      0x1e6 c:/intelfpga_lite/16.1/nios2eds/bin/gnu/h-x86_64-mingw32/bin/../lib/gcc/nios2-elf/5.3.0/../../../../../H-x86_64-mingw32/nios2-elf/lib/mhw-mulx\libc.a(lib_a-isattyr.o)
 .debug_abbrev  0x0000000000002ff4      0x10e c:/intelfpga_lite/16.1/nios2eds/bin/gnu/h-x86_64-mingw32/bin/../lib/gcc/nios2-elf/5.3.0/mhw-mulx\libgcc.a(lib2-divmod.o)
 .debug_abbrev  0x0000000000003102      0x126 C:/Users/Artee/Documents/ESAKBS2/nioseclipse_bsp/\libucosii_bsp.a(alt_close.o)
 .debug_abbrev  0x0000000000003228      0x11c C:/Users/Artee/Documents/ESAKBS2/nioseclipse_bsp/\libucosii_bsp.a(alt_dev.o)
 .debug_abbrev  0x0000000000003344       0x5a C:/Users/Artee/Documents/ESAKBS2/nioseclipse_bsp/\libucosii_bsp.a(alt_errno.o)
 .debug_abbrev  0x000000000000339e      0x126 C:/Users/Artee/Documents/ESAKBS2/nioseclipse_bsp/\libucosii_bsp.a(alt_fstat.o)
 .debug_abbrev  0x00000000000034c4      0x126 C:/Users/Artee/Documents/ESAKBS2/nioseclipse_bsp/\libucosii_bsp.a(alt_isatty.o)
 .debug_abbrev  0x00000000000035ea       0x9f C:/Users/Artee/Documents/ESAKBS2/nioseclipse_bsp/\libucosii_bsp.a(alt_load.o)
 .debug_abbrev  0x0000000000003689      0x126 C:/Users/Artee/Documents/ESAKBS2/nioseclipse_bsp/\libucosii_bsp.a(alt_lseek.o)
 .debug_abbrev  0x00000000000037af      0x139 C:/Users/Artee/Documents/ESAKBS2/nioseclipse_bsp/\libucosii_bsp.a(alt_main.o)
 .debug_abbrev  0x00000000000038e8      0x135 C:/Users/Artee/Documents/ESAKBS2/nioseclipse_bsp/\libucosii_bsp.a(alt_read.o)
 .debug_abbrev  0x0000000000003a1d       0xe5 C:/Users/Artee/Documents/ESAKBS2/nioseclipse_bsp/\libucosii_bsp.a(alt_release_fd.o)
 .debug_abbrev  0x0000000000003b02      0x119 C:/Users/Artee/Documents/ESAKBS2/nioseclipse_bsp/\libucosii_bsp.a(alt_sbrk.o)
 .debug_abbrev  0x0000000000003c1b      0x13a C:/Users/Artee/Documents/ESAKBS2/nioseclipse_bsp/\libucosii_bsp.a(alt_write.o)
 .debug_abbrev  0x0000000000003d55      0x1e3 C:/Users/Artee/Documents/ESAKBS2/nioseclipse_bsp/\libucosii_bsp.a(alt_env_lock.o)
 .debug_abbrev  0x0000000000003f38      0x26d C:/Users/Artee/Documents/ESAKBS2/nioseclipse_bsp/\libucosii_bsp.a(alt_malloc_lock.o)
 .debug_abbrev  0x00000000000041a5      0x302 C:/Users/Artee/Documents/ESAKBS2/nioseclipse_bsp/\libucosii_bsp.a(os_core.o)
 .debug_abbrev  0x00000000000044a7       0xf7 C:/Users/Artee/Documents/ESAKBS2/nioseclipse_bsp/\libucosii_bsp.a(os_dbg.o)
 .debug_abbrev  0x000000000000459e      0x25a C:/Users/Artee/Documents/ESAKBS2/nioseclipse_bsp/\libucosii_bsp.a(os_flag.o)
 .debug_abbrev  0x00000000000047f8      0x228 C:/Users/Artee/Documents/ESAKBS2/nioseclipse_bsp/\libucosii_bsp.a(os_mem.o)
 .debug_abbrev  0x0000000000004a20      0x248 C:/Users/Artee/Documents/ESAKBS2/nioseclipse_bsp/\libucosii_bsp.a(os_q.o)
 .debug_abbrev  0x0000000000004c68      0x262 C:/Users/Artee/Documents/ESAKBS2/nioseclipse_bsp/\libucosii_bsp.a(os_sem.o)
 .debug_abbrev  0x0000000000004eca      0x247 C:/Users/Artee/Documents/ESAKBS2/nioseclipse_bsp/\libucosii_bsp.a(os_task.o)
 .debug_abbrev  0x0000000000005111      0x20c C:/Users/Artee/Documents/ESAKBS2/nioseclipse_bsp/\libucosii_bsp.a(os_time.o)
 .debug_abbrev  0x000000000000531d      0x1ef C:/Users/Artee/Documents/ESAKBS2/nioseclipse_bsp/\libucosii_bsp.a(alt_sys_init.o)
 .debug_abbrev  0x000000000000550c      0x16c C:/Users/Artee/Documents/ESAKBS2/nioseclipse_bsp/\libucosii_bsp.a(altera_avalon_jtag_uart_fd.o)
 .debug_abbrev  0x0000000000005678      0x24f C:/Users/Artee/Documents/ESAKBS2/nioseclipse_bsp/\libucosii_bsp.a(altera_avalon_jtag_uart_init.o)
 .debug_abbrev  0x00000000000058c7      0x156 C:/Users/Artee/Documents/ESAKBS2/nioseclipse_bsp/\libucosii_bsp.a(altera_avalon_jtag_uart_ioctl.o)
 .debug_abbrev  0x0000000000005a1d      0x1f8 C:/Users/Artee/Documents/ESAKBS2/nioseclipse_bsp/\libucosii_bsp.a(altera_avalon_jtag_uart_read.o)
 .debug_abbrev  0x0000000000005c15      0x1f6 C:/Users/Artee/Documents/ESAKBS2/nioseclipse_bsp/\libucosii_bsp.a(altera_avalon_jtag_uart_write.o)
 .debug_abbrev  0x0000000000005e0b      0x155 C:/Users/Artee/Documents/ESAKBS2/nioseclipse_bsp/\libucosii_bsp.a(altera_avalon_timer_sc.o)
 .debug_abbrev  0x0000000000005f60      0x156 C:/Users/Artee/Documents/ESAKBS2/nioseclipse_bsp/\libucosii_bsp.a(altera_up_avalon_character_lcd.o)
 .debug_abbrev  0x00000000000060b6      0x13c C:/Users/Artee/Documents/ESAKBS2/nioseclipse_bsp/\libucosii_bsp.a(altera_up_avalon_irda.o)
 .debug_abbrev  0x00000000000061f2      0x1a8 C:/Users/Artee/Documents/ESAKBS2/nioseclipse_bsp/\libucosii_bsp.a(altera_up_avalon_ps2.o)
 .debug_abbrev  0x000000000000639a      0x13c C:/Users/Artee/Documents/ESAKBS2/nioseclipse_bsp/\libucosii_bsp.a(altera_up_avalon_rs232.o)
 .debug_abbrev  0x00000000000064d6      0x162 C:/Users/Artee/Documents/ESAKBS2/nioseclipse_bsp/\libucosii_bsp.a(alt_alarm_start.o)
 .debug_abbrev  0x0000000000006638       0x42 C:/Users/Artee/Documents/ESAKBS2/nioseclipse_bsp/\libucosii_bsp.a(alt_dcache_flush_all.o)
 .debug_abbrev  0x000000000000667a      0x114 C:/Users/Artee/Documents/ESAKBS2/nioseclipse_bsp/\libucosii_bsp.a(alt_dev_llist_insert.o)
 .debug_abbrev  0x000000000000678e       0x79 C:/Users/Artee/Documents/ESAKBS2/nioseclipse_bsp/\libucosii_bsp.a(alt_do_ctors.o)
 .debug_abbrev  0x0000000000006807       0x79 C:/Users/Artee/Documents/ESAKBS2/nioseclipse_bsp/\libucosii_bsp.a(alt_do_dtors.o)
 .debug_abbrev  0x0000000000006880       0xf7 C:/Users/Artee/Documents/ESAKBS2/nioseclipse_bsp/\libucosii_bsp.a(alt_find_dev.o)
 .debug_abbrev  0x0000000000006977       0x42 C:/Users/Artee/Documents/ESAKBS2/nioseclipse_bsp/\libucosii_bsp.a(alt_icache_flush_all.o)
 .debug_abbrev  0x00000000000069b9      0x11b C:/Users/Artee/Documents/ESAKBS2/nioseclipse_bsp/\libucosii_bsp.a(alt_io_redirect.o)
 .debug_abbrev  0x0000000000006ad4      0x186 C:/Users/Artee/Documents/ESAKBS2/nioseclipse_bsp/\libucosii_bsp.a(alt_irq_register.o)
 .debug_abbrev  0x0000000000006c5a       0x40 C:/Users/Artee/Documents/ESAKBS2/nioseclipse_bsp/\libucosii_bsp.a(alt_irq_vars.o)
 .debug_abbrev  0x0000000000006c9a      0x14f C:/Users/Artee/Documents/ESAKBS2/nioseclipse_bsp/\libucosii_bsp.a(alt_open.o)
 .debug_abbrev  0x0000000000006de9      0x16b C:/Users/Artee/Documents/ESAKBS2/nioseclipse_bsp/\libucosii_bsp.a(alt_tick.o)
 .debug_abbrev  0x0000000000006f54       0x67 C:/Users/Artee/Documents/ESAKBS2/nioseclipse_bsp/\libucosii_bsp.a(altera_nios2_gen2_irq.o)
 .debug_abbrev  0x0000000000006fbb       0x14 C:/Users/Artee/Documents/ESAKBS2/nioseclipse_bsp/\libucosii_bsp.a(os_cpu_a.o)
 .debug_abbrev  0x0000000000006fcf      0x215 C:/Users/Artee/Documents/ESAKBS2/nioseclipse_bsp/\libucosii_bsp.a(os_cpu_c.o)
 .debug_abbrev  0x00000000000071e4       0xf7 C:/Users/Artee/Documents/ESAKBS2/nioseclipse_bsp/\libucosii_bsp.a(alt_find_file.o)
 .debug_abbrev  0x00000000000072db      0x19b C:/Users/Artee/Documents/ESAKBS2/nioseclipse_bsp/\libucosii_bsp.a(alt_get_fd.o)
 .debug_abbrev  0x0000000000007476       0x8c C:/Users/Artee/Documents/ESAKBS2/nioseclipse_bsp/\libucosii_bsp.a(alt_icache_flush.o)
 .debug_abbrev  0x0000000000007502       0x12 C:/Users/Artee/Documents/ESAKBS2/nioseclipse_bsp/\libucosii_bsp.a(alt_irq_entry.o)
 .debug_abbrev  0x0000000000007514      0x13a C:/Users/Artee/Documents/ESAKBS2/nioseclipse_bsp/\libucosii_bsp.a(alt_irq_handler.o)
 .debug_abbrev  0x000000000000764e       0x12 C:/Users/Artee/Documents/ESAKBS2/nioseclipse_bsp/\libucosii_bsp.a(alt_exception_entry.o)
 .debug_abbrev  0x0000000000007660       0xdc C:/Users/Artee/Documents/ESAKBS2/nioseclipse_bsp/\libucosii_bsp.a(alt_instruction_exception_entry.o)
 .debug_abbrev  0x000000000000773c       0xaa c:/intelfpga_lite/16.1/nios2eds/bin/gnu/h-x86_64-mingw32/bin/../lib/gcc/nios2-elf/5.3.0/../../../../../H-x86_64-mingw32/nios2-elf/lib/mhw-mulx\libc.a(lib_a-atexit.o)
 .debug_abbrev  0x00000000000077e6      0x1e5 c:/intelfpga_lite/16.1/nios2eds/bin/gnu/h-x86_64-mingw32/bin/../lib/gcc/nios2-elf/5.3.0/../../../../../H-x86_64-mingw32/nios2-elf/lib/mhw-mulx\libc.a(lib_a-exit.o)
 .debug_abbrev  0x00000000000079cb       0x7f c:/intelfpga_lite/16.1/nios2eds/bin/gnu/h-x86_64-mingw32/bin/../lib/gcc/nios2-elf/5.3.0/../../../../../H-x86_64-mingw32/nios2-elf/lib/mhw-mulx\libc.a(lib_a-memcmp.o)
 .debug_abbrev  0x0000000000007a4a      0x21e c:/intelfpga_lite/16.1/nios2eds/bin/gnu/h-x86_64-mingw32/bin/../lib/gcc/nios2-elf/5.3.0/../../../../../H-x86_64-mingw32/nios2-elf/lib/mhw-mulx\libc.a(lib_a-__atexit.o)
 .debug_abbrev  0x0000000000007c68      0x22e c:/intelfpga_lite/16.1/nios2eds/bin/gnu/h-x86_64-mingw32/bin/../lib/gcc/nios2-elf/5.3.0/../../../../../H-x86_64-mingw32/nios2-elf/lib/mhw-mulx\libc.a(lib_a-__call_atexit.o)
 .debug_abbrev  0x0000000000007e96       0xe1 C:/Users/Artee/Documents/ESAKBS2/nioseclipse_bsp/\libucosii_bsp.a(alt_exit.o)

.debug_line     0x0000000000000000     0x9ae9
 *(.debug_line)
 .debug_line    0x0000000000000000       0x6c C:/Users/Artee/Documents/ESAKBS2/nioseclipse_bsp//obj/HAL/src/crt0.o
 .debug_line    0x000000000000006c      0x124 obj/default/hello_ucosii.o
 .debug_line    0x0000000000000190      0x248 c:/intelfpga_lite/16.1/nios2eds/bin/gnu/h-x86_64-mingw32/bin/../lib/gcc/nios2-elf/5.3.0/../../../../../H-x86_64-mingw32/nios2-elf/lib/mhw-mulx\libc.a(lib_a-puts.o)
 .debug_line    0x00000000000003d8      0x16f c:/intelfpga_lite/16.1/nios2eds/bin/gnu/h-x86_64-mingw32/bin/../lib/gcc/nios2-elf/5.3.0/../../../../../H-x86_64-mingw32/nios2-elf/lib/mhw-mulx\libc.a(lib_a-strlen.o)
 .debug_line    0x0000000000000547      0x372 c:/intelfpga_lite/16.1/nios2eds/bin/gnu/h-x86_64-mingw32/bin/../lib/gcc/nios2-elf/5.3.0/../../../../../H-x86_64-mingw32/nios2-elf/lib/mhw-mulx\libc.a(lib_a-findfp.o)
 .debug_line    0x00000000000008b9      0x345 c:/intelfpga_lite/16.1/nios2eds/bin/gnu/h-x86_64-mingw32/bin/../lib/gcc/nios2-elf/5.3.0/../../../../../H-x86_64-mingw32/nios2-elf/lib/mhw-mulx\libc.a(lib_a-fvwrite.o)
 .debug_line    0x0000000000000bfe      0x23a c:/intelfpga_lite/16.1/nios2eds/bin/gnu/h-x86_64-mingw32/bin/../lib/gcc/nios2-elf/5.3.0/../../../../../H-x86_64-mingw32/nios2-elf/lib/mhw-mulx\libc.a(lib_a-fwalk.o)
 .debug_line    0x0000000000000e38      0x160 c:/intelfpga_lite/16.1/nios2eds/bin/gnu/h-x86_64-mingw32/bin/../lib/gcc/nios2-elf/5.3.0/../../../../../H-x86_64-mingw32/nios2-elf/lib/mhw-mulx\libc.a(lib_a-impure.o)
 .debug_line    0x0000000000000f98      0x3fc c:/intelfpga_lite/16.1/nios2eds/bin/gnu/h-x86_64-mingw32/bin/../lib/gcc/nios2-elf/5.3.0/../../../../../H-x86_64-mingw32/nios2-elf/lib/mhw-mulx\libc.a(lib_a-mallocr.o)
 .debug_line    0x0000000000001394      0x18d c:/intelfpga_lite/16.1/nios2eds/bin/gnu/h-x86_64-mingw32/bin/../lib/gcc/nios2-elf/5.3.0/../../../../../H-x86_64-mingw32/nios2-elf/lib/mhw-mulx\libc.a(lib_a-memchr.o)
 .debug_line    0x0000000000001521      0x18c c:/intelfpga_lite/16.1/nios2eds/bin/gnu/h-x86_64-mingw32/bin/../lib/gcc/nios2-elf/5.3.0/../../../../../H-x86_64-mingw32/nios2-elf/lib/mhw-mulx\libc.a(lib_a-memcpy.o)
 .debug_line    0x00000000000016ad      0x18d c:/intelfpga_lite/16.1/nios2eds/bin/gnu/h-x86_64-mingw32/bin/../lib/gcc/nios2-elf/5.3.0/../../../../../H-x86_64-mingw32/nios2-elf/lib/mhw-mulx\libc.a(lib_a-memmove.o)
 .debug_line    0x000000000000183a      0x18f c:/intelfpga_lite/16.1/nios2eds/bin/gnu/h-x86_64-mingw32/bin/../lib/gcc/nios2-elf/5.3.0/../../../../../H-x86_64-mingw32/nios2-elf/lib/mhw-mulx\libc.a(lib_a-memset.o)
 .debug_line    0x00000000000019c9      0x2f5 c:/intelfpga_lite/16.1/nios2eds/bin/gnu/h-x86_64-mingw32/bin/../lib/gcc/nios2-elf/5.3.0/../../../../../H-x86_64-mingw32/nios2-elf/lib/mhw-mulx\libc.a(lib_a-reallocr.o)
 .debug_line    0x0000000000001cbe      0x1e9 c:/intelfpga_lite/16.1/nios2eds/bin/gnu/h-x86_64-mingw32/bin/../lib/gcc/nios2-elf/5.3.0/../../../../../H-x86_64-mingw32/nios2-elf/lib/mhw-mulx\libc.a(lib_a-sbrkr.o)
 .debug_line    0x0000000000001ea7      0x26a c:/intelfpga_lite/16.1/nios2eds/bin/gnu/h-x86_64-mingw32/bin/../lib/gcc/nios2-elf/5.3.0/../../../../../H-x86_64-mingw32/nios2-elf/lib/mhw-mulx\libc.a(lib_a-stdio.o)
 .debug_line    0x0000000000002111      0x1f6 c:/intelfpga_lite/16.1/nios2eds/bin/gnu/h-x86_64-mingw32/bin/../lib/gcc/nios2-elf/5.3.0/../../../../../H-x86_64-mingw32/nios2-elf/lib/mhw-mulx\libc.a(lib_a-writer.o)
 .debug_line    0x0000000000002307      0x266 c:/intelfpga_lite/16.1/nios2eds/bin/gnu/h-x86_64-mingw32/bin/../lib/gcc/nios2-elf/5.3.0/../../../../../H-x86_64-mingw32/nios2-elf/lib/mhw-mulx\libc.a(lib_a-wsetup.o)
 .debug_line    0x000000000000256d      0x1f6 c:/intelfpga_lite/16.1/nios2eds/bin/gnu/h-x86_64-mingw32/bin/../lib/gcc/nios2-elf/5.3.0/../../../../../H-x86_64-mingw32/nios2-elf/lib/mhw-mulx\libc.a(closer.o)
 .debug_line    0x0000000000002763      0x239 c:/intelfpga_lite/16.1/nios2eds/bin/gnu/h-x86_64-mingw32/bin/../lib/gcc/nios2-elf/5.3.0/../../../../../H-x86_64-mingw32/nios2-elf/lib/mhw-mulx\libc.a(lib_a-fclose.o)
 .debug_line    0x000000000000299c      0x2ea c:/intelfpga_lite/16.1/nios2eds/bin/gnu/h-x86_64-mingw32/bin/../lib/gcc/nios2-elf/5.3.0/../../../../../H-x86_64-mingw32/nios2-elf/lib/mhw-mulx\libc.a(lib_a-fflush.o)
 .debug_line    0x0000000000002c86      0x2f7 c:/intelfpga_lite/16.1/nios2eds/bin/gnu/h-x86_64-mingw32/bin/../lib/gcc/nios2-elf/5.3.0/../../../../../H-x86_64-mingw32/nios2-elf/lib/mhw-mulx\libc.a(lib_a-freer.o)
 .debug_line    0x0000000000002f7d       0x5f c:/intelfpga_lite/16.1/nios2eds/bin/gnu/h-x86_64-mingw32/bin/../lib/gcc/nios2-elf/5.3.0/../../../../../H-x86_64-mingw32/nios2-elf/lib/mhw-mulx\libc.a(lib_a-int_errno.o)
 .debug_line    0x0000000000002fdc      0x1f6 c:/intelfpga_lite/16.1/nios2eds/bin/gnu/h-x86_64-mingw32/bin/../lib/gcc/nios2-elf/5.3.0/../../../../../H-x86_64-mingw32/nios2-elf/lib/mhw-mulx\libc.a(lib_a-lseekr.o)
 .debug_line    0x00000000000031d2      0x274 c:/intelfpga_lite/16.1/nios2eds/bin/gnu/h-x86_64-mingw32/bin/../lib/gcc/nios2-elf/5.3.0/../../../../../H-x86_64-mingw32/nios2-elf/lib/mhw-mulx\libc.a(lib_a-makebuf.o)
 .debug_line    0x0000000000003446      0x1f5 c:/intelfpga_lite/16.1/nios2eds/bin/gnu/h-x86_64-mingw32/bin/../lib/gcc/nios2-elf/5.3.0/../../../../../H-x86_64-mingw32/nios2-elf/lib/mhw-mulx\libc.a(lib_a-readr.o)
 .debug_line    0x000000000000363b      0x1ff c:/intelfpga_lite/16.1/nios2eds/bin/gnu/h-x86_64-mingw32/bin/../lib/gcc/nios2-elf/5.3.0/../../../../../H-x86_64-mingw32/nios2-elf/lib/mhw-mulx\libc.a(lib_a-fstatr.o)
 .debug_line    0x000000000000383a      0x1f7 c:/intelfpga_lite/16.1/nios2eds/bin/gnu/h-x86_64-mingw32/bin/../lib/gcc/nios2-elf/5.3.0/../../../../../H-x86_64-mingw32/nios2-elf/lib/mhw-mulx\libc.a(lib_a-isattyr.o)
 .debug_line    0x0000000000003a31      0x105 c:/intelfpga_lite/16.1/nios2eds/bin/gnu/h-x86_64-mingw32/bin/../lib/gcc/nios2-elf/5.3.0/mhw-mulx\libgcc.a(lib2-divmod.o)
 .debug_line    0x0000000000003b36      0x188 C:/Users/Artee/Documents/ESAKBS2/nioseclipse_bsp/\libucosii_bsp.a(alt_close.o)
 .debug_line    0x0000000000003cbe      0x150 C:/Users/Artee/Documents/ESAKBS2/nioseclipse_bsp/\libucosii_bsp.a(alt_dev.o)
 .debug_line    0x0000000000003e0e       0x51 C:/Users/Artee/Documents/ESAKBS2/nioseclipse_bsp/\libucosii_bsp.a(alt_errno.o)
 .debug_line    0x0000000000003e5f      0x181 C:/Users/Artee/Documents/ESAKBS2/nioseclipse_bsp/\libucosii_bsp.a(alt_fstat.o)
 .debug_line    0x0000000000003fe0      0x185 C:/Users/Artee/Documents/ESAKBS2/nioseclipse_bsp/\libucosii_bsp.a(alt_isatty.o)
 .debug_line    0x0000000000004165       0x8e C:/Users/Artee/Documents/ESAKBS2/nioseclipse_bsp/\libucosii_bsp.a(alt_load.o)
 .debug_line    0x00000000000041f3      0x186 C:/Users/Artee/Documents/ESAKBS2/nioseclipse_bsp/\libucosii_bsp.a(alt_lseek.o)
 .debug_line    0x0000000000004379      0x143 C:/Users/Artee/Documents/ESAKBS2/nioseclipse_bsp/\libucosii_bsp.a(alt_main.o)
 .debug_line    0x00000000000044bc      0x1ff C:/Users/Artee/Documents/ESAKBS2/nioseclipse_bsp/\libucosii_bsp.a(alt_read.o)
 .debug_line    0x00000000000046bb       0xd1 C:/Users/Artee/Documents/ESAKBS2/nioseclipse_bsp/\libucosii_bsp.a(alt_release_fd.o)
 .debug_line    0x000000000000478c      0x12f C:/Users/Artee/Documents/ESAKBS2/nioseclipse_bsp/\libucosii_bsp.a(alt_sbrk.o)
 .debug_line    0x00000000000048bb      0x1fe C:/Users/Artee/Documents/ESAKBS2/nioseclipse_bsp/\libucosii_bsp.a(alt_write.o)
 .debug_line    0x0000000000004ab9      0x1be C:/Users/Artee/Documents/ESAKBS2/nioseclipse_bsp/\libucosii_bsp.a(alt_env_lock.o)
 .debug_line    0x0000000000004c77      0x222 C:/Users/Artee/Documents/ESAKBS2/nioseclipse_bsp/\libucosii_bsp.a(alt_malloc_lock.o)
 .debug_line    0x0000000000004e99      0x69f C:/Users/Artee/Documents/ESAKBS2/nioseclipse_bsp/\libucosii_bsp.a(os_core.o)
 .debug_line    0x0000000000005538       0xe6 C:/Users/Artee/Documents/ESAKBS2/nioseclipse_bsp/\libucosii_bsp.a(os_dbg.o)
 .debug_line    0x000000000000561e      0x513 C:/Users/Artee/Documents/ESAKBS2/nioseclipse_bsp/\libucosii_bsp.a(os_flag.o)
 .debug_line    0x0000000000005b31      0x252 C:/Users/Artee/Documents/ESAKBS2/nioseclipse_bsp/\libucosii_bsp.a(os_mem.o)
 .debug_line    0x0000000000005d83      0x40f C:/Users/Artee/Documents/ESAKBS2/nioseclipse_bsp/\libucosii_bsp.a(os_q.o)
 .debug_line    0x0000000000006192      0x2f4 C:/Users/Artee/Documents/ESAKBS2/nioseclipse_bsp/\libucosii_bsp.a(os_sem.o)
 .debug_line    0x0000000000006486      0x541 C:/Users/Artee/Documents/ESAKBS2/nioseclipse_bsp/\libucosii_bsp.a(os_task.o)
 .debug_line    0x00000000000069c7      0x1bc C:/Users/Artee/Documents/ESAKBS2/nioseclipse_bsp/\libucosii_bsp.a(os_time.o)
 .debug_line    0x0000000000006b83      0x3ca C:/Users/Artee/Documents/ESAKBS2/nioseclipse_bsp/\libucosii_bsp.a(alt_sys_init.o)
 .debug_line    0x0000000000006f4d      0x169 C:/Users/Artee/Documents/ESAKBS2/nioseclipse_bsp/\libucosii_bsp.a(altera_avalon_jtag_uart_fd.o)
 .debug_line    0x00000000000070b6      0x238 C:/Users/Artee/Documents/ESAKBS2/nioseclipse_bsp/\libucosii_bsp.a(altera_avalon_jtag_uart_init.o)
 .debug_line    0x00000000000072ee      0x16b C:/Users/Artee/Documents/ESAKBS2/nioseclipse_bsp/\libucosii_bsp.a(altera_avalon_jtag_uart_ioctl.o)
 .debug_line    0x0000000000007459      0x1ef C:/Users/Artee/Documents/ESAKBS2/nioseclipse_bsp/\libucosii_bsp.a(altera_avalon_jtag_uart_read.o)
 .debug_line    0x0000000000007648      0x1f0 C:/Users/Artee/Documents/ESAKBS2/nioseclipse_bsp/\libucosii_bsp.a(altera_avalon_jtag_uart_write.o)
 .debug_line    0x0000000000007838      0x113 C:/Users/Artee/Documents/ESAKBS2/nioseclipse_bsp/\libucosii_bsp.a(altera_avalon_timer_sc.o)
 .debug_line    0x000000000000794b      0x1d7 C:/Users/Artee/Documents/ESAKBS2/nioseclipse_bsp/\libucosii_bsp.a(altera_up_avalon_character_lcd.o)
 .debug_line    0x0000000000007b22      0x15f C:/Users/Artee/Documents/ESAKBS2/nioseclipse_bsp/\libucosii_bsp.a(altera_up_avalon_irda.o)
 .debug_line    0x0000000000007c81      0x1c8 C:/Users/Artee/Documents/ESAKBS2/nioseclipse_bsp/\libucosii_bsp.a(altera_up_avalon_ps2.o)
 .debug_line    0x0000000000007e49      0x161 C:/Users/Artee/Documents/ESAKBS2/nioseclipse_bsp/\libucosii_bsp.a(altera_up_avalon_rs232.o)
 .debug_line    0x0000000000007faa      0x10d C:/Users/Artee/Documents/ESAKBS2/nioseclipse_bsp/\libucosii_bsp.a(alt_alarm_start.o)
 .debug_line    0x00000000000080b7       0x51 C:/Users/Artee/Documents/ESAKBS2/nioseclipse_bsp/\libucosii_bsp.a(alt_dcache_flush_all.o)
 .debug_line    0x0000000000008108       0xcf C:/Users/Artee/Documents/ESAKBS2/nioseclipse_bsp/\libucosii_bsp.a(alt_dev_llist_insert.o)
 .debug_line    0x00000000000081d7       0x59 C:/Users/Artee/Documents/ESAKBS2/nioseclipse_bsp/\libucosii_bsp.a(alt_do_ctors.o)
 .debug_line    0x0000000000008230       0x59 C:/Users/Artee/Documents/ESAKBS2/nioseclipse_bsp/\libucosii_bsp.a(alt_do_dtors.o)
 .debug_line    0x0000000000008289       0xd8 C:/Users/Artee/Documents/ESAKBS2/nioseclipse_bsp/\libucosii_bsp.a(alt_find_dev.o)
 .debug_line    0x0000000000008361       0x50 C:/Users/Artee/Documents/ESAKBS2/nioseclipse_bsp/\libucosii_bsp.a(alt_icache_flush_all.o)
 .debug_line    0x00000000000083b1      0x156 C:/Users/Artee/Documents/ESAKBS2/nioseclipse_bsp/\libucosii_bsp.a(alt_io_redirect.o)
 .debug_line    0x0000000000008507      0x164 C:/Users/Artee/Documents/ESAKBS2/nioseclipse_bsp/\libucosii_bsp.a(alt_irq_register.o)
 .debug_line    0x000000000000866b       0x50 C:/Users/Artee/Documents/ESAKBS2/nioseclipse_bsp/\libucosii_bsp.a(alt_irq_vars.o)
 .debug_line    0x00000000000086bb      0x14b C:/Users/Artee/Documents/ESAKBS2/nioseclipse_bsp/\libucosii_bsp.a(alt_open.o)
 .debug_line    0x0000000000008806      0x113 C:/Users/Artee/Documents/ESAKBS2/nioseclipse_bsp/\libucosii_bsp.a(alt_tick.o)
 .debug_line    0x0000000000008919       0x8d C:/Users/Artee/Documents/ESAKBS2/nioseclipse_bsp/\libucosii_bsp.a(altera_nios2_gen2_irq.o)
 .debug_line    0x00000000000089a6       0x86 C:/Users/Artee/Documents/ESAKBS2/nioseclipse_bsp/\libucosii_bsp.a(os_cpu_a.o)
 .debug_line    0x0000000000008a2c      0x1c6 C:/Users/Artee/Documents/ESAKBS2/nioseclipse_bsp/\libucosii_bsp.a(os_cpu_c.o)
 .debug_line    0x0000000000008bf2       0xf4 C:/Users/Artee/Documents/ESAKBS2/nioseclipse_bsp/\libucosii_bsp.a(alt_find_file.o)
 .debug_line    0x0000000000008ce6      0x13a C:/Users/Artee/Documents/ESAKBS2/nioseclipse_bsp/\libucosii_bsp.a(alt_get_fd.o)
 .debug_line    0x0000000000008e20       0x81 C:/Users/Artee/Documents/ESAKBS2/nioseclipse_bsp/\libucosii_bsp.a(alt_icache_flush.o)
 .debug_line    0x0000000000008ea1       0x6b C:/Users/Artee/Documents/ESAKBS2/nioseclipse_bsp/\libucosii_bsp.a(alt_irq_entry.o)
 .debug_line    0x0000000000008f0c       0xdc C:/Users/Artee/Documents/ESAKBS2/nioseclipse_bsp/\libucosii_bsp.a(alt_irq_handler.o)
 .debug_line    0x0000000000008fe8       0xb3 C:/Users/Artee/Documents/ESAKBS2/nioseclipse_bsp/\libucosii_bsp.a(alt_exception_entry.o)
 .debug_line    0x000000000000909b       0xba C:/Users/Artee/Documents/ESAKBS2/nioseclipse_bsp/\libucosii_bsp.a(alt_instruction_exception_entry.o)
 .debug_line    0x0000000000009155       0xe7 c:/intelfpga_lite/16.1/nios2eds/bin/gnu/h-x86_64-mingw32/bin/../lib/gcc/nios2-elf/5.3.0/../../../../../H-x86_64-mingw32/nios2-elf/lib/mhw-mulx\libc.a(lib_a-atexit.o)
 .debug_line    0x000000000000923c      0x1fc c:/intelfpga_lite/16.1/nios2eds/bin/gnu/h-x86_64-mingw32/bin/../lib/gcc/nios2-elf/5.3.0/../../../../../H-x86_64-mingw32/nios2-elf/lib/mhw-mulx\libc.a(lib_a-exit.o)
 .debug_line    0x0000000000009438      0x176 c:/intelfpga_lite/16.1/nios2eds/bin/gnu/h-x86_64-mingw32/bin/../lib/gcc/nios2-elf/5.3.0/../../../../../H-x86_64-mingw32/nios2-elf/lib/mhw-mulx\libc.a(lib_a-memcmp.o)
 .debug_line    0x00000000000095ae      0x21f c:/intelfpga_lite/16.1/nios2eds/bin/gnu/h-x86_64-mingw32/bin/../lib/gcc/nios2-elf/5.3.0/../../../../../H-x86_64-mingw32/nios2-elf/lib/mhw-mulx\libc.a(lib_a-__atexit.o)
 .debug_line    0x00000000000097cd      0x23a c:/intelfpga_lite/16.1/nios2eds/bin/gnu/h-x86_64-mingw32/bin/../lib/gcc/nios2-elf/5.3.0/../../../../../H-x86_64-mingw32/nios2-elf/lib/mhw-mulx\libc.a(lib_a-__call_atexit.o)
 .debug_line    0x0000000000009a07       0xe2 C:/Users/Artee/Documents/ESAKBS2/nioseclipse_bsp/\libucosii_bsp.a(alt_exit.o)

.debug_frame    0x0000000000000000     0x2d28
 *(.debug_frame)
 .debug_frame   0x0000000000000000       0x70 obj/default/hello_ucosii.o
 .debug_frame   0x0000000000000070       0x48 c:/intelfpga_lite/16.1/nios2eds/bin/gnu/h-x86_64-mingw32/bin/../lib/gcc/nios2-elf/5.3.0/../../../../../H-x86_64-mingw32/nios2-elf/lib/mhw-mulx\libc.a(lib_a-puts.o)
 .debug_frame   0x00000000000000b8       0x20 c:/intelfpga_lite/16.1/nios2eds/bin/gnu/h-x86_64-mingw32/bin/../lib/gcc/nios2-elf/5.3.0/../../../../../H-x86_64-mingw32/nios2-elf/lib/mhw-mulx\libc.a(lib_a-strlen.o)
 .debug_frame   0x00000000000000d8      0x160 c:/intelfpga_lite/16.1/nios2eds/bin/gnu/h-x86_64-mingw32/bin/../lib/gcc/nios2-elf/5.3.0/../../../../../H-x86_64-mingw32/nios2-elf/lib/mhw-mulx\libc.a(lib_a-findfp.o)
 .debug_frame   0x0000000000000238       0x78 c:/intelfpga_lite/16.1/nios2eds/bin/gnu/h-x86_64-mingw32/bin/../lib/gcc/nios2-elf/5.3.0/../../../../../H-x86_64-mingw32/nios2-elf/lib/mhw-mulx\libc.a(lib_a-fvwrite.o)
 .debug_frame   0x00000000000002b0       0x90 c:/intelfpga_lite/16.1/nios2eds/bin/gnu/h-x86_64-mingw32/bin/../lib/gcc/nios2-elf/5.3.0/../../../../../H-x86_64-mingw32/nios2-elf/lib/mhw-mulx\libc.a(lib_a-fwalk.o)
 .debug_frame   0x0000000000000340       0x54 c:/intelfpga_lite/16.1/nios2eds/bin/gnu/h-x86_64-mingw32/bin/../lib/gcc/nios2-elf/5.3.0/../../../../../H-x86_64-mingw32/nios2-elf/lib/mhw-mulx\libc.a(lib_a-mallocr.o)
 .debug_frame   0x0000000000000394       0x20 c:/intelfpga_lite/16.1/nios2eds/bin/gnu/h-x86_64-mingw32/bin/../lib/gcc/nios2-elf/5.3.0/../../../../../H-x86_64-mingw32/nios2-elf/lib/mhw-mulx\libc.a(lib_a-memchr.o)
 .debug_frame   0x00000000000003b4       0x38 c:/intelfpga_lite/16.1/nios2eds/bin/gnu/h-x86_64-mingw32/bin/../lib/gcc/nios2-elf/5.3.0/../../../../../H-x86_64-mingw32/nios2-elf/lib/mhw-mulx\libc.a(lib_a-memcpy.o)
 .debug_frame   0x00000000000003ec       0x20 c:/intelfpga_lite/16.1/nios2eds/bin/gnu/h-x86_64-mingw32/bin/../lib/gcc/nios2-elf/5.3.0/../../../../../H-x86_64-mingw32/nios2-elf/lib/mhw-mulx\libc.a(lib_a-memmove.o)
 .debug_frame   0x000000000000040c       0x20 c:/intelfpga_lite/16.1/nios2eds/bin/gnu/h-x86_64-mingw32/bin/../lib/gcc/nios2-elf/5.3.0/../../../../../H-x86_64-mingw32/nios2-elf/lib/mhw-mulx\libc.a(lib_a-memset.o)
 .debug_frame   0x000000000000042c       0x70 c:/intelfpga_lite/16.1/nios2eds/bin/gnu/h-x86_64-mingw32/bin/../lib/gcc/nios2-elf/5.3.0/../../../../../H-x86_64-mingw32/nios2-elf/lib/mhw-mulx\libc.a(lib_a-reallocr.o)
 .debug_frame   0x000000000000049c       0x38 c:/intelfpga_lite/16.1/nios2eds/bin/gnu/h-x86_64-mingw32/bin/../lib/gcc/nios2-elf/5.3.0/../../../../../H-x86_64-mingw32/nios2-elf/lib/mhw-mulx\libc.a(lib_a-sbrkr.o)
 .debug_frame   0x00000000000004d4       0xb4 c:/intelfpga_lite/16.1/nios2eds/bin/gnu/h-x86_64-mingw32/bin/../lib/gcc/nios2-elf/5.3.0/../../../../../H-x86_64-mingw32/nios2-elf/lib/mhw-mulx\libc.a(lib_a-stdio.o)
 .debug_frame   0x0000000000000588       0x38 c:/intelfpga_lite/16.1/nios2eds/bin/gnu/h-x86_64-mingw32/bin/../lib/gcc/nios2-elf/5.3.0/../../../../../H-x86_64-mingw32/nios2-elf/lib/mhw-mulx\libc.a(lib_a-writer.o)
 .debug_frame   0x00000000000005c0       0x38 c:/intelfpga_lite/16.1/nios2eds/bin/gnu/h-x86_64-mingw32/bin/../lib/gcc/nios2-elf/5.3.0/../../../../../H-x86_64-mingw32/nios2-elf/lib/mhw-mulx\libc.a(lib_a-wsetup.o)
 .debug_frame   0x00000000000005f8       0x38 c:/intelfpga_lite/16.1/nios2eds/bin/gnu/h-x86_64-mingw32/bin/../lib/gcc/nios2-elf/5.3.0/../../../../../H-x86_64-mingw32/nios2-elf/lib/mhw-mulx\libc.a(closer.o)
 .debug_frame   0x0000000000000630       0x54 c:/intelfpga_lite/16.1/nios2eds/bin/gnu/h-x86_64-mingw32/bin/../lib/gcc/nios2-elf/5.3.0/../../../../../H-x86_64-mingw32/nios2-elf/lib/mhw-mulx\libc.a(lib_a-fclose.o)
 .debug_frame   0x0000000000000684       0x7c c:/intelfpga_lite/16.1/nios2eds/bin/gnu/h-x86_64-mingw32/bin/../lib/gcc/nios2-elf/5.3.0/../../../../../H-x86_64-mingw32/nios2-elf/lib/mhw-mulx\libc.a(lib_a-fflush.o)
 .debug_frame   0x0000000000000700       0x70 c:/intelfpga_lite/16.1/nios2eds/bin/gnu/h-x86_64-mingw32/bin/../lib/gcc/nios2-elf/5.3.0/../../../../../H-x86_64-mingw32/nios2-elf/lib/mhw-mulx\libc.a(lib_a-freer.o)
 .debug_frame   0x0000000000000770       0x38 c:/intelfpga_lite/16.1/nios2eds/bin/gnu/h-x86_64-mingw32/bin/../lib/gcc/nios2-elf/5.3.0/../../../../../H-x86_64-mingw32/nios2-elf/lib/mhw-mulx\libc.a(lib_a-lseekr.o)
 .debug_frame   0x00000000000007a8       0x4c c:/intelfpga_lite/16.1/nios2eds/bin/gnu/h-x86_64-mingw32/bin/../lib/gcc/nios2-elf/5.3.0/../../../../../H-x86_64-mingw32/nios2-elf/lib/mhw-mulx\libc.a(lib_a-makebuf.o)
 .debug_frame   0x00000000000007f4       0x38 c:/intelfpga_lite/16.1/nios2eds/bin/gnu/h-x86_64-mingw32/bin/../lib/gcc/nios2-elf/5.3.0/../../../../../H-x86_64-mingw32/nios2-elf/lib/mhw-mulx\libc.a(lib_a-readr.o)
 .debug_frame   0x000000000000082c       0x38 c:/intelfpga_lite/16.1/nios2eds/bin/gnu/h-x86_64-mingw32/bin/../lib/gcc/nios2-elf/5.3.0/../../../../../H-x86_64-mingw32/nios2-elf/lib/mhw-mulx\libc.a(lib_a-fstatr.o)
 .debug_frame   0x0000000000000864       0x38 c:/intelfpga_lite/16.1/nios2eds/bin/gnu/h-x86_64-mingw32/bin/../lib/gcc/nios2-elf/5.3.0/../../../../../H-x86_64-mingw32/nios2-elf/lib/mhw-mulx\libc.a(lib_a-isattyr.o)
 .debug_frame   0x000000000000089c       0x50 c:/intelfpga_lite/16.1/nios2eds/bin/gnu/h-x86_64-mingw32/bin/../lib/gcc/nios2-elf/5.3.0/mhw-mulx\libgcc.a(lib2-divmod.o)
 .debug_frame   0x00000000000008ec       0x60 C:/Users/Artee/Documents/ESAKBS2/nioseclipse_bsp/\libucosii_bsp.a(alt_close.o)
 .debug_frame   0x000000000000094c       0x34 C:/Users/Artee/Documents/ESAKBS2/nioseclipse_bsp/\libucosii_bsp.a(alt_dev.o)
 .debug_frame   0x0000000000000980       0x60 C:/Users/Artee/Documents/ESAKBS2/nioseclipse_bsp/\libucosii_bsp.a(alt_fstat.o)
 .debug_frame   0x00000000000009e0       0x60 C:/Users/Artee/Documents/ESAKBS2/nioseclipse_bsp/\libucosii_bsp.a(alt_isatty.o)
 .debug_frame   0x0000000000000a40       0x5c C:/Users/Artee/Documents/ESAKBS2/nioseclipse_bsp/\libucosii_bsp.a(alt_load.o)
 .debug_frame   0x0000000000000a9c       0x60 C:/Users/Artee/Documents/ESAKBS2/nioseclipse_bsp/\libucosii_bsp.a(alt_lseek.o)
 .debug_frame   0x0000000000000afc       0x2c C:/Users/Artee/Documents/ESAKBS2/nioseclipse_bsp/\libucosii_bsp.a(alt_main.o)
 .debug_frame   0x0000000000000b28       0x60 C:/Users/Artee/Documents/ESAKBS2/nioseclipse_bsp/\libucosii_bsp.a(alt_read.o)
 .debug_frame   0x0000000000000b88       0x34 C:/Users/Artee/Documents/ESAKBS2/nioseclipse_bsp/\libucosii_bsp.a(alt_release_fd.o)
 .debug_frame   0x0000000000000bbc       0x34 C:/Users/Artee/Documents/ESAKBS2/nioseclipse_bsp/\libucosii_bsp.a(alt_sbrk.o)
 .debug_frame   0x0000000000000bf0       0x60 C:/Users/Artee/Documents/ESAKBS2/nioseclipse_bsp/\libucosii_bsp.a(alt_write.o)
 .debug_frame   0x0000000000000c50       0x60 C:/Users/Artee/Documents/ESAKBS2/nioseclipse_bsp/\libucosii_bsp.a(alt_env_lock.o)
 .debug_frame   0x0000000000000cb0       0x64 C:/Users/Artee/Documents/ESAKBS2/nioseclipse_bsp/\libucosii_bsp.a(alt_malloc_lock.o)
 .debug_frame   0x0000000000000d14      0x534 C:/Users/Artee/Documents/ESAKBS2/nioseclipse_bsp/\libucosii_bsp.a(os_core.o)
 .debug_frame   0x0000000000001248       0x34 C:/Users/Artee/Documents/ESAKBS2/nioseclipse_bsp/\libucosii_bsp.a(os_dbg.o)
 .debug_frame   0x000000000000127c      0x200 C:/Users/Artee/Documents/ESAKBS2/nioseclipse_bsp/\libucosii_bsp.a(os_flag.o)
 .debug_frame   0x000000000000147c      0x118 C:/Users/Artee/Documents/ESAKBS2/nioseclipse_bsp/\libucosii_bsp.a(os_mem.o)
 .debug_frame   0x0000000000001594      0x1bc C:/Users/Artee/Documents/ESAKBS2/nioseclipse_bsp/\libucosii_bsp.a(os_q.o)
 .debug_frame   0x0000000000001750      0x144 C:/Users/Artee/Documents/ESAKBS2/nioseclipse_bsp/\libucosii_bsp.a(os_sem.o)
 .debug_frame   0x0000000000001894      0x1e4 C:/Users/Artee/Documents/ESAKBS2/nioseclipse_bsp/\libucosii_bsp.a(os_task.o)
 .debug_frame   0x0000000000001a78       0xd0 C:/Users/Artee/Documents/ESAKBS2/nioseclipse_bsp/\libucosii_bsp.a(os_time.o)
 .debug_frame   0x0000000000001b48       0x88 C:/Users/Artee/Documents/ESAKBS2/nioseclipse_bsp/\libucosii_bsp.a(alt_sys_init.o)
 .debug_frame   0x0000000000001bd0       0xb0 C:/Users/Artee/Documents/ESAKBS2/nioseclipse_bsp/\libucosii_bsp.a(altera_avalon_jtag_uart_fd.o)
 .debug_frame   0x0000000000001c80       0xac C:/Users/Artee/Documents/ESAKBS2/nioseclipse_bsp/\libucosii_bsp.a(altera_avalon_jtag_uart_init.o)
 .debug_frame   0x0000000000001d2c       0x34 C:/Users/Artee/Documents/ESAKBS2/nioseclipse_bsp/\libucosii_bsp.a(altera_avalon_jtag_uart_ioctl.o)
 .debug_frame   0x0000000000001d60       0x38 C:/Users/Artee/Documents/ESAKBS2/nioseclipse_bsp/\libucosii_bsp.a(altera_avalon_jtag_uart_read.o)
 .debug_frame   0x0000000000001d98       0x38 C:/Users/Artee/Documents/ESAKBS2/nioseclipse_bsp/\libucosii_bsp.a(altera_avalon_jtag_uart_write.o)
 .debug_frame   0x0000000000001dd0       0x60 C:/Users/Artee/Documents/ESAKBS2/nioseclipse_bsp/\libucosii_bsp.a(altera_avalon_timer_sc.o)
 .debug_frame   0x0000000000001e30      0x204 C:/Users/Artee/Documents/ESAKBS2/nioseclipse_bsp/\libucosii_bsp.a(altera_up_avalon_character_lcd.o)
 .debug_frame   0x0000000000002034      0x188 C:/Users/Artee/Documents/ESAKBS2/nioseclipse_bsp/\libucosii_bsp.a(altera_up_avalon_irda.o)
 .debug_frame   0x00000000000021bc      0x2c0 C:/Users/Artee/Documents/ESAKBS2/nioseclipse_bsp/\libucosii_bsp.a(altera_up_avalon_ps2.o)
 .debug_frame   0x000000000000247c      0x188 C:/Users/Artee/Documents/ESAKBS2/nioseclipse_bsp/\libucosii_bsp.a(altera_up_avalon_rs232.o)
 .debug_frame   0x0000000000002604       0x34 C:/Users/Artee/Documents/ESAKBS2/nioseclipse_bsp/\libucosii_bsp.a(alt_alarm_start.o)
 .debug_frame   0x0000000000002638       0x34 C:/Users/Artee/Documents/ESAKBS2/nioseclipse_bsp/\libucosii_bsp.a(alt_dcache_flush_all.o)
 .debug_frame   0x000000000000266c       0x60 C:/Users/Artee/Documents/ESAKBS2/nioseclipse_bsp/\libucosii_bsp.a(alt_dev_llist_insert.o)
 .debug_frame   0x00000000000026cc       0x38 C:/Users/Artee/Documents/ESAKBS2/nioseclipse_bsp/\libucosii_bsp.a(alt_do_ctors.o)
 .debug_frame   0x0000000000002704       0x38 C:/Users/Artee/Documents/ESAKBS2/nioseclipse_bsp/\libucosii_bsp.a(alt_do_dtors.o)
 .debug_frame   0x000000000000273c       0x38 C:/Users/Artee/Documents/ESAKBS2/nioseclipse_bsp/\libucosii_bsp.a(alt_find_dev.o)
 .debug_frame   0x0000000000002774       0x38 C:/Users/Artee/Documents/ESAKBS2/nioseclipse_bsp/\libucosii_bsp.a(alt_icache_flush_all.o)
 .debug_frame   0x00000000000027ac       0x60 C:/Users/Artee/Documents/ESAKBS2/nioseclipse_bsp/\libucosii_bsp.a(alt_io_redirect.o)
 .debug_frame   0x000000000000280c       0x34 C:/Users/Artee/Documents/ESAKBS2/nioseclipse_bsp/\libucosii_bsp.a(alt_irq_register.o)
 .debug_frame   0x0000000000002840       0x84 C:/Users/Artee/Documents/ESAKBS2/nioseclipse_bsp/\libucosii_bsp.a(alt_open.o)
 .debug_frame   0x00000000000028c4       0x5c C:/Users/Artee/Documents/ESAKBS2/nioseclipse_bsp/\libucosii_bsp.a(alt_tick.o)
 .debug_frame   0x0000000000002920       0x34 C:/Users/Artee/Documents/ESAKBS2/nioseclipse_bsp/\libucosii_bsp.a(altera_nios2_gen2_irq.o)
 .debug_frame   0x0000000000002954      0x17c C:/Users/Artee/Documents/ESAKBS2/nioseclipse_bsp/\libucosii_bsp.a(os_cpu_c.o)
 .debug_frame   0x0000000000002ad0       0x38 C:/Users/Artee/Documents/ESAKBS2/nioseclipse_bsp/\libucosii_bsp.a(alt_find_file.o)
 .debug_frame   0x0000000000002b08       0x38 C:/Users/Artee/Documents/ESAKBS2/nioseclipse_bsp/\libucosii_bsp.a(alt_get_fd.o)
 .debug_frame   0x0000000000002b40       0x34 C:/Users/Artee/Documents/ESAKBS2/nioseclipse_bsp/\libucosii_bsp.a(alt_icache_flush.o)
 .debug_frame   0x0000000000002b74       0x38 C:/Users/Artee/Documents/ESAKBS2/nioseclipse_bsp/\libucosii_bsp.a(alt_irq_handler.o)
 .debug_frame   0x0000000000002bac       0x5c C:/Users/Artee/Documents/ESAKBS2/nioseclipse_bsp/\libucosii_bsp.a(alt_instruction_exception_entry.o)
 .debug_frame   0x0000000000002c08       0x20 c:/intelfpga_lite/16.1/nios2eds/bin/gnu/h-x86_64-mingw32/bin/../lib/gcc/nios2-elf/5.3.0/../../../../../H-x86_64-mingw32/nios2-elf/lib/mhw-mulx\libc.a(lib_a-atexit.o)
 .debug_frame   0x0000000000002c28       0x28 c:/intelfpga_lite/16.1/nios2eds/bin/gnu/h-x86_64-mingw32/bin/../lib/gcc/nios2-elf/5.3.0/../../../../../H-x86_64-mingw32/nios2-elf/lib/mhw-mulx\libc.a(lib_a-exit.o)
 .debug_frame   0x0000000000002c50       0x20 c:/intelfpga_lite/16.1/nios2eds/bin/gnu/h-x86_64-mingw32/bin/../lib/gcc/nios2-elf/5.3.0/../../../../../H-x86_64-mingw32/nios2-elf/lib/mhw-mulx\libc.a(lib_a-memcmp.o)
 .debug_frame   0x0000000000002c70       0x38 c:/intelfpga_lite/16.1/nios2eds/bin/gnu/h-x86_64-mingw32/bin/../lib/gcc/nios2-elf/5.3.0/../../../../../H-x86_64-mingw32/nios2-elf/lib/mhw-mulx\libc.a(lib_a-__atexit.o)
 .debug_frame   0x0000000000002ca8       0x54 c:/intelfpga_lite/16.1/nios2eds/bin/gnu/h-x86_64-mingw32/bin/../lib/gcc/nios2-elf/5.3.0/../../../../../H-x86_64-mingw32/nios2-elf/lib/mhw-mulx\libc.a(lib_a-__call_atexit.o)
 .debug_frame   0x0000000000002cfc       0x2c C:/Users/Artee/Documents/ESAKBS2/nioseclipse_bsp/\libucosii_bsp.a(alt_exit.o)

.debug_str      0x0000000000000000     0x4256
 *(.debug_str)
 .debug_str     0x0000000000000000      0x16e obj/default/hello_ucosii.o
                                        0x1b3 (size before relaxing)
 .debug_str     0x000000000000016e      0x4e8 c:/intelfpga_lite/16.1/nios2eds/bin/gnu/h-x86_64-mingw32/bin/../lib/gcc/nios2-elf/5.3.0/../../../../../H-x86_64-mingw32/nios2-elf/lib/mhw-mulx\libc.a(lib_a-puts.o)
                                        0x618 (size before relaxing)
 .debug_str     0x0000000000000656       0xd7 c:/intelfpga_lite/16.1/nios2eds/bin/gnu/h-x86_64-mingw32/bin/../lib/gcc/nios2-elf/5.3.0/../../../../../H-x86_64-mingw32/nios2-elf/lib/mhw-mulx\libc.a(lib_a-strlen.o)
                                        0x1f3 (size before relaxing)
 .debug_str     0x000000000000072d      0x146 c:/intelfpga_lite/16.1/nios2eds/bin/gnu/h-x86_64-mingw32/bin/../lib/gcc/nios2-elf/5.3.0/../../../../../H-x86_64-mingw32/nios2-elf/lib/mhw-mulx\libc.a(lib_a-findfp.o)
                                        0x6c7 (size before relaxing)
 .debug_str     0x0000000000000873       0x9a c:/intelfpga_lite/16.1/nios2eds/bin/gnu/h-x86_64-mingw32/bin/../lib/gcc/nios2-elf/5.3.0/../../../../../H-x86_64-mingw32/nios2-elf/lib/mhw-mulx\libc.a(lib_a-fvwrite.o)
                                        0x643 (size before relaxing)
 .debug_str     0x000000000000090d       0x4a c:/intelfpga_lite/16.1/nios2eds/bin/gnu/h-x86_64-mingw32/bin/../lib/gcc/nios2-elf/5.3.0/../../../../../H-x86_64-mingw32/nios2-elf/lib/mhw-mulx\libc.a(lib_a-fwalk.o)
                                        0x5b6 (size before relaxing)
 .debug_str     0x0000000000000957       0xd4 c:/intelfpga_lite/16.1/nios2eds/bin/gnu/h-x86_64-mingw32/bin/../lib/gcc/nios2-elf/5.3.0/../../../../../H-x86_64-mingw32/nios2-elf/lib/mhw-mulx\libc.a(lib_a-impure.o)
                                        0x5b1 (size before relaxing)
 .debug_str     0x0000000000000a2b      0x2b9 c:/intelfpga_lite/16.1/nios2eds/bin/gnu/h-x86_64-mingw32/bin/../lib/gcc/nios2-elf/5.3.0/../../../../../H-x86_64-mingw32/nios2-elf/lib/mhw-mulx\libc.a(lib_a-mallocr.o)
                                        0x7b6 (size before relaxing)
 .debug_str     0x0000000000000ce4       0x52 c:/intelfpga_lite/16.1/nios2eds/bin/gnu/h-x86_64-mingw32/bin/../lib/gcc/nios2-elf/5.3.0/../../../../../H-x86_64-mingw32/nios2-elf/lib/mhw-mulx\libc.a(lib_a-memchr.o)
                                        0x1fa (size before relaxing)
 .debug_str     0x0000000000000d36       0x64 c:/intelfpga_lite/16.1/nios2eds/bin/gnu/h-x86_64-mingw32/bin/../lib/gcc/nios2-elf/5.3.0/../../../../../H-x86_64-mingw32/nios2-elf/lib/mhw-mulx\libc.a(lib_a-memcpy.o)
                                        0x207 (size before relaxing)
 .debug_str     0x0000000000000d9a       0x47 c:/intelfpga_lite/16.1/nios2eds/bin/gnu/h-x86_64-mingw32/bin/../lib/gcc/nios2-elf/5.3.0/../../../../../H-x86_64-mingw32/nios2-elf/lib/mhw-mulx\libc.a(lib_a-memmove.o)
                                        0x213 (size before relaxing)
 .debug_str     0x0000000000000de1       0x44 c:/intelfpga_lite/16.1/nios2eds/bin/gnu/h-x86_64-mingw32/bin/../lib/gcc/nios2-elf/5.3.0/../../../../../H-x86_64-mingw32/nios2-elf/lib/mhw-mulx\libc.a(lib_a-memset.o)
                                        0x1f4 (size before relaxing)
 .debug_str     0x0000000000000e25       0x49 c:/intelfpga_lite/16.1/nios2eds/bin/gnu/h-x86_64-mingw32/bin/../lib/gcc/nios2-elf/5.3.0/../../../../../H-x86_64-mingw32/nios2-elf/lib/mhw-mulx\libc.a(lib_a-reallocr.o)
                                        0x692 (size before relaxing)
 .debug_str     0x0000000000000e6e       0x4f c:/intelfpga_lite/16.1/nios2eds/bin/gnu/h-x86_64-mingw32/bin/../lib/gcc/nios2-elf/5.3.0/../../../../../H-x86_64-mingw32/nios2-elf/lib/mhw-mulx\libc.a(lib_a-sbrkr.o)
                                        0x5a7 (size before relaxing)
 .debug_str     0x0000000000000ebd       0x9b c:/intelfpga_lite/16.1/nios2eds/bin/gnu/h-x86_64-mingw32/bin/../lib/gcc/nios2-elf/5.3.0/../../../../../H-x86_64-mingw32/nios2-elf/lib/mhw-mulx\libc.a(lib_a-stdio.o)
                                        0x605 (size before relaxing)
 .debug_str     0x0000000000000f58       0x3c c:/intelfpga_lite/16.1/nios2eds/bin/gnu/h-x86_64-mingw32/bin/../lib/gcc/nios2-elf/5.3.0/../../../../../H-x86_64-mingw32/nios2-elf/lib/mhw-mulx\libc.a(lib_a-writer.o)
                                        0x5ab (size before relaxing)
 .debug_str     0x0000000000000f94       0x49 c:/intelfpga_lite/16.1/nios2eds/bin/gnu/h-x86_64-mingw32/bin/../lib/gcc/nios2-elf/5.3.0/../../../../../H-x86_64-mingw32/nios2-elf/lib/mhw-mulx\libc.a(lib_a-wsetup.o)
                                        0x5d0 (size before relaxing)
 .debug_str     0x0000000000000fdd       0x3c c:/intelfpga_lite/16.1/nios2eds/bin/gnu/h-x86_64-mingw32/bin/../lib/gcc/nios2-elf/5.3.0/../../../../../H-x86_64-mingw32/nios2-elf/lib/mhw-mulx\libc.a(closer.o)
                                        0x59b (size before relaxing)
 .debug_str     0x0000000000001019       0x5d c:/intelfpga_lite/16.1/nios2eds/bin/gnu/h-x86_64-mingw32/bin/../lib/gcc/nios2-elf/5.3.0/../../../../../H-x86_64-mingw32/nios2-elf/lib/mhw-mulx\libc.a(lib_a-fclose.o)
                                        0x5fe (size before relaxing)
 .debug_str     0x0000000000001076       0x54 c:/intelfpga_lite/16.1/nios2eds/bin/gnu/h-x86_64-mingw32/bin/../lib/gcc/nios2-elf/5.3.0/../../../../../H-x86_64-mingw32/nios2-elf/lib/mhw-mulx\libc.a(lib_a-fflush.o)
                                        0x611 (size before relaxing)
 .debug_str     0x00000000000010ca       0x34 c:/intelfpga_lite/16.1/nios2eds/bin/gnu/h-x86_64-mingw32/bin/../lib/gcc/nios2-elf/5.3.0/../../../../../H-x86_64-mingw32/nios2-elf/lib/mhw-mulx\libc.a(lib_a-freer.o)
                                        0x700 (size before relaxing)
 .debug_str     0x00000000000010fe       0x3f c:/intelfpga_lite/16.1/nios2eds/bin/gnu/h-x86_64-mingw32/bin/../lib/gcc/nios2-elf/5.3.0/../../../../../H-x86_64-mingw32/nios2-elf/lib/mhw-mulx\libc.a(lib_a-int_errno.o)
                                        0x1d9 (size before relaxing)
 .debug_str     0x000000000000113d       0x42 c:/intelfpga_lite/16.1/nios2eds/bin/gnu/h-x86_64-mingw32/bin/../lib/gcc/nios2-elf/5.3.0/../../../../../H-x86_64-mingw32/nios2-elf/lib/mhw-mulx\libc.a(lib_a-lseekr.o)
                                        0x5a2 (size before relaxing)
 .debug_str     0x000000000000117f      0x124 c:/intelfpga_lite/16.1/nios2eds/bin/gnu/h-x86_64-mingw32/bin/../lib/gcc/nios2-elf/5.3.0/../../../../../H-x86_64-mingw32/nios2-elf/lib/mhw-mulx\libc.a(lib_a-makebuf.o)
                                        0x6b3 (size before relaxing)
 .debug_str     0x00000000000012a3       0x3b c:/intelfpga_lite/16.1/nios2eds/bin/gnu/h-x86_64-mingw32/bin/../lib/gcc/nios2-elf/5.3.0/../../../../../H-x86_64-mingw32/nios2-elf/lib/mhw-mulx\libc.a(lib_a-readr.o)
                                        0x5a8 (size before relaxing)
 .debug_str     0x00000000000012de       0x48 c:/intelfpga_lite/16.1/nios2eds/bin/gnu/h-x86_64-mingw32/bin/../lib/gcc/nios2-elf/5.3.0/../../../../../H-x86_64-mingw32/nios2-elf/lib/mhw-mulx\libc.a(lib_a-fstatr.o)
                                        0x687 (size before relaxing)
 .debug_str     0x0000000000001326       0x44 c:/intelfpga_lite/16.1/nios2eds/bin/gnu/h-x86_64-mingw32/bin/../lib/gcc/nios2-elf/5.3.0/../../../../../H-x86_64-mingw32/nios2-elf/lib/mhw-mulx\libc.a(lib_a-isattyr.o)
                                        0x59e (size before relaxing)
 .debug_str     0x000000000000136a      0x183 c:/intelfpga_lite/16.1/nios2eds/bin/gnu/h-x86_64-mingw32/bin/../lib/gcc/nios2-elf/5.3.0/mhw-mulx\libgcc.a(lib2-divmod.o)
                                        0x1ce (size before relaxing)
 .debug_str     0x00000000000014ed       0xdd C:/Users/Artee/Documents/ESAKBS2/nioseclipse_bsp/\libucosii_bsp.a(alt_close.o)
                                        0x260 (size before relaxing)
 .debug_str     0x00000000000015ca       0xc4 C:/Users/Artee/Documents/ESAKBS2/nioseclipse_bsp/\libucosii_bsp.a(alt_dev.o)
                                        0x3ce (size before relaxing)
 .debug_str     0x000000000000168e       0x14 C:/Users/Artee/Documents/ESAKBS2/nioseclipse_bsp/\libucosii_bsp.a(alt_errno.o)
                                        0x149 (size before relaxing)
 .debug_str     0x00000000000016a2       0x14 C:/Users/Artee/Documents/ESAKBS2/nioseclipse_bsp/\libucosii_bsp.a(alt_fstat.o)
                                        0x341 (size before relaxing)
 .debug_str     0x00000000000016b6       0x15 C:/Users/Artee/Documents/ESAKBS2/nioseclipse_bsp/\libucosii_bsp.a(alt_isatty.o)
                                        0x349 (size before relaxing)
 .debug_str     0x00000000000016cb       0xe9 C:/Users/Artee/Documents/ESAKBS2/nioseclipse_bsp/\libucosii_bsp.a(alt_load.o)
                                        0x216 (size before relaxing)
 .debug_str     0x00000000000017b4       0x14 C:/Users/Artee/Documents/ESAKBS2/nioseclipse_bsp/\libucosii_bsp.a(alt_lseek.o)
                                        0x266 (size before relaxing)
 .debug_str     0x00000000000017c8       0x5d C:/Users/Artee/Documents/ESAKBS2/nioseclipse_bsp/\libucosii_bsp.a(alt_main.o)
                                        0x285 (size before relaxing)
 .debug_str     0x0000000000001825       0x13 C:/Users/Artee/Documents/ESAKBS2/nioseclipse_bsp/\libucosii_bsp.a(alt_read.o)
                                        0x34c (size before relaxing)
 .debug_str     0x0000000000001838       0x28 C:/Users/Artee/Documents/ESAKBS2/nioseclipse_bsp/\libucosii_bsp.a(alt_release_fd.o)
                                        0x24a (size before relaxing)
 .debug_str     0x0000000000001860       0x98 C:/Users/Artee/Documents/ESAKBS2/nioseclipse_bsp/\libucosii_bsp.a(alt_sbrk.o)
                                        0x201 (size before relaxing)
 .debug_str     0x00000000000018f8       0x14 C:/Users/Artee/Documents/ESAKBS2/nioseclipse_bsp/\libucosii_bsp.a(alt_write.o)
                                        0x34d (size before relaxing)
 .debug_str     0x000000000000190c      0x246 C:/Users/Artee/Documents/ESAKBS2/nioseclipse_bsp/\libucosii_bsp.a(alt_env_lock.o)
                                        0x7ed (size before relaxing)
 .debug_str     0x0000000000001b52       0x36 C:/Users/Artee/Documents/ESAKBS2/nioseclipse_bsp/\libucosii_bsp.a(alt_malloc_lock.o)
                                        0x84f (size before relaxing)
 .debug_str     0x0000000000001b88      0x536 C:/Users/Artee/Documents/ESAKBS2/nioseclipse_bsp/\libucosii_bsp.a(os_core.o)
                                        0x97b (size before relaxing)
 .debug_str     0x00000000000020be      0x2e5 C:/Users/Artee/Documents/ESAKBS2/nioseclipse_bsp/\libucosii_bsp.a(os_dbg.o)
                                        0x8ea (size before relaxing)
 .debug_str     0x00000000000023a3      0x136 C:/Users/Artee/Documents/ESAKBS2/nioseclipse_bsp/\libucosii_bsp.a(os_flag.o)
                                        0x617 (size before relaxing)
 .debug_str     0x00000000000024d9       0xcf C:/Users/Artee/Documents/ESAKBS2/nioseclipse_bsp/\libucosii_bsp.a(os_mem.o)
                                        0x320 (size before relaxing)
 .debug_str     0x00000000000025a8       0xc0 C:/Users/Artee/Documents/ESAKBS2/nioseclipse_bsp/\libucosii_bsp.a(os_q.o)
                                        0x59a (size before relaxing)
 .debug_str     0x0000000000002668       0x77 C:/Users/Artee/Documents/ESAKBS2/nioseclipse_bsp/\libucosii_bsp.a(os_sem.o)
                                        0x523 (size before relaxing)
 .debug_str     0x00000000000026df      0x118 C:/Users/Artee/Documents/ESAKBS2/nioseclipse_bsp/\libucosii_bsp.a(os_task.o)
                                        0x626 (size before relaxing)
 .debug_str     0x00000000000027f7       0x6d C:/Users/Artee/Documents/ESAKBS2/nioseclipse_bsp/\libucosii_bsp.a(os_time.o)
                                        0x4c6 (size before relaxing)
 .debug_str     0x0000000000002864      0x546 C:/Users/Artee/Documents/ESAKBS2/nioseclipse_bsp/\libucosii_bsp.a(alt_sys_init.o)
                                        0x87e (size before relaxing)
 .debug_str     0x0000000000002daa       0xb2 C:/Users/Artee/Documents/ESAKBS2/nioseclipse_bsp/\libucosii_bsp.a(altera_avalon_jtag_uart_fd.o)
                                        0x4b9 (size before relaxing)
 .debug_str     0x0000000000002e5c       0xf6 C:/Users/Artee/Documents/ESAKBS2/nioseclipse_bsp/\libucosii_bsp.a(altera_avalon_jtag_uart_init.o)
                                        0x480 (size before relaxing)
 .debug_str     0x0000000000002f52       0x4a C:/Users/Artee/Documents/ESAKBS2/nioseclipse_bsp/\libucosii_bsp.a(altera_avalon_jtag_uart_ioctl.o)
                                        0x3a8 (size before relaxing)
 .debug_str     0x0000000000002f9c       0x63 C:/Users/Artee/Documents/ESAKBS2/nioseclipse_bsp/\libucosii_bsp.a(altera_avalon_jtag_uart_read.o)
                                        0x41b (size before relaxing)
 .debug_str     0x0000000000002fff       0x4a C:/Users/Artee/Documents/ESAKBS2/nioseclipse_bsp/\libucosii_bsp.a(altera_avalon_jtag_uart_write.o)
                                        0x41c (size before relaxing)
 .debug_str     0x0000000000003049       0x66 C:/Users/Artee/Documents/ESAKBS2/nioseclipse_bsp/\libucosii_bsp.a(altera_avalon_timer_sc.o)
                                        0x270 (size before relaxing)
 .debug_str     0x00000000000030af      0x1ea C:/Users/Artee/Documents/ESAKBS2/nioseclipse_bsp/\libucosii_bsp.a(altera_up_avalon_character_lcd.o)
                                        0x423 (size before relaxing)
 .debug_str     0x0000000000003299      0x176 C:/Users/Artee/Documents/ESAKBS2/nioseclipse_bsp/\libucosii_bsp.a(altera_up_avalon_irda.o)
                                        0x3ac (size before relaxing)
 .debug_str     0x000000000000340f      0x1c5 C:/Users/Artee/Documents/ESAKBS2/nioseclipse_bsp/\libucosii_bsp.a(altera_up_avalon_ps2.o)
                                        0x47f (size before relaxing)
 .debug_str     0x00000000000035d4      0x154 C:/Users/Artee/Documents/ESAKBS2/nioseclipse_bsp/\libucosii_bsp.a(altera_up_avalon_rs232.o)
                                        0x3b9 (size before relaxing)
 .debug_str     0x0000000000003728       0x59 C:/Users/Artee/Documents/ESAKBS2/nioseclipse_bsp/\libucosii_bsp.a(alt_alarm_start.o)
                                        0x2a3 (size before relaxing)
 .debug_str     0x0000000000003781       0x34 C:/Users/Artee/Documents/ESAKBS2/nioseclipse_bsp/\libucosii_bsp.a(alt_dcache_flush_all.o)
                                        0x159 (size before relaxing)
 .debug_str     0x00000000000037b5       0x34 C:/Users/Artee/Documents/ESAKBS2/nioseclipse_bsp/\libucosii_bsp.a(alt_dev_llist_insert.o)
                                        0x1d0 (size before relaxing)
 .debug_str     0x00000000000037e9       0x48 C:/Users/Artee/Documents/ESAKBS2/nioseclipse_bsp/\libucosii_bsp.a(alt_do_ctors.o)
                                         0xd4 (size before relaxing)
 .debug_str     0x0000000000003831       0x4c C:/Users/Artee/Documents/ESAKBS2/nioseclipse_bsp/\libucosii_bsp.a(alt_do_dtors.o)
                                         0xd3 (size before relaxing)
 .debug_str     0x000000000000387d       0x24 C:/Users/Artee/Documents/ESAKBS2/nioseclipse_bsp/\libucosii_bsp.a(alt_find_dev.o)
                                        0x241 (size before relaxing)
 .debug_str     0x00000000000038a1       0x34 C:/Users/Artee/Documents/ESAKBS2/nioseclipse_bsp/\libucosii_bsp.a(alt_icache_flush_all.o)
                                        0x159 (size before relaxing)
 .debug_str     0x00000000000038d5       0x56 C:/Users/Artee/Documents/ESAKBS2/nioseclipse_bsp/\libucosii_bsp.a(alt_io_redirect.o)
                                        0x36b (size before relaxing)
 .debug_str     0x000000000000392b       0x70 C:/Users/Artee/Documents/ESAKBS2/nioseclipse_bsp/\libucosii_bsp.a(alt_irq_register.o)
                                        0x234 (size before relaxing)
 .debug_str     0x000000000000399b       0x17 C:/Users/Artee/Documents/ESAKBS2/nioseclipse_bsp/\libucosii_bsp.a(alt_irq_vars.o)
                                        0x13e (size before relaxing)
 .debug_str     0x00000000000039b2       0x29 C:/Users/Artee/Documents/ESAKBS2/nioseclipse_bsp/\libucosii_bsp.a(alt_open.o)
                                        0x298 (size before relaxing)
 .debug_str     0x00000000000039db       0x4a C:/Users/Artee/Documents/ESAKBS2/nioseclipse_bsp/\libucosii_bsp.a(alt_tick.o)
                                        0x284 (size before relaxing)
 .debug_str     0x0000000000003a25       0x3b C:/Users/Artee/Documents/ESAKBS2/nioseclipse_bsp/\libucosii_bsp.a(altera_nios2_gen2_irq.o)
                                        0x189 (size before relaxing)
 .debug_str     0x0000000000003a60       0xd5 C:/Users/Artee/Documents/ESAKBS2/nioseclipse_bsp/\libucosii_bsp.a(os_cpu_c.o)
                                        0x862 (size before relaxing)
 .debug_str     0x0000000000003b35       0x26 C:/Users/Artee/Documents/ESAKBS2/nioseclipse_bsp/\libucosii_bsp.a(alt_find_file.o)
                                        0x24f (size before relaxing)
 .debug_str     0x0000000000003b5b       0x30 C:/Users/Artee/Documents/ESAKBS2/nioseclipse_bsp/\libucosii_bsp.a(alt_get_fd.o)
                                        0x2ed (size before relaxing)
 .debug_str     0x0000000000003b8b       0x2c C:/Users/Artee/Documents/ESAKBS2/nioseclipse_bsp/\libucosii_bsp.a(alt_icache_flush.o)
                                        0x15f (size before relaxing)
 .debug_str     0x0000000000003bb7       0x3a C:/Users/Artee/Documents/ESAKBS2/nioseclipse_bsp/\libucosii_bsp.a(alt_irq_handler.o)
                                        0x1e4 (size before relaxing)
 .debug_str     0x0000000000003bf1      0x48b C:/Users/Artee/Documents/ESAKBS2/nioseclipse_bsp/\libucosii_bsp.a(alt_instruction_exception_entry.o)
                                        0x5a4 (size before relaxing)
 .debug_str     0x000000000000407c       0x81 c:/intelfpga_lite/16.1/nios2eds/bin/gnu/h-x86_64-mingw32/bin/../lib/gcc/nios2-elf/5.3.0/../../../../../H-x86_64-mingw32/nios2-elf/lib/mhw-mulx\libc.a(lib_a-atexit.o)
                                        0x21d (size before relaxing)
 .debug_str     0x00000000000040fd       0x4c c:/intelfpga_lite/16.1/nios2eds/bin/gnu/h-x86_64-mingw32/bin/../lib/gcc/nios2-elf/5.3.0/../../../../../H-x86_64-mingw32/nios2-elf/lib/mhw-mulx\libc.a(lib_a-exit.o)
                                        0x5ba (size before relaxing)
 .debug_str     0x0000000000004149       0x44 c:/intelfpga_lite/16.1/nios2eds/bin/gnu/h-x86_64-mingw32/bin/../lib/gcc/nios2-elf/5.3.0/../../../../../H-x86_64-mingw32/nios2-elf/lib/mhw-mulx\libc.a(lib_a-memcmp.o)
                                        0x1e0 (size before relaxing)
 .debug_str     0x000000000000418d       0x3f c:/intelfpga_lite/16.1/nios2eds/bin/gnu/h-x86_64-mingw32/bin/../lib/gcc/nios2-elf/5.3.0/../../../../../H-x86_64-mingw32/nios2-elf/lib/mhw-mulx\libc.a(lib_a-__atexit.o)
                                        0x5f2 (size before relaxing)
 .debug_str     0x00000000000041cc       0x60 c:/intelfpga_lite/16.1/nios2eds/bin/gnu/h-x86_64-mingw32/bin/../lib/gcc/nios2-elf/5.3.0/../../../../../H-x86_64-mingw32/nios2-elf/lib/mhw-mulx\libc.a(lib_a-__call_atexit.o)
                                        0x5de (size before relaxing)
 .debug_str     0x000000000000422c       0x2a C:/Users/Artee/Documents/ESAKBS2/nioseclipse_bsp/\libucosii_bsp.a(alt_exit.o)
                                        0x1b8 (size before relaxing)

.debug_loc      0x0000000000000000     0x4a4c
 *(.debug_loc)
 .debug_loc     0x0000000000000000      0x117 c:/intelfpga_lite/16.1/nios2eds/bin/gnu/h-x86_64-mingw32/bin/../lib/gcc/nios2-elf/5.3.0/../../../../../H-x86_64-mingw32/nios2-elf/lib/mhw-mulx\libc.a(lib_a-puts.o)
 .debug_loc     0x0000000000000117       0x47 c:/intelfpga_lite/16.1/nios2eds/bin/gnu/h-x86_64-mingw32/bin/../lib/gcc/nios2-elf/5.3.0/../../../../../H-x86_64-mingw32/nios2-elf/lib/mhw-mulx\libc.a(lib_a-strlen.o)
 .debug_loc     0x000000000000015e      0x2ee c:/intelfpga_lite/16.1/nios2eds/bin/gnu/h-x86_64-mingw32/bin/../lib/gcc/nios2-elf/5.3.0/../../../../../H-x86_64-mingw32/nios2-elf/lib/mhw-mulx\libc.a(lib_a-findfp.o)
 .debug_loc     0x000000000000044c      0x5d7 c:/intelfpga_lite/16.1/nios2eds/bin/gnu/h-x86_64-mingw32/bin/../lib/gcc/nios2-elf/5.3.0/../../../../../H-x86_64-mingw32/nios2-elf/lib/mhw-mulx\libc.a(lib_a-fvwrite.o)
 .debug_loc     0x0000000000000a23      0x25b c:/intelfpga_lite/16.1/nios2eds/bin/gnu/h-x86_64-mingw32/bin/../lib/gcc/nios2-elf/5.3.0/../../../../../H-x86_64-mingw32/nios2-elf/lib/mhw-mulx\libc.a(lib_a-fwalk.o)
 .debug_loc     0x0000000000000c7e      0xb1b c:/intelfpga_lite/16.1/nios2eds/bin/gnu/h-x86_64-mingw32/bin/../lib/gcc/nios2-elf/5.3.0/../../../../../H-x86_64-mingw32/nios2-elf/lib/mhw-mulx\libc.a(lib_a-mallocr.o)
 .debug_loc     0x0000000000001799      0x1a1 c:/intelfpga_lite/16.1/nios2eds/bin/gnu/h-x86_64-mingw32/bin/../lib/gcc/nios2-elf/5.3.0/../../../../../H-x86_64-mingw32/nios2-elf/lib/mhw-mulx\libc.a(lib_a-memchr.o)
 .debug_loc     0x000000000000193a      0x266 c:/intelfpga_lite/16.1/nios2eds/bin/gnu/h-x86_64-mingw32/bin/../lib/gcc/nios2-elf/5.3.0/../../../../../H-x86_64-mingw32/nios2-elf/lib/mhw-mulx\libc.a(lib_a-memcpy.o)
 .debug_loc     0x0000000000001ba0      0x308 c:/intelfpga_lite/16.1/nios2eds/bin/gnu/h-x86_64-mingw32/bin/../lib/gcc/nios2-elf/5.3.0/../../../../../H-x86_64-mingw32/nios2-elf/lib/mhw-mulx\libc.a(lib_a-memmove.o)
 .debug_loc     0x0000000000001ea8      0x1a6 c:/intelfpga_lite/16.1/nios2eds/bin/gnu/h-x86_64-mingw32/bin/../lib/gcc/nios2-elf/5.3.0/../../../../../H-x86_64-mingw32/nios2-elf/lib/mhw-mulx\libc.a(lib_a-memset.o)
 .debug_loc     0x000000000000204e      0xde4 c:/intelfpga_lite/16.1/nios2eds/bin/gnu/h-x86_64-mingw32/bin/../lib/gcc/nios2-elf/5.3.0/../../../../../H-x86_64-mingw32/nios2-elf/lib/mhw-mulx\libc.a(lib_a-reallocr.o)
 .debug_loc     0x0000000000002e32       0x58 c:/intelfpga_lite/16.1/nios2eds/bin/gnu/h-x86_64-mingw32/bin/../lib/gcc/nios2-elf/5.3.0/../../../../../H-x86_64-mingw32/nios2-elf/lib/mhw-mulx\libc.a(lib_a-sbrkr.o)
 .debug_loc     0x0000000000002e8a      0x33a c:/intelfpga_lite/16.1/nios2eds/bin/gnu/h-x86_64-mingw32/bin/../lib/gcc/nios2-elf/5.3.0/../../../../../H-x86_64-mingw32/nios2-elf/lib/mhw-mulx\libc.a(lib_a-stdio.o)
 .debug_loc     0x00000000000031c4       0xb0 c:/intelfpga_lite/16.1/nios2eds/bin/gnu/h-x86_64-mingw32/bin/../lib/gcc/nios2-elf/5.3.0/../../../../../H-x86_64-mingw32/nios2-elf/lib/mhw-mulx\libc.a(lib_a-writer.o)
 .debug_loc     0x0000000000003274       0xa2 c:/intelfpga_lite/16.1/nios2eds/bin/gnu/h-x86_64-mingw32/bin/../lib/gcc/nios2-elf/5.3.0/../../../../../H-x86_64-mingw32/nios2-elf/lib/mhw-mulx\libc.a(lib_a-wsetup.o)
 .debug_loc     0x0000000000003316       0x58 c:/intelfpga_lite/16.1/nios2eds/bin/gnu/h-x86_64-mingw32/bin/../lib/gcc/nios2-elf/5.3.0/../../../../../H-x86_64-mingw32/nios2-elf/lib/mhw-mulx\libc.a(closer.o)
 .debug_loc     0x000000000000336e      0x199 c:/intelfpga_lite/16.1/nios2eds/bin/gnu/h-x86_64-mingw32/bin/../lib/gcc/nios2-elf/5.3.0/../../../../../H-x86_64-mingw32/nios2-elf/lib/mhw-mulx\libc.a(lib_a-fclose.o)
 .debug_loc     0x0000000000003507      0x36f c:/intelfpga_lite/16.1/nios2eds/bin/gnu/h-x86_64-mingw32/bin/../lib/gcc/nios2-elf/5.3.0/../../../../../H-x86_64-mingw32/nios2-elf/lib/mhw-mulx\libc.a(lib_a-fflush.o)
 .debug_loc     0x0000000000003876      0x4e7 c:/intelfpga_lite/16.1/nios2eds/bin/gnu/h-x86_64-mingw32/bin/../lib/gcc/nios2-elf/5.3.0/../../../../../H-x86_64-mingw32/nios2-elf/lib/mhw-mulx\libc.a(lib_a-freer.o)
 .debug_loc     0x0000000000003d5d       0xb0 c:/intelfpga_lite/16.1/nios2eds/bin/gnu/h-x86_64-mingw32/bin/../lib/gcc/nios2-elf/5.3.0/../../../../../H-x86_64-mingw32/nios2-elf/lib/mhw-mulx\libc.a(lib_a-lseekr.o)
 .debug_loc     0x0000000000003e0d      0x122 c:/intelfpga_lite/16.1/nios2eds/bin/gnu/h-x86_64-mingw32/bin/../lib/gcc/nios2-elf/5.3.0/../../../../../H-x86_64-mingw32/nios2-elf/lib/mhw-mulx\libc.a(lib_a-makebuf.o)
 .debug_loc     0x0000000000003f2f       0xb0 c:/intelfpga_lite/16.1/nios2eds/bin/gnu/h-x86_64-mingw32/bin/../lib/gcc/nios2-elf/5.3.0/../../../../../H-x86_64-mingw32/nios2-elf/lib/mhw-mulx\libc.a(lib_a-readr.o)
 .debug_loc     0x0000000000003fdf       0x84 c:/intelfpga_lite/16.1/nios2eds/bin/gnu/h-x86_64-mingw32/bin/../lib/gcc/nios2-elf/5.3.0/../../../../../H-x86_64-mingw32/nios2-elf/lib/mhw-mulx\libc.a(lib_a-fstatr.o)
 .debug_loc     0x0000000000004063       0x58 c:/intelfpga_lite/16.1/nios2eds/bin/gnu/h-x86_64-mingw32/bin/../lib/gcc/nios2-elf/5.3.0/../../../../../H-x86_64-mingw32/nios2-elf/lib/mhw-mulx\libc.a(lib_a-isattyr.o)
 .debug_loc     0x00000000000040bb      0x4ce c:/intelfpga_lite/16.1/nios2eds/bin/gnu/h-x86_64-mingw32/bin/../lib/gcc/nios2-elf/5.3.0/mhw-mulx\libgcc.a(lib2-divmod.o)
 .debug_loc     0x0000000000004589       0x2c c:/intelfpga_lite/16.1/nios2eds/bin/gnu/h-x86_64-mingw32/bin/../lib/gcc/nios2-elf/5.3.0/../../../../../H-x86_64-mingw32/nios2-elf/lib/mhw-mulx\libc.a(lib_a-atexit.o)
 .debug_loc     0x00000000000045b5       0x1e c:/intelfpga_lite/16.1/nios2eds/bin/gnu/h-x86_64-mingw32/bin/../lib/gcc/nios2-elf/5.3.0/../../../../../H-x86_64-mingw32/nios2-elf/lib/mhw-mulx\libc.a(lib_a-exit.o)
 .debug_loc     0x00000000000045d3      0x126 c:/intelfpga_lite/16.1/nios2eds/bin/gnu/h-x86_64-mingw32/bin/../lib/gcc/nios2-elf/5.3.0/../../../../../H-x86_64-mingw32/nios2-elf/lib/mhw-mulx\libc.a(lib_a-memcmp.o)
 .debug_loc     0x00000000000046f9      0x185 c:/intelfpga_lite/16.1/nios2eds/bin/gnu/h-x86_64-mingw32/bin/../lib/gcc/nios2-elf/5.3.0/../../../../../H-x86_64-mingw32/nios2-elf/lib/mhw-mulx\libc.a(lib_a-__atexit.o)
 .debug_loc     0x000000000000487e      0x1ce c:/intelfpga_lite/16.1/nios2eds/bin/gnu/h-x86_64-mingw32/bin/../lib/gcc/nios2-elf/5.3.0/../../../../../H-x86_64-mingw32/nios2-elf/lib/mhw-mulx\libc.a(lib_a-__call_atexit.o)

.debug_macinfo
 *(.debug_macinfo)

.debug_weaknames
 *(.debug_weaknames)

.debug_funcnames
 *(.debug_funcnames)

.debug_typenames
 *(.debug_typenames)

.debug_varnames
 *(.debug_varnames)

.debug_alt_sim_info
                0x0000000000000000       0x20
 *(.debug_alt_sim_info)
 .debug_alt_sim_info
                0x0000000000000000       0x20 C:/Users/Artee/Documents/ESAKBS2/nioseclipse_bsp//obj/HAL/src/crt0.o
                0x0000000004000000                __alt_data_end = 0x4000000
                0x0000000004000000                PROVIDE (__alt_stack_pointer, __alt_data_end)
                [!provide]                        PROVIDE (__alt_stack_limit, __alt_stack_base)
                0x000000000001a83c                PROVIDE (__alt_heap_start, end)
                0x0000000004000000                PROVIDE (__alt_heap_limit, 0x4000000)
OUTPUT(nioseclipse.elf elf32-littlenios2)

.debug_ranges   0x0000000000000000      0x680
 .debug_ranges  0x0000000000000000       0x20 C:/Users/Artee/Documents/ESAKBS2/nioseclipse_bsp//obj/HAL/src/crt0.o
 .debug_ranges  0x0000000000000020       0x30 c:/intelfpga_lite/16.1/nios2eds/bin/gnu/h-x86_64-mingw32/bin/../lib/gcc/nios2-elf/5.3.0/../../../../../H-x86_64-mingw32/nios2-elf/lib/mhw-mulx\libc.a(lib_a-puts.o)
 .debug_ranges  0x0000000000000050       0x10 c:/intelfpga_lite/16.1/nios2eds/bin/gnu/h-x86_64-mingw32/bin/../lib/gcc/nios2-elf/5.3.0/../../../../../H-x86_64-mingw32/nios2-elf/lib/mhw-mulx\libc.a(lib_a-strlen.o)
 .debug_ranges  0x0000000000000060       0xc8 c:/intelfpga_lite/16.1/nios2eds/bin/gnu/h-x86_64-mingw32/bin/../lib/gcc/nios2-elf/5.3.0/../../../../../H-x86_64-mingw32/nios2-elf/lib/mhw-mulx\libc.a(lib_a-findfp.o)
 .debug_ranges  0x0000000000000128       0x30 c:/intelfpga_lite/16.1/nios2eds/bin/gnu/h-x86_64-mingw32/bin/../lib/gcc/nios2-elf/5.3.0/../../../../../H-x86_64-mingw32/nios2-elf/lib/mhw-mulx\libc.a(lib_a-fvwrite.o)
 .debug_ranges  0x0000000000000158       0x18 c:/intelfpga_lite/16.1/nios2eds/bin/gnu/h-x86_64-mingw32/bin/../lib/gcc/nios2-elf/5.3.0/../../../../../H-x86_64-mingw32/nios2-elf/lib/mhw-mulx\libc.a(lib_a-fwalk.o)
 .debug_ranges  0x0000000000000170       0x48 c:/intelfpga_lite/16.1/nios2eds/bin/gnu/h-x86_64-mingw32/bin/../lib/gcc/nios2-elf/5.3.0/../../../../../H-x86_64-mingw32/nios2-elf/lib/mhw-mulx\libc.a(lib_a-mallocr.o)
 .debug_ranges  0x00000000000001b8       0x10 c:/intelfpga_lite/16.1/nios2eds/bin/gnu/h-x86_64-mingw32/bin/../lib/gcc/nios2-elf/5.3.0/../../../../../H-x86_64-mingw32/nios2-elf/lib/mhw-mulx\libc.a(lib_a-memchr.o)
 .debug_ranges  0x00000000000001c8       0x10 c:/intelfpga_lite/16.1/nios2eds/bin/gnu/h-x86_64-mingw32/bin/../lib/gcc/nios2-elf/5.3.0/../../../../../H-x86_64-mingw32/nios2-elf/lib/mhw-mulx\libc.a(lib_a-memcpy.o)
 .debug_ranges  0x00000000000001d8       0x10 c:/intelfpga_lite/16.1/nios2eds/bin/gnu/h-x86_64-mingw32/bin/../lib/gcc/nios2-elf/5.3.0/../../../../../H-x86_64-mingw32/nios2-elf/lib/mhw-mulx\libc.a(lib_a-memmove.o)
 .debug_ranges  0x00000000000001e8       0x10 c:/intelfpga_lite/16.1/nios2eds/bin/gnu/h-x86_64-mingw32/bin/../lib/gcc/nios2-elf/5.3.0/../../../../../H-x86_64-mingw32/nios2-elf/lib/mhw-mulx\libc.a(lib_a-memset.o)
 .debug_ranges  0x00000000000001f8      0x148 c:/intelfpga_lite/16.1/nios2eds/bin/gnu/h-x86_64-mingw32/bin/../lib/gcc/nios2-elf/5.3.0/../../../../../H-x86_64-mingw32/nios2-elf/lib/mhw-mulx\libc.a(lib_a-reallocr.o)
 .debug_ranges  0x0000000000000340       0x10 c:/intelfpga_lite/16.1/nios2eds/bin/gnu/h-x86_64-mingw32/bin/../lib/gcc/nios2-elf/5.3.0/../../../../../H-x86_64-mingw32/nios2-elf/lib/mhw-mulx\libc.a(lib_a-sbrkr.o)
 .debug_ranges  0x0000000000000350       0x30 c:/intelfpga_lite/16.1/nios2eds/bin/gnu/h-x86_64-mingw32/bin/../lib/gcc/nios2-elf/5.3.0/../../../../../H-x86_64-mingw32/nios2-elf/lib/mhw-mulx\libc.a(lib_a-stdio.o)
 .debug_ranges  0x0000000000000380       0x10 c:/intelfpga_lite/16.1/nios2eds/bin/gnu/h-x86_64-mingw32/bin/../lib/gcc/nios2-elf/5.3.0/../../../../../H-x86_64-mingw32/nios2-elf/lib/mhw-mulx\libc.a(lib_a-writer.o)
 .debug_ranges  0x0000000000000390       0x40 c:/intelfpga_lite/16.1/nios2eds/bin/gnu/h-x86_64-mingw32/bin/../lib/gcc/nios2-elf/5.3.0/../../../../../H-x86_64-mingw32/nios2-elf/lib/mhw-mulx\libc.a(lib_a-wsetup.o)
 .debug_ranges  0x00000000000003d0       0x10 c:/intelfpga_lite/16.1/nios2eds/bin/gnu/h-x86_64-mingw32/bin/../lib/gcc/nios2-elf/5.3.0/../../../../../H-x86_64-mingw32/nios2-elf/lib/mhw-mulx\libc.a(closer.o)
 .debug_ranges  0x00000000000003e0       0x48 c:/intelfpga_lite/16.1/nios2eds/bin/gnu/h-x86_64-mingw32/bin/../lib/gcc/nios2-elf/5.3.0/../../../../../H-x86_64-mingw32/nios2-elf/lib/mhw-mulx\libc.a(lib_a-fclose.o)
 .debug_ranges  0x0000000000000428       0x58 c:/intelfpga_lite/16.1/nios2eds/bin/gnu/h-x86_64-mingw32/bin/../lib/gcc/nios2-elf/5.3.0/../../../../../H-x86_64-mingw32/nios2-elf/lib/mhw-mulx\libc.a(lib_a-fflush.o)
 .debug_ranges  0x0000000000000480       0x18 c:/intelfpga_lite/16.1/nios2eds/bin/gnu/h-x86_64-mingw32/bin/../lib/gcc/nios2-elf/5.3.0/../../../../../H-x86_64-mingw32/nios2-elf/lib/mhw-mulx\libc.a(lib_a-freer.o)
 .debug_ranges  0x0000000000000498       0x10 c:/intelfpga_lite/16.1/nios2eds/bin/gnu/h-x86_64-mingw32/bin/../lib/gcc/nios2-elf/5.3.0/../../../../../H-x86_64-mingw32/nios2-elf/lib/mhw-mulx\libc.a(lib_a-lseekr.o)
 .debug_ranges  0x00000000000004a8       0x10 c:/intelfpga_lite/16.1/nios2eds/bin/gnu/h-x86_64-mingw32/bin/../lib/gcc/nios2-elf/5.3.0/../../../../../H-x86_64-mingw32/nios2-elf/lib/mhw-mulx\libc.a(lib_a-makebuf.o)
 .debug_ranges  0x00000000000004b8       0x10 c:/intelfpga_lite/16.1/nios2eds/bin/gnu/h-x86_64-mingw32/bin/../lib/gcc/nios2-elf/5.3.0/../../../../../H-x86_64-mingw32/nios2-elf/lib/mhw-mulx\libc.a(lib_a-readr.o)
 .debug_ranges  0x00000000000004c8       0x10 c:/intelfpga_lite/16.1/nios2eds/bin/gnu/h-x86_64-mingw32/bin/../lib/gcc/nios2-elf/5.3.0/../../../../../H-x86_64-mingw32/nios2-elf/lib/mhw-mulx\libc.a(lib_a-fstatr.o)
 .debug_ranges  0x00000000000004d8       0x10 c:/intelfpga_lite/16.1/nios2eds/bin/gnu/h-x86_64-mingw32/bin/../lib/gcc/nios2-elf/5.3.0/../../../../../H-x86_64-mingw32/nios2-elf/lib/mhw-mulx\libc.a(lib_a-isattyr.o)
 .debug_ranges  0x00000000000004e8       0x60 c:/intelfpga_lite/16.1/nios2eds/bin/gnu/h-x86_64-mingw32/bin/../lib/gcc/nios2-elf/5.3.0/mhw-mulx\libgcc.a(lib2-divmod.o)
 .debug_ranges  0x0000000000000548       0x30 C:/Users/Artee/Documents/ESAKBS2/nioseclipse_bsp/\libucosii_bsp.a(altera_avalon_jtag_uart_init.o)
 .debug_ranges  0x0000000000000578       0x18 C:/Users/Artee/Documents/ESAKBS2/nioseclipse_bsp/\libucosii_bsp.a(altera_avalon_jtag_uart_read.o)
 .debug_ranges  0x0000000000000590       0x28 C:/Users/Artee/Documents/ESAKBS2/nioseclipse_bsp/\libucosii_bsp.a(alt_irq_entry.o)
 .debug_ranges  0x00000000000005b8       0x10 C:/Users/Artee/Documents/ESAKBS2/nioseclipse_bsp/\libucosii_bsp.a(alt_irq_handler.o)
 .debug_ranges  0x00000000000005c8       0x30 C:/Users/Artee/Documents/ESAKBS2/nioseclipse_bsp/\libucosii_bsp.a(alt_exception_entry.o)
 .debug_ranges  0x00000000000005f8       0x18 C:/Users/Artee/Documents/ESAKBS2/nioseclipse_bsp/\libucosii_bsp.a(alt_instruction_exception_entry.o)
 .debug_ranges  0x0000000000000610       0x10 c:/intelfpga_lite/16.1/nios2eds/bin/gnu/h-x86_64-mingw32/bin/../lib/gcc/nios2-elf/5.3.0/../../../../../H-x86_64-mingw32/nios2-elf/lib/mhw-mulx\libc.a(lib_a-atexit.o)
 .debug_ranges  0x0000000000000620       0x10 c:/intelfpga_lite/16.1/nios2eds/bin/gnu/h-x86_64-mingw32/bin/../lib/gcc/nios2-elf/5.3.0/../../../../../H-x86_64-mingw32/nios2-elf/lib/mhw-mulx\libc.a(lib_a-exit.o)
 .debug_ranges  0x0000000000000630       0x10 c:/intelfpga_lite/16.1/nios2eds/bin/gnu/h-x86_64-mingw32/bin/../lib/gcc/nios2-elf/5.3.0/../../../../../H-x86_64-mingw32/nios2-elf/lib/mhw-mulx\libc.a(lib_a-memcmp.o)
 .debug_ranges  0x0000000000000640       0x10 c:/intelfpga_lite/16.1/nios2eds/bin/gnu/h-x86_64-mingw32/bin/../lib/gcc/nios2-elf/5.3.0/../../../../../H-x86_64-mingw32/nios2-elf/lib/mhw-mulx\libc.a(lib_a-__atexit.o)
 .debug_ranges  0x0000000000000650       0x30 c:/intelfpga_lite/16.1/nios2eds/bin/gnu/h-x86_64-mingw32/bin/../lib/gcc/nios2-elf/5.3.0/../../../../../H-x86_64-mingw32/nios2-elf/lib/mhw-mulx\libc.a(lib_a-__call_atexit.o)
